
Proyecto_base_Exportado-debug.elf:     file format elf32-littlearm

Sections:
Idx Name          Size      VMA       LMA       File off  Algn
  0 .text         00005b0c  08000000  08000000  00010000  2**2
                  CONTENTS, ALLOC, LOAD, READONLY, CODE
  1 .ARM.exidx    00000008  08005b0c  08005b0c  00015b0c  2**2
                  CONTENTS, ALLOC, LOAD, READONLY, DATA
  2 .data         00000628  200000c0  08005b14  000200c0  2**2
                  CONTENTS, ALLOC, LOAD, DATA
  3 .bss          0000063c  200006e8  08006140  000206e8  2**3
                  ALLOC
  4 .ARM.attributes 00000028  00000000  00000000  000206e8  2**0
                  CONTENTS, READONLY
  5 .comment      0000007c  00000000  00000000  00020710  2**0
                  CONTENTS, READONLY
  6 .debug_info   0004402b  00000000  00000000  0002078c  2**0
                  CONTENTS, READONLY, DEBUGGING
  7 .debug_abbrev 00008fd8  00000000  00000000  000647b7  2**0
                  CONTENTS, READONLY, DEBUGGING
  8 .debug_loc    000115d0  00000000  00000000  0006d78f  2**0
                  CONTENTS, READONLY, DEBUGGING
  9 .debug_aranges 00001898  00000000  00000000  0007ed60  2**3
                  CONTENTS, READONLY, DEBUGGING
 10 .debug_ranges 00001c60  00000000  00000000  000805f8  2**3
                  CONTENTS, READONLY, DEBUGGING
 11 .debug_line   0000cc0d  00000000  00000000  00082258  2**0
                  CONTENTS, READONLY, DEBUGGING
 12 .debug_str    0000cd89  00000000  00000000  0008ee65  2**0
                  CONTENTS, READONLY, DEBUGGING
 13 .debug_frame  000049dc  00000000  00000000  0009bbf0  2**2
                  CONTENTS, READONLY, DEBUGGING

Disassembly of section .text:

08000000 <g_pfnVectors>:
 8000000:	00 40 00 20 79 23 00 08 cd 23 00 08 cd 23 00 08     .@. y#...#...#..
	...
 800002c:	cd 23 00 08 00 00 00 00 00 00 00 00 cd 23 00 08     .#...........#..
 800003c:	cd 23 00 08 cd 23 00 08 00 00 00 00 cd 23 00 08     .#...#.......#..
 800004c:	cd 23 00 08 cd 23 00 08 cd 23 00 08 cd 23 00 08     .#...#...#...#..
 800005c:	cd 23 00 08 00 00 00 00 cd 23 00 08 cd 23 00 08     .#.......#...#..
 800006c:	cd 23 00 08 cd 23 00 08 cd 23 00 08 cd 23 00 08     .#...#...#...#..
 800007c:	00 00 00 00 cd 23 00 08 cd 23 00 08 cd 23 00 08     .....#...#...#..
 800008c:	cd 23 00 08 cd 23 00 08 cd 23 00 08 cd 23 00 08     .#...#...#...#..
 800009c:	cd 23 00 08 cd 23 00 08 cd 23 00 08 cd 23 00 08     .#...#...#...#..
 80000ac:	cd 23 00 08 cd 23 00 08 cd 23 00 08 00 00 00 00     .#...#...#......
 80000bc:	cd 23 00 08                                         .#..

080000c0 <__do_global_dtors_aux>:
 80000c0:	b510      	push	{r4, lr}
 80000c2:	4c06      	ldr	r4, [pc, #24]	; (80000dc <__do_global_dtors_aux+0x1c>)
 80000c4:	7823      	ldrb	r3, [r4, #0]
 80000c6:	2b00      	cmp	r3, #0
 80000c8:	d107      	bne.n	80000da <__do_global_dtors_aux+0x1a>
 80000ca:	4b05      	ldr	r3, [pc, #20]	; (80000e0 <__do_global_dtors_aux+0x20>)
 80000cc:	2b00      	cmp	r3, #0
 80000ce:	d002      	beq.n	80000d6 <__do_global_dtors_aux+0x16>
 80000d0:	4804      	ldr	r0, [pc, #16]	; (80000e4 <__do_global_dtors_aux+0x24>)
 80000d2:	e000      	b.n	80000d6 <__do_global_dtors_aux+0x16>
 80000d4:	bf00      	nop
 80000d6:	2301      	movs	r3, #1
 80000d8:	7023      	strb	r3, [r4, #0]
 80000da:	bd10      	pop	{r4, pc}
 80000dc:	200006e8 	.word	0x200006e8
 80000e0:	00000000 	.word	0x00000000
 80000e4:	080055f0 	.word	0x080055f0

080000e8 <frame_dummy>:
 80000e8:	4b04      	ldr	r3, [pc, #16]	; (80000fc <frame_dummy+0x14>)
 80000ea:	b510      	push	{r4, lr}
 80000ec:	2b00      	cmp	r3, #0
 80000ee:	d003      	beq.n	80000f8 <frame_dummy+0x10>
 80000f0:	4903      	ldr	r1, [pc, #12]	; (8000100 <frame_dummy+0x18>)
 80000f2:	4804      	ldr	r0, [pc, #16]	; (8000104 <frame_dummy+0x1c>)
 80000f4:	e000      	b.n	80000f8 <frame_dummy+0x10>
 80000f6:	bf00      	nop
 80000f8:	bd10      	pop	{r4, pc}
 80000fa:	46c0      	nop			; (mov r8, r8)
 80000fc:	00000000 	.word	0x00000000
 8000100:	200006ec 	.word	0x200006ec
 8000104:	080055f0 	.word	0x080055f0

08000108 <strcmp>:
 8000108:	7802      	ldrb	r2, [r0, #0]
 800010a:	780b      	ldrb	r3, [r1, #0]
 800010c:	2a00      	cmp	r2, #0
 800010e:	d003      	beq.n	8000118 <strcmp+0x10>
 8000110:	3001      	adds	r0, #1
 8000112:	3101      	adds	r1, #1
 8000114:	429a      	cmp	r2, r3
 8000116:	d0f7      	beq.n	8000108 <strcmp>
 8000118:	1ad0      	subs	r0, r2, r3
 800011a:	4770      	bx	lr

0800011c <strlen>:
 800011c:	2300      	movs	r3, #0
 800011e:	5cc2      	ldrb	r2, [r0, r3]
 8000120:	3301      	adds	r3, #1
 8000122:	2a00      	cmp	r2, #0
 8000124:	d1fb      	bne.n	800011e <strlen+0x2>
 8000126:	1e58      	subs	r0, r3, #1
 8000128:	4770      	bx	lr
	...

0800012c <__udivsi3>:
 800012c:	2200      	movs	r2, #0
 800012e:	0843      	lsrs	r3, r0, #1
 8000130:	428b      	cmp	r3, r1
 8000132:	d374      	bcc.n	800021e <__udivsi3+0xf2>
 8000134:	0903      	lsrs	r3, r0, #4
 8000136:	428b      	cmp	r3, r1
 8000138:	d35f      	bcc.n	80001fa <__udivsi3+0xce>
 800013a:	0a03      	lsrs	r3, r0, #8
 800013c:	428b      	cmp	r3, r1
 800013e:	d344      	bcc.n	80001ca <__udivsi3+0x9e>
 8000140:	0b03      	lsrs	r3, r0, #12
 8000142:	428b      	cmp	r3, r1
 8000144:	d328      	bcc.n	8000198 <__udivsi3+0x6c>
 8000146:	0c03      	lsrs	r3, r0, #16
 8000148:	428b      	cmp	r3, r1
 800014a:	d30d      	bcc.n	8000168 <__udivsi3+0x3c>
 800014c:	22ff      	movs	r2, #255	; 0xff
 800014e:	0209      	lsls	r1, r1, #8
 8000150:	ba12      	rev	r2, r2
 8000152:	0c03      	lsrs	r3, r0, #16
 8000154:	428b      	cmp	r3, r1
 8000156:	d302      	bcc.n	800015e <__udivsi3+0x32>
 8000158:	1212      	asrs	r2, r2, #8
 800015a:	0209      	lsls	r1, r1, #8
 800015c:	d065      	beq.n	800022a <__udivsi3+0xfe>
 800015e:	0b03      	lsrs	r3, r0, #12
 8000160:	428b      	cmp	r3, r1
 8000162:	d319      	bcc.n	8000198 <__udivsi3+0x6c>
 8000164:	e000      	b.n	8000168 <__udivsi3+0x3c>
 8000166:	0a09      	lsrs	r1, r1, #8
 8000168:	0bc3      	lsrs	r3, r0, #15
 800016a:	428b      	cmp	r3, r1
 800016c:	d301      	bcc.n	8000172 <__udivsi3+0x46>
 800016e:	03cb      	lsls	r3, r1, #15
 8000170:	1ac0      	subs	r0, r0, r3
 8000172:	4152      	adcs	r2, r2
 8000174:	0b83      	lsrs	r3, r0, #14
 8000176:	428b      	cmp	r3, r1
 8000178:	d301      	bcc.n	800017e <__udivsi3+0x52>
 800017a:	038b      	lsls	r3, r1, #14
 800017c:	1ac0      	subs	r0, r0, r3
 800017e:	4152      	adcs	r2, r2
 8000180:	0b43      	lsrs	r3, r0, #13
 8000182:	428b      	cmp	r3, r1
 8000184:	d301      	bcc.n	800018a <__udivsi3+0x5e>
 8000186:	034b      	lsls	r3, r1, #13
 8000188:	1ac0      	subs	r0, r0, r3
 800018a:	4152      	adcs	r2, r2
 800018c:	0b03      	lsrs	r3, r0, #12
 800018e:	428b      	cmp	r3, r1
 8000190:	d301      	bcc.n	8000196 <__udivsi3+0x6a>
 8000192:	030b      	lsls	r3, r1, #12
 8000194:	1ac0      	subs	r0, r0, r3
 8000196:	4152      	adcs	r2, r2
 8000198:	0ac3      	lsrs	r3, r0, #11
 800019a:	428b      	cmp	r3, r1
 800019c:	d301      	bcc.n	80001a2 <__udivsi3+0x76>
 800019e:	02cb      	lsls	r3, r1, #11
 80001a0:	1ac0      	subs	r0, r0, r3
 80001a2:	4152      	adcs	r2, r2
 80001a4:	0a83      	lsrs	r3, r0, #10
 80001a6:	428b      	cmp	r3, r1
 80001a8:	d301      	bcc.n	80001ae <__udivsi3+0x82>
 80001aa:	028b      	lsls	r3, r1, #10
 80001ac:	1ac0      	subs	r0, r0, r3
 80001ae:	4152      	adcs	r2, r2
 80001b0:	0a43      	lsrs	r3, r0, #9
 80001b2:	428b      	cmp	r3, r1
 80001b4:	d301      	bcc.n	80001ba <__udivsi3+0x8e>
 80001b6:	024b      	lsls	r3, r1, #9
 80001b8:	1ac0      	subs	r0, r0, r3
 80001ba:	4152      	adcs	r2, r2
 80001bc:	0a03      	lsrs	r3, r0, #8
 80001be:	428b      	cmp	r3, r1
 80001c0:	d301      	bcc.n	80001c6 <__udivsi3+0x9a>
 80001c2:	020b      	lsls	r3, r1, #8
 80001c4:	1ac0      	subs	r0, r0, r3
 80001c6:	4152      	adcs	r2, r2
 80001c8:	d2cd      	bcs.n	8000166 <__udivsi3+0x3a>
 80001ca:	09c3      	lsrs	r3, r0, #7
 80001cc:	428b      	cmp	r3, r1
 80001ce:	d301      	bcc.n	80001d4 <__udivsi3+0xa8>
 80001d0:	01cb      	lsls	r3, r1, #7
 80001d2:	1ac0      	subs	r0, r0, r3
 80001d4:	4152      	adcs	r2, r2
 80001d6:	0983      	lsrs	r3, r0, #6
 80001d8:	428b      	cmp	r3, r1
 80001da:	d301      	bcc.n	80001e0 <__udivsi3+0xb4>
 80001dc:	018b      	lsls	r3, r1, #6
 80001de:	1ac0      	subs	r0, r0, r3
 80001e0:	4152      	adcs	r2, r2
 80001e2:	0943      	lsrs	r3, r0, #5
 80001e4:	428b      	cmp	r3, r1
 80001e6:	d301      	bcc.n	80001ec <__udivsi3+0xc0>
 80001e8:	014b      	lsls	r3, r1, #5
 80001ea:	1ac0      	subs	r0, r0, r3
 80001ec:	4152      	adcs	r2, r2
 80001ee:	0903      	lsrs	r3, r0, #4
 80001f0:	428b      	cmp	r3, r1
 80001f2:	d301      	bcc.n	80001f8 <__udivsi3+0xcc>
 80001f4:	010b      	lsls	r3, r1, #4
 80001f6:	1ac0      	subs	r0, r0, r3
 80001f8:	4152      	adcs	r2, r2
 80001fa:	08c3      	lsrs	r3, r0, #3
 80001fc:	428b      	cmp	r3, r1
 80001fe:	d301      	bcc.n	8000204 <__udivsi3+0xd8>
 8000200:	00cb      	lsls	r3, r1, #3
 8000202:	1ac0      	subs	r0, r0, r3
 8000204:	4152      	adcs	r2, r2
 8000206:	0883      	lsrs	r3, r0, #2
 8000208:	428b      	cmp	r3, r1
 800020a:	d301      	bcc.n	8000210 <__udivsi3+0xe4>
 800020c:	008b      	lsls	r3, r1, #2
 800020e:	1ac0      	subs	r0, r0, r3
 8000210:	4152      	adcs	r2, r2
 8000212:	0843      	lsrs	r3, r0, #1
 8000214:	428b      	cmp	r3, r1
 8000216:	d301      	bcc.n	800021c <__udivsi3+0xf0>
 8000218:	004b      	lsls	r3, r1, #1
 800021a:	1ac0      	subs	r0, r0, r3
 800021c:	4152      	adcs	r2, r2
 800021e:	1a41      	subs	r1, r0, r1
 8000220:	d200      	bcs.n	8000224 <__udivsi3+0xf8>
 8000222:	4601      	mov	r1, r0
 8000224:	4152      	adcs	r2, r2
 8000226:	4610      	mov	r0, r2
 8000228:	4770      	bx	lr
 800022a:	e7ff      	b.n	800022c <__udivsi3+0x100>
 800022c:	b501      	push	{r0, lr}
 800022e:	2000      	movs	r0, #0
 8000230:	f000 f806 	bl	8000240 <__aeabi_idiv0>
 8000234:	bd02      	pop	{r1, pc}
 8000236:	46c0      	nop			; (mov r8, r8)

08000238 <__aeabi_uidivmod>:
 8000238:	2900      	cmp	r1, #0
 800023a:	d0f7      	beq.n	800022c <__udivsi3+0x100>
 800023c:	e776      	b.n	800012c <__udivsi3>
 800023e:	4770      	bx	lr

08000240 <__aeabi_idiv0>:
 8000240:	4770      	bx	lr
 8000242:	46c0      	nop			; (mov r8, r8)

08000244 <__aeabi_uldivmod>:
 8000244:	2b00      	cmp	r3, #0
 8000246:	d111      	bne.n	800026c <__aeabi_uldivmod+0x28>
 8000248:	2a00      	cmp	r2, #0
 800024a:	d10f      	bne.n	800026c <__aeabi_uldivmod+0x28>
 800024c:	2900      	cmp	r1, #0
 800024e:	d100      	bne.n	8000252 <__aeabi_uldivmod+0xe>
 8000250:	2800      	cmp	r0, #0
 8000252:	d002      	beq.n	800025a <__aeabi_uldivmod+0x16>
 8000254:	2100      	movs	r1, #0
 8000256:	43c9      	mvns	r1, r1
 8000258:	1c08      	adds	r0, r1, #0
 800025a:	b407      	push	{r0, r1, r2}
 800025c:	4802      	ldr	r0, [pc, #8]	; (8000268 <__aeabi_uldivmod+0x24>)
 800025e:	a102      	add	r1, pc, #8	; (adr r1, 8000268 <__aeabi_uldivmod+0x24>)
 8000260:	1840      	adds	r0, r0, r1
 8000262:	9002      	str	r0, [sp, #8]
 8000264:	bd03      	pop	{r0, r1, pc}
 8000266:	46c0      	nop			; (mov r8, r8)
 8000268:	ffffffd9 	.word	0xffffffd9
 800026c:	b403      	push	{r0, r1}
 800026e:	4668      	mov	r0, sp
 8000270:	b501      	push	{r0, lr}
 8000272:	9802      	ldr	r0, [sp, #8]
 8000274:	f000 f830 	bl	80002d8 <__udivmoddi4>
 8000278:	9b01      	ldr	r3, [sp, #4]
 800027a:	469e      	mov	lr, r3
 800027c:	b002      	add	sp, #8
 800027e:	bc0c      	pop	{r2, r3}
 8000280:	4770      	bx	lr
 8000282:	46c0      	nop			; (mov r8, r8)

08000284 <__aeabi_lmul>:
 8000284:	b5f0      	push	{r4, r5, r6, r7, lr}
 8000286:	46ce      	mov	lr, r9
 8000288:	4647      	mov	r7, r8
 800028a:	0415      	lsls	r5, r2, #16
 800028c:	0c2d      	lsrs	r5, r5, #16
 800028e:	002e      	movs	r6, r5
 8000290:	b580      	push	{r7, lr}
 8000292:	0407      	lsls	r7, r0, #16
 8000294:	0c14      	lsrs	r4, r2, #16
 8000296:	0c3f      	lsrs	r7, r7, #16
 8000298:	4699      	mov	r9, r3
 800029a:	0c03      	lsrs	r3, r0, #16
 800029c:	437e      	muls	r6, r7
 800029e:	435d      	muls	r5, r3
 80002a0:	4367      	muls	r7, r4
 80002a2:	4363      	muls	r3, r4
 80002a4:	197f      	adds	r7, r7, r5
 80002a6:	0c34      	lsrs	r4, r6, #16
 80002a8:	19e4      	adds	r4, r4, r7
 80002aa:	469c      	mov	ip, r3
 80002ac:	42a5      	cmp	r5, r4
 80002ae:	d903      	bls.n	80002b8 <__aeabi_lmul+0x34>
 80002b0:	2380      	movs	r3, #128	; 0x80
 80002b2:	025b      	lsls	r3, r3, #9
 80002b4:	4698      	mov	r8, r3
 80002b6:	44c4      	add	ip, r8
 80002b8:	464b      	mov	r3, r9
 80002ba:	4351      	muls	r1, r2
 80002bc:	4343      	muls	r3, r0
 80002be:	0436      	lsls	r6, r6, #16
 80002c0:	0c36      	lsrs	r6, r6, #16
 80002c2:	0c25      	lsrs	r5, r4, #16
 80002c4:	0424      	lsls	r4, r4, #16
 80002c6:	4465      	add	r5, ip
 80002c8:	19a4      	adds	r4, r4, r6
 80002ca:	1859      	adds	r1, r3, r1
 80002cc:	1949      	adds	r1, r1, r5
 80002ce:	0020      	movs	r0, r4
 80002d0:	bc0c      	pop	{r2, r3}
 80002d2:	4690      	mov	r8, r2
 80002d4:	4699      	mov	r9, r3
 80002d6:	bdf0      	pop	{r4, r5, r6, r7, pc}

080002d8 <__udivmoddi4>:
 80002d8:	b5f0      	push	{r4, r5, r6, r7, lr}
 80002da:	4657      	mov	r7, sl
 80002dc:	464e      	mov	r6, r9
 80002de:	4645      	mov	r5, r8
 80002e0:	46de      	mov	lr, fp
 80002e2:	b5e0      	push	{r5, r6, r7, lr}
 80002e4:	0004      	movs	r4, r0
 80002e6:	b083      	sub	sp, #12
 80002e8:	000d      	movs	r5, r1
 80002ea:	4692      	mov	sl, r2
 80002ec:	4699      	mov	r9, r3
 80002ee:	428b      	cmp	r3, r1
 80002f0:	d82f      	bhi.n	8000352 <__udivmoddi4+0x7a>
 80002f2:	d02c      	beq.n	800034e <__udivmoddi4+0x76>
 80002f4:	4649      	mov	r1, r9
 80002f6:	4650      	mov	r0, sl
 80002f8:	f000 f8cc 	bl	8000494 <__clzdi2>
 80002fc:	0029      	movs	r1, r5
 80002fe:	0006      	movs	r6, r0
 8000300:	0020      	movs	r0, r4
 8000302:	f000 f8c7 	bl	8000494 <__clzdi2>
 8000306:	1a33      	subs	r3, r6, r0
 8000308:	4698      	mov	r8, r3
 800030a:	3b20      	subs	r3, #32
 800030c:	469b      	mov	fp, r3
 800030e:	d500      	bpl.n	8000312 <__udivmoddi4+0x3a>
 8000310:	e074      	b.n	80003fc <__udivmoddi4+0x124>
 8000312:	4653      	mov	r3, sl
 8000314:	465a      	mov	r2, fp
 8000316:	4093      	lsls	r3, r2
 8000318:	001f      	movs	r7, r3
 800031a:	4653      	mov	r3, sl
 800031c:	4642      	mov	r2, r8
 800031e:	4093      	lsls	r3, r2
 8000320:	001e      	movs	r6, r3
 8000322:	42af      	cmp	r7, r5
 8000324:	d829      	bhi.n	800037a <__udivmoddi4+0xa2>
 8000326:	d026      	beq.n	8000376 <__udivmoddi4+0x9e>
 8000328:	465b      	mov	r3, fp
 800032a:	1ba4      	subs	r4, r4, r6
 800032c:	41bd      	sbcs	r5, r7
 800032e:	2b00      	cmp	r3, #0
 8000330:	da00      	bge.n	8000334 <__udivmoddi4+0x5c>
 8000332:	e079      	b.n	8000428 <__udivmoddi4+0x150>
 8000334:	2200      	movs	r2, #0
 8000336:	2300      	movs	r3, #0
 8000338:	9200      	str	r2, [sp, #0]
 800033a:	9301      	str	r3, [sp, #4]
 800033c:	2301      	movs	r3, #1
 800033e:	465a      	mov	r2, fp
 8000340:	4093      	lsls	r3, r2
 8000342:	9301      	str	r3, [sp, #4]
 8000344:	2301      	movs	r3, #1
 8000346:	4642      	mov	r2, r8
 8000348:	4093      	lsls	r3, r2
 800034a:	9300      	str	r3, [sp, #0]
 800034c:	e019      	b.n	8000382 <__udivmoddi4+0xaa>
 800034e:	4282      	cmp	r2, r0
 8000350:	d9d0      	bls.n	80002f4 <__udivmoddi4+0x1c>
 8000352:	2200      	movs	r2, #0
 8000354:	2300      	movs	r3, #0
 8000356:	9200      	str	r2, [sp, #0]
 8000358:	9301      	str	r3, [sp, #4]
 800035a:	9b0c      	ldr	r3, [sp, #48]	; 0x30
 800035c:	2b00      	cmp	r3, #0
 800035e:	d001      	beq.n	8000364 <__udivmoddi4+0x8c>
 8000360:	601c      	str	r4, [r3, #0]
 8000362:	605d      	str	r5, [r3, #4]
 8000364:	9800      	ldr	r0, [sp, #0]
 8000366:	9901      	ldr	r1, [sp, #4]
 8000368:	b003      	add	sp, #12
 800036a:	bc3c      	pop	{r2, r3, r4, r5}
 800036c:	4690      	mov	r8, r2
 800036e:	4699      	mov	r9, r3
 8000370:	46a2      	mov	sl, r4
 8000372:	46ab      	mov	fp, r5
 8000374:	bdf0      	pop	{r4, r5, r6, r7, pc}
 8000376:	42a3      	cmp	r3, r4
 8000378:	d9d6      	bls.n	8000328 <__udivmoddi4+0x50>
 800037a:	2200      	movs	r2, #0
 800037c:	2300      	movs	r3, #0
 800037e:	9200      	str	r2, [sp, #0]
 8000380:	9301      	str	r3, [sp, #4]
 8000382:	4643      	mov	r3, r8
 8000384:	2b00      	cmp	r3, #0
 8000386:	d0e8      	beq.n	800035a <__udivmoddi4+0x82>
 8000388:	07fb      	lsls	r3, r7, #31
 800038a:	0872      	lsrs	r2, r6, #1
 800038c:	431a      	orrs	r2, r3
 800038e:	4646      	mov	r6, r8
 8000390:	087b      	lsrs	r3, r7, #1
 8000392:	e00e      	b.n	80003b2 <__udivmoddi4+0xda>
 8000394:	42ab      	cmp	r3, r5
 8000396:	d101      	bne.n	800039c <__udivmoddi4+0xc4>
 8000398:	42a2      	cmp	r2, r4
 800039a:	d80c      	bhi.n	80003b6 <__udivmoddi4+0xde>
 800039c:	1aa4      	subs	r4, r4, r2
 800039e:	419d      	sbcs	r5, r3
 80003a0:	2001      	movs	r0, #1
 80003a2:	1924      	adds	r4, r4, r4
 80003a4:	416d      	adcs	r5, r5
 80003a6:	2100      	movs	r1, #0
 80003a8:	3e01      	subs	r6, #1
 80003aa:	1824      	adds	r4, r4, r0
 80003ac:	414d      	adcs	r5, r1
 80003ae:	2e00      	cmp	r6, #0
 80003b0:	d006      	beq.n	80003c0 <__udivmoddi4+0xe8>
 80003b2:	42ab      	cmp	r3, r5
 80003b4:	d9ee      	bls.n	8000394 <__udivmoddi4+0xbc>
 80003b6:	3e01      	subs	r6, #1
 80003b8:	1924      	adds	r4, r4, r4
 80003ba:	416d      	adcs	r5, r5
 80003bc:	2e00      	cmp	r6, #0
 80003be:	d1f8      	bne.n	80003b2 <__udivmoddi4+0xda>
 80003c0:	465b      	mov	r3, fp
 80003c2:	9800      	ldr	r0, [sp, #0]
 80003c4:	9901      	ldr	r1, [sp, #4]
 80003c6:	1900      	adds	r0, r0, r4
 80003c8:	4169      	adcs	r1, r5
 80003ca:	2b00      	cmp	r3, #0
 80003cc:	db22      	blt.n	8000414 <__udivmoddi4+0x13c>
 80003ce:	002b      	movs	r3, r5
 80003d0:	465a      	mov	r2, fp
 80003d2:	40d3      	lsrs	r3, r2
 80003d4:	002a      	movs	r2, r5
 80003d6:	4644      	mov	r4, r8
 80003d8:	40e2      	lsrs	r2, r4
 80003da:	001c      	movs	r4, r3
 80003dc:	465b      	mov	r3, fp
 80003de:	0015      	movs	r5, r2
 80003e0:	2b00      	cmp	r3, #0
 80003e2:	db2c      	blt.n	800043e <__udivmoddi4+0x166>
 80003e4:	0026      	movs	r6, r4
 80003e6:	409e      	lsls	r6, r3
 80003e8:	0033      	movs	r3, r6
 80003ea:	0026      	movs	r6, r4
 80003ec:	4647      	mov	r7, r8
 80003ee:	40be      	lsls	r6, r7
 80003f0:	0032      	movs	r2, r6
 80003f2:	1a80      	subs	r0, r0, r2
 80003f4:	4199      	sbcs	r1, r3
 80003f6:	9000      	str	r0, [sp, #0]
 80003f8:	9101      	str	r1, [sp, #4]
 80003fa:	e7ae      	b.n	800035a <__udivmoddi4+0x82>
 80003fc:	4642      	mov	r2, r8
 80003fe:	2320      	movs	r3, #32
 8000400:	1a9b      	subs	r3, r3, r2
 8000402:	4652      	mov	r2, sl
 8000404:	40da      	lsrs	r2, r3
 8000406:	4641      	mov	r1, r8
 8000408:	0013      	movs	r3, r2
 800040a:	464a      	mov	r2, r9
 800040c:	408a      	lsls	r2, r1
 800040e:	0017      	movs	r7, r2
 8000410:	431f      	orrs	r7, r3
 8000412:	e782      	b.n	800031a <__udivmoddi4+0x42>
 8000414:	4642      	mov	r2, r8
 8000416:	2320      	movs	r3, #32
 8000418:	1a9b      	subs	r3, r3, r2
 800041a:	002a      	movs	r2, r5
 800041c:	4646      	mov	r6, r8
 800041e:	409a      	lsls	r2, r3
 8000420:	0023      	movs	r3, r4
 8000422:	40f3      	lsrs	r3, r6
 8000424:	4313      	orrs	r3, r2
 8000426:	e7d5      	b.n	80003d4 <__udivmoddi4+0xfc>
 8000428:	4642      	mov	r2, r8
 800042a:	2320      	movs	r3, #32
 800042c:	2100      	movs	r1, #0
 800042e:	1a9b      	subs	r3, r3, r2
 8000430:	2200      	movs	r2, #0
 8000432:	9100      	str	r1, [sp, #0]
 8000434:	9201      	str	r2, [sp, #4]
 8000436:	2201      	movs	r2, #1
 8000438:	40da      	lsrs	r2, r3
 800043a:	9201      	str	r2, [sp, #4]
 800043c:	e782      	b.n	8000344 <__udivmoddi4+0x6c>
 800043e:	4642      	mov	r2, r8
 8000440:	2320      	movs	r3, #32
 8000442:	0026      	movs	r6, r4
 8000444:	1a9b      	subs	r3, r3, r2
 8000446:	40de      	lsrs	r6, r3
 8000448:	002f      	movs	r7, r5
 800044a:	46b4      	mov	ip, r6
 800044c:	4097      	lsls	r7, r2
 800044e:	4666      	mov	r6, ip
 8000450:	003b      	movs	r3, r7
 8000452:	4333      	orrs	r3, r6
 8000454:	e7c9      	b.n	80003ea <__udivmoddi4+0x112>
 8000456:	46c0      	nop			; (mov r8, r8)

08000458 <__clzsi2>:
 8000458:	211c      	movs	r1, #28
 800045a:	2301      	movs	r3, #1
 800045c:	041b      	lsls	r3, r3, #16
 800045e:	4298      	cmp	r0, r3
 8000460:	d301      	bcc.n	8000466 <__clzsi2+0xe>
 8000462:	0c00      	lsrs	r0, r0, #16
 8000464:	3910      	subs	r1, #16
 8000466:	0a1b      	lsrs	r3, r3, #8
 8000468:	4298      	cmp	r0, r3
 800046a:	d301      	bcc.n	8000470 <__clzsi2+0x18>
 800046c:	0a00      	lsrs	r0, r0, #8
 800046e:	3908      	subs	r1, #8
 8000470:	091b      	lsrs	r3, r3, #4
 8000472:	4298      	cmp	r0, r3
 8000474:	d301      	bcc.n	800047a <__clzsi2+0x22>
 8000476:	0900      	lsrs	r0, r0, #4
 8000478:	3904      	subs	r1, #4
 800047a:	a202      	add	r2, pc, #8	; (adr r2, 8000484 <__clzsi2+0x2c>)
 800047c:	5c10      	ldrb	r0, [r2, r0]
 800047e:	1840      	adds	r0, r0, r1
 8000480:	4770      	bx	lr
 8000482:	46c0      	nop			; (mov r8, r8)
 8000484:	02020304 	.word	0x02020304
 8000488:	01010101 	.word	0x01010101
	...

08000494 <__clzdi2>:
 8000494:	b510      	push	{r4, lr}
 8000496:	2900      	cmp	r1, #0
 8000498:	d103      	bne.n	80004a2 <__clzdi2+0xe>
 800049a:	f7ff ffdd 	bl	8000458 <__clzsi2>
 800049e:	3020      	adds	r0, #32
 80004a0:	e002      	b.n	80004a8 <__clzdi2+0x14>
 80004a2:	1c08      	adds	r0, r1, #0
 80004a4:	f7ff ffd8 	bl	8000458 <__clzsi2>
 80004a8:	bd10      	pop	{r4, pc}
 80004aa:	46c0      	nop			; (mov r8, r8)

080004ac <_ZN4mbed8CallbackIFvvEE13function_callIPS1_EEvPKv>:
        _ops = &ops;
    }

    // Function attributes
    template <typename F>
    static R function_call(const void *p)
 80004ac:	b510      	push	{r4, lr}
    {
        return (*(F *)p)();
 80004ae:	6803      	ldr	r3, [r0, #0]
 80004b0:	4798      	blx	r3
    }
 80004b2:	bd10      	pop	{r4, pc}

080004b4 <_ZN4mbed8CallbackIFvvEE13function_moveIPS1_EEvPvPKv>:

    template <typename F>
    static void function_move(void *d, const void *p)
    {
        new (d) F(*(F *)p);
 80004b4:	2800      	cmp	r0, #0
 80004b6:	d001      	beq.n	80004bc <_ZN4mbed8CallbackIFvvEE13function_moveIPS1_EEvPvPKv+0x8>
 80004b8:	680b      	ldr	r3, [r1, #0]
 80004ba:	6003      	str	r3, [r0, #0]
    }
 80004bc:	4770      	bx	lr

080004be <_ZN4mbed8CallbackIFvvEE13function_dtorIPS1_EEvPv>:

    template <typename F>
    static void function_dtor(void *p)
    {
        ((F *)p)->~F();
    }
 80004be:	4770      	bx	lr

080004c0 <_Z10EnviaDatosv>:
 SenalS2N0=Senal[2][0];
 SenalS3N0=Senal[3][0];
}

void    EnviaDatos      (void)
{
 80004c0:	b5f8      	push	{r3, r4, r5, r6, r7, lr}
 for (int i=0;i<4;i++)// Recorre sectores
 80004c2:	2600      	movs	r6, #0
 80004c4:	e000      	b.n	80004c8 <_Z10EnviaDatosv+0x8>
 80004c6:	3601      	adds	r6, #1
 80004c8:	2e03      	cmp	r6, #3
 80004ca:	dc1f      	bgt.n	800050c <_Z10EnviaDatosv+0x4c>
 80004cc:	2500      	movs	r5, #0
 {
  for(int n=0;n<1;n++)//Recorres numeros
 80004ce:	2d00      	cmp	r5, #0
 80004d0:	dcf9      	bgt.n	80004c6 <_Z10EnviaDatosv+0x6>
  {
   pc.putc((char)0x30);    //Envia el id de la comunicacion de actializacion de señales
 80004d2:	4c0f      	ldr	r4, [pc, #60]	; (8000510 <_Z10EnviaDatosv+0x50>)
 80004d4:	34bc      	adds	r4, #188	; 0xbc
 80004d6:	2130      	movs	r1, #48	; 0x30
 80004d8:	0020      	movs	r0, r4
 80004da:	f001 fa1b 	bl	8001914 <_ZN4mbed6Stream4putcEi>
   pc.putc((char)i);     //Envia el sector de la Senal
 80004de:	27ff      	movs	r7, #255	; 0xff
 80004e0:	0039      	movs	r1, r7
 80004e2:	4031      	ands	r1, r6
 80004e4:	0020      	movs	r0, r4
 80004e6:	f001 fa15 	bl	8001914 <_ZN4mbed6Stream4putcEi>
   pc.putc((char)n);     //Envia el numero de la Senal
 80004ea:	0039      	movs	r1, r7
 80004ec:	4029      	ands	r1, r5
 80004ee:	0020      	movs	r0, r4
 80004f0:	f001 fa10 	bl	8001914 <_ZN4mbed6Stream4putcEi>
   pc.putc(Senal[i][n]); //Envia el estado de la Senal
 80004f4:	4b07      	ldr	r3, [pc, #28]	; (8000514 <_Z10EnviaDatosv+0x54>)
 80004f6:	199b      	adds	r3, r3, r6
 80004f8:	5d59      	ldrb	r1, [r3, r5]
 80004fa:	0020      	movs	r0, r4
 80004fc:	f001 fa0a 	bl	8001914 <_ZN4mbed6Stream4putcEi>
   //pc.putc(0x01);
   pc.putc((char)0xE0);    //Envia el valor 0xE0 para comprobar final de trama
 8000500:	21e0      	movs	r1, #224	; 0xe0
 8000502:	0020      	movs	r0, r4
 8000504:	f001 fa06 	bl	8001914 <_ZN4mbed6Stream4putcEi>
  for(int n=0;n<1;n++)//Recorres numeros
 8000508:	3501      	adds	r5, #1
 800050a:	e7e0      	b.n	80004ce <_Z10EnviaDatosv+0xe>
  }
 }
}
 800050c:	bdf8      	pop	{r3, r4, r5, r6, r7, pc}
 800050e:	46c0      	nop			; (mov r8, r8)
 8000510:	20000784 	.word	0x20000784
 8000514:	20000704 	.word	0x20000704

08000518 <_ZN4mbed6SerialD1Ev>:
 *     pc.printf("Hello World\n");
 * }
 * @endcode
 * @ingroup drivers
 */
class Serial : public SerialBase, public Stream, private NonCopyable<Serial> {
 8000518:	b510      	push	{r4, lr}
 800051a:	0004      	movs	r4, r0
 800051c:	4b08      	ldr	r3, [pc, #32]	; (8000540 <_ZN4mbed6SerialD1Ev+0x28>)
 800051e:	6003      	str	r3, [r0, #0]
 8000520:	0019      	movs	r1, r3
 8000522:	3120      	adds	r1, #32
 8000524:	22bc      	movs	r2, #188	; 0xbc
 8000526:	5081      	str	r1, [r0, r2]
 8000528:	3380      	adds	r3, #128	; 0x80
 800052a:	3204      	adds	r2, #4
 800052c:	5083      	str	r3, [r0, r2]
 800052e:	30bc      	adds	r0, #188	; 0xbc
 8000530:	f001 f9d8 	bl	80018e4 <_ZN4mbed6StreamD1Ev>
 8000534:	0020      	movs	r0, r4
 8000536:	f000 fbdf 	bl	8000cf8 <_ZN4mbed10SerialBaseD1Ev>
 800053a:	0020      	movs	r0, r4
 800053c:	bd10      	pop	{r4, pc}
 800053e:	46c0      	nop			; (mov r8, r8)
 8000540:	08005620 	.word	0x08005620

08000544 <_ZThn188_N4mbed6SerialD1Ev>:
 8000544:	b408      	push	{r3}
 8000546:	4b02      	ldr	r3, [pc, #8]	; (8000550 <_ZThn188_N4mbed6SerialD1Ev+0xc>)
 8000548:	469c      	mov	ip, r3
 800054a:	38bc      	subs	r0, #188	; 0xbc
 800054c:	bc08      	pop	{r3}
 800054e:	4760      	bx	ip
 8000550:	08000519 	.word	0x08000519

08000554 <_ZThn192_N4mbed6SerialD1Ev>:
 8000554:	b408      	push	{r3}
 8000556:	4b02      	ldr	r3, [pc, #8]	; (8000560 <_ZThn192_N4mbed6SerialD1Ev+0xc>)
 8000558:	469c      	mov	ip, r3
 800055a:	38c0      	subs	r0, #192	; 0xc0
 800055c:	bc08      	pop	{r3}
 800055e:	4760      	bx	ip
 8000560:	08000519 	.word	0x08000519

08000564 <_ZN4mbed6TickerD1Ev>:
    void attach_us(T *obj, M method, us_timestamp_t t)
    {
        attach_us(Callback<void()>(obj, method), t);
    }

    virtual ~Ticker()
 8000564:	b510      	push	{r4, lr}
 8000566:	0004      	movs	r4, r0
    {
 8000568:	4b07      	ldr	r3, [pc, #28]	; (8000588 <_ZN4mbed6TickerD1Ev+0x24>)
 800056a:	6003      	str	r3, [r0, #0]
        detach();
 800056c:	f000 fc2c 	bl	8000dc8 <_ZN4mbed6Ticker6detachEv>
    {
 8000570:	0020      	movs	r0, r4
 8000572:	3028      	adds	r0, #40	; 0x28
        if (_ops) {
 8000574:	6b63      	ldr	r3, [r4, #52]	; 0x34
 8000576:	2b00      	cmp	r3, #0
 8000578:	d001      	beq.n	800057e <_ZN4mbed6TickerD1Ev+0x1a>
            _ops->dtor(this);
 800057a:	689b      	ldr	r3, [r3, #8]
 800057c:	4798      	blx	r3
 800057e:	0020      	movs	r0, r4
 8000580:	f000 fca0 	bl	8000ec4 <_ZN4mbed10TimerEventD1Ev>
    }
 8000584:	0020      	movs	r0, r4
 8000586:	bd10      	pop	{r4, pc}
 8000588:	080056c8 	.word	0x080056c8

0800058c <_Z41__static_initialization_and_destruction_0ii>:
 800058c:	b530      	push	{r4, r5, lr}
 800058e:	b083      	sub	sp, #12
 8000590:	2801      	cmp	r0, #1
 8000592:	d001      	beq.n	8000598 <_Z41__static_initialization_and_destruction_0ii+0xc>
 8000594:	b003      	add	sp, #12
 8000596:	bd30      	pop	{r4, r5, pc}
 8000598:	4b28      	ldr	r3, [pc, #160]	; (800063c <_Z41__static_initialization_and_destruction_0ii+0xb0>)
 800059a:	4299      	cmp	r1, r3
 800059c:	d1fa      	bne.n	8000594 <_Z41__static_initialization_and_destruction_0ii+0x8>
    Ticker() : TimerEvent(), _function(0), _lock_deepsleep(true)
 800059e:	4c28      	ldr	r4, [pc, #160]	; (8000640 <_Z41__static_initialization_and_destruction_0ii+0xb4>)
 80005a0:	0020      	movs	r0, r4
 80005a2:	f000 fc65 	bl	8000e70 <_ZN4mbed10TimerEventC1Ev>
 80005a6:	4b27      	ldr	r3, [pc, #156]	; (8000644 <_Z41__static_initialization_and_destruction_0ii+0xb8>)
 80005a8:	6023      	str	r3, [r4, #0]
            memset(this, 0, sizeof(Callback));
 80005aa:	0020      	movs	r0, r4
 80005ac:	3028      	adds	r0, #40	; 0x28
 80005ae:	2210      	movs	r2, #16
 80005b0:	2100      	movs	r1, #0
 80005b2:	f004 fb8c 	bl	8004cce <memset>
 80005b6:	2201      	movs	r2, #1
 80005b8:	2338      	movs	r3, #56	; 0x38
 80005ba:	54e2      	strb	r2, [r4, r3]
Ticker timer1;
 80005bc:	4d22      	ldr	r5, [pc, #136]	; (8000648 <_Z41__static_initialization_and_destruction_0ii+0xbc>)
 80005be:	002a      	movs	r2, r5
 80005c0:	4922      	ldr	r1, [pc, #136]	; (800064c <_Z41__static_initialization_and_destruction_0ii+0xc0>)
 80005c2:	0020      	movs	r0, r4
 80005c4:	f001 fe60 	bl	8002288 <__aeabi_atexit>
Serial pc(SERIAL_TX, SERIAL_RX);
 80005c8:	4c21      	ldr	r4, [pc, #132]	; (8000650 <_Z41__static_initialization_and_destruction_0ii+0xc4>)
 80005ca:	2396      	movs	r3, #150	; 0x96
 80005cc:	019b      	lsls	r3, r3, #6
 80005ce:	9300      	str	r3, [sp, #0]
 80005d0:	2300      	movs	r3, #0
 80005d2:	2203      	movs	r2, #3
 80005d4:	2102      	movs	r1, #2
 80005d6:	0020      	movs	r0, r4
 80005d8:	f000 fa48 	bl	8000a6c <_ZN4mbed6SerialC1E7PinNameS1_PKci>
 80005dc:	002a      	movs	r2, r5
 80005de:	491d      	ldr	r1, [pc, #116]	; (8000654 <_Z41__static_initialization_and_destruction_0ii+0xc8>)
 80005e0:	0020      	movs	r0, r4
 80005e2:	f001 fe51 	bl	8002288 <__aeabi_atexit>
public:
    /** Create a DigitalOut connected to the specified pin
     *
     *  @param pin DigitalOut pin to connect to
     */
    DigitalOut(PinName pin) : gpio()
 80005e6:	4d1c      	ldr	r5, [pc, #112]	; (8000658 <_Z41__static_initialization_and_destruction_0ii+0xcc>)
 80005e8:	241c      	movs	r4, #28
 80005ea:	0022      	movs	r2, r4
 80005ec:	2100      	movs	r1, #0
 80005ee:	0028      	movs	r0, r5
 80005f0:	f004 fb6d 	bl	8004cce <memset>
    {
        // No lock needed in the constructor
        gpio_init_out(&gpio, pin);
 80005f4:	2114      	movs	r1, #20
 80005f6:	0028      	movs	r0, r5
 80005f8:	f000 fcc0 	bl	8000f7c <gpio_init_out>
    DigitalOut(PinName pin) : gpio()
 80005fc:	4d17      	ldr	r5, [pc, #92]	; (800065c <_Z41__static_initialization_and_destruction_0ii+0xd0>)
 80005fe:	0022      	movs	r2, r4
 8000600:	2100      	movs	r1, #0
 8000602:	0028      	movs	r0, r5
 8000604:	f004 fb63 	bl	8004cce <memset>
        gpio_init_out(&gpio, pin);
 8000608:	211a      	movs	r1, #26
 800060a:	0028      	movs	r0, r5
 800060c:	f000 fcb6 	bl	8000f7c <gpio_init_out>
    DigitalOut(PinName pin) : gpio()
 8000610:	4d13      	ldr	r5, [pc, #76]	; (8000660 <_Z41__static_initialization_and_destruction_0ii+0xd4>)
 8000612:	0022      	movs	r2, r4
 8000614:	2100      	movs	r1, #0
 8000616:	0028      	movs	r0, r5
 8000618:	f004 fb59 	bl	8004cce <memset>
        gpio_init_out(&gpio, pin);
 800061c:	2108      	movs	r1, #8
 800061e:	0028      	movs	r0, r5
 8000620:	f000 fcac 	bl	8000f7c <gpio_init_out>
    DigitalOut(PinName pin) : gpio()
 8000624:	4d0f      	ldr	r5, [pc, #60]	; (8000664 <_Z41__static_initialization_and_destruction_0ii+0xd8>)
 8000626:	0022      	movs	r2, r4
 8000628:	2100      	movs	r1, #0
 800062a:	0028      	movs	r0, r5
 800062c:	f004 fb4f 	bl	8004cce <memset>
        gpio_init_out(&gpio, pin);
 8000630:	2109      	movs	r1, #9
 8000632:	0028      	movs	r0, r5
 8000634:	f000 fca2 	bl	8000f7c <gpio_init_out>
}
 8000638:	e7ac      	b.n	8000594 <_Z41__static_initialization_and_destruction_0ii+0x8>
 800063a:	46c0      	nop			; (mov r8, r8)
 800063c:	0000ffff 	.word	0x0000ffff
 8000640:	20000860 	.word	0x20000860
 8000644:	080056c8 	.word	0x080056c8
 8000648:	200000c0 	.word	0x200000c0
 800064c:	08000565 	.word	0x08000565
 8000650:	20000784 	.word	0x20000784
 8000654:	08000519 	.word	0x08000519
 8000658:	20000708 	.word	0x20000708
 800065c:	20000724 	.word	0x20000724
 8000660:	20000740 	.word	0x20000740
 8000664:	2000075c 	.word	0x2000075c

08000668 <_ZN4mbed6TickerD0Ev>:
    virtual ~Ticker()
 8000668:	b510      	push	{r4, lr}
 800066a:	0004      	movs	r4, r0
    {
 800066c:	4b09      	ldr	r3, [pc, #36]	; (8000694 <_ZN4mbed6TickerD0Ev+0x2c>)
 800066e:	6003      	str	r3, [r0, #0]
        detach();
 8000670:	f000 fbaa 	bl	8000dc8 <_ZN4mbed6Ticker6detachEv>
    {
 8000674:	0020      	movs	r0, r4
 8000676:	3028      	adds	r0, #40	; 0x28
        if (_ops) {
 8000678:	6b63      	ldr	r3, [r4, #52]	; 0x34
 800067a:	2b00      	cmp	r3, #0
 800067c:	d001      	beq.n	8000682 <_ZN4mbed6TickerD0Ev+0x1a>
            _ops->dtor(this);
 800067e:	689b      	ldr	r3, [r3, #8]
 8000680:	4798      	blx	r3
 8000682:	0020      	movs	r0, r4
 8000684:	f000 fc1e 	bl	8000ec4 <_ZN4mbed10TimerEventD1Ev>
    }
 8000688:	0020      	movs	r0, r4
 800068a:	f001 fe4d 	bl	8002328 <_ZdlPv>
 800068e:	0020      	movs	r0, r4
 8000690:	bd10      	pop	{r4, pc}
 8000692:	46c0      	nop			; (mov r8, r8)
 8000694:	080056c8 	.word	0x080056c8

08000698 <_Z5Resetv>:
 for (int i=0;i<4;i++)   //Inicializa las señales Luminosas
 8000698:	2200      	movs	r2, #0
 800069a:	e000      	b.n	800069e <_Z5Resetv+0x6>
 800069c:	3201      	adds	r2, #1
 800069e:	2a03      	cmp	r2, #3
 80006a0:	dc08      	bgt.n	80006b4 <_Z5Resetv+0x1c>
 80006a2:	2300      	movs	r3, #0
  for(int n=0;n<1;n++)
 80006a4:	2b00      	cmp	r3, #0
 80006a6:	dcf9      	bgt.n	800069c <_Z5Resetv+0x4>
   Senal[i][n]=0;
 80006a8:	490a      	ldr	r1, [pc, #40]	; (80006d4 <_Z5Resetv+0x3c>)
 80006aa:	1889      	adds	r1, r1, r2
 80006ac:	2000      	movs	r0, #0
 80006ae:	54c8      	strb	r0, [r1, r3]
  for(int n=0;n<1;n++)
 80006b0:	3301      	adds	r3, #1
 80006b2:	e7f7      	b.n	80006a4 <_Z5Resetv+0xc>
 80006b4:	2200      	movs	r2, #0
 80006b6:	e000      	b.n	80006ba <_Z5Resetv+0x22>
 for (int i=0;i<4;i++)   //Inicializa las señales Luminosas
 80006b8:	3201      	adds	r2, #1
 80006ba:	2a03      	cmp	r2, #3
 80006bc:	dc08      	bgt.n	80006d0 <_Z5Resetv+0x38>
 80006be:	2300      	movs	r3, #0
  for(int n=0;n<1;n++)
 80006c0:	2b00      	cmp	r3, #0
 80006c2:	dcf9      	bgt.n	80006b8 <_Z5Resetv+0x20>
   ZonaAfectada[i][n]=0;
 80006c4:	4904      	ldr	r1, [pc, #16]	; (80006d8 <_Z5Resetv+0x40>)
 80006c6:	1889      	adds	r1, r1, r2
 80006c8:	2000      	movs	r0, #0
 80006ca:	54c8      	strb	r0, [r1, r3]
  for(int n=0;n<1;n++)
 80006cc:	3301      	adds	r3, #1
 80006ce:	e7f7      	b.n	80006c0 <_Z5Resetv+0x28>
}
 80006d0:	4770      	bx	lr
 80006d2:	46c0      	nop			; (mov r8, r8)
 80006d4:	20000704 	.word	0x20000704
 80006d8:	20000778 	.word	0x20000778

080006dc <main>:
{
 80006dc:	b500      	push	{lr}
 80006de:	b08f      	sub	sp, #60	; 0x3c
 Reset();       //Realizo un reset
 80006e0:	f7ff ffda 	bl	8000698 <_Z5Resetv>
        memset(this, 0, sizeof(Callback));
 80006e4:	2210      	movs	r2, #16
 80006e6:	2100      	movs	r1, #0
 80006e8:	a802      	add	r0, sp, #8
 80006ea:	f004 faf0 	bl	8004cce <memset>
        new (this) F(f);
 80006ee:	4b2b      	ldr	r3, [pc, #172]	; (800079c <main+0xc0>)
 80006f0:	9302      	str	r3, [sp, #8]
        _ops = &ops;
 80006f2:	4b2b      	ldr	r3, [pc, #172]	; (80007a0 <main+0xc4>)
 80006f4:	9305      	str	r3, [sp, #20]
        if (func._ops) {
 80006f6:	2b00      	cmp	r3, #0
 80006f8:	d003      	beq.n	8000702 <main+0x26>
            func._ops->move(this, &func);
 80006fa:	685b      	ldr	r3, [r3, #4]
 80006fc:	a902      	add	r1, sp, #8
 80006fe:	a80a      	add	r0, sp, #40	; 0x28
 8000700:	4798      	blx	r3
        _ops = func._ops;
 8000702:	9b05      	ldr	r3, [sp, #20]
 8000704:	930d      	str	r3, [sp, #52]	; 0x34
        core_util_critical_section_enter();
 8000706:	f001 f967 	bl	80019d8 <core_util_critical_section_enter>
        return _ops;
 800070a:	4b26      	ldr	r3, [pc, #152]	; (80007a4 <main+0xc8>)
 800070c:	6b5b      	ldr	r3, [r3, #52]	; 0x34
        if (!_function && _lock_deepsleep) {
 800070e:	2b00      	cmp	r3, #0
 8000710:	d03d      	beq.n	800078e <main+0xb2>
 8000712:	2300      	movs	r3, #0
 8000714:	2b00      	cmp	r3, #0
 8000716:	d13e      	bne.n	8000796 <main+0xba>
        if (_ops) {
 8000718:	4b22      	ldr	r3, [pc, #136]	; (80007a4 <main+0xc8>)
 800071a:	6b5b      	ldr	r3, [r3, #52]	; 0x34
 800071c:	2b00      	cmp	r3, #0
 800071e:	d003      	beq.n	8000728 <main+0x4c>
            _ops->dtor(this);
 8000720:	689b      	ldr	r3, [r3, #8]
 8000722:	4820      	ldr	r0, [pc, #128]	; (80007a4 <main+0xc8>)
 8000724:	3028      	adds	r0, #40	; 0x28
 8000726:	4798      	blx	r3
        if (func._ops) {
 8000728:	9b0d      	ldr	r3, [sp, #52]	; 0x34
 800072a:	2b00      	cmp	r3, #0
 800072c:	d004      	beq.n	8000738 <main+0x5c>
            func._ops->move(this, &func);
 800072e:	685b      	ldr	r3, [r3, #4]
 8000730:	a90a      	add	r1, sp, #40	; 0x28
 8000732:	481c      	ldr	r0, [pc, #112]	; (80007a4 <main+0xc8>)
 8000734:	3028      	adds	r0, #40	; 0x28
 8000736:	4798      	blx	r3
        _ops = func._ops;
 8000738:	9b0d      	ldr	r3, [sp, #52]	; 0x34
 800073a:	9301      	str	r3, [sp, #4]
 800073c:	4819      	ldr	r0, [pc, #100]	; (80007a4 <main+0xc8>)
 800073e:	6343      	str	r3, [r0, #52]	; 0x34
        setup(t);
 8000740:	4a19      	ldr	r2, [pc, #100]	; (80007a8 <main+0xcc>)
 8000742:	2300      	movs	r3, #0
 8000744:	f000 fb76 	bl	8000e34 <_ZN4mbed6Ticker5setupEy>
        core_util_critical_section_exit();
 8000748:	f001 f950 	bl	80019ec <core_util_critical_section_exit>
        if (_ops) {
 800074c:	9b0d      	ldr	r3, [sp, #52]	; 0x34
 800074e:	2b00      	cmp	r3, #0
 8000750:	d002      	beq.n	8000758 <main+0x7c>
            _ops->dtor(this);
 8000752:	689b      	ldr	r3, [r3, #8]
 8000754:	a80a      	add	r0, sp, #40	; 0x28
 8000756:	4798      	blx	r3
        if (_ops) {
 8000758:	9b05      	ldr	r3, [sp, #20]
 800075a:	2b00      	cmp	r3, #0
 800075c:	d002      	beq.n	8000764 <main+0x88>
            _ops->dtor(this);
 800075e:	689b      	ldr	r3, [r3, #8]
 8000760:	a802      	add	r0, sp, #8
 8000762:	4798      	blx	r3
        memset(this, 0, sizeof(Callback));
 8000764:	2210      	movs	r2, #16
 8000766:	2100      	movs	r1, #0
 8000768:	a806      	add	r0, sp, #24
 800076a:	f004 fab0 	bl	8004cce <memset>
        new (this) F(f);
 800076e:	4b0f      	ldr	r3, [pc, #60]	; (80007ac <main+0xd0>)
 8000770:	9306      	str	r3, [sp, #24]
        _ops = &ops;
 8000772:	4b0b      	ldr	r3, [pc, #44]	; (80007a0 <main+0xc4>)
 8000774:	9309      	str	r3, [sp, #36]	; 0x24
    pc.attach(&myirq, Serial::RxIrq);   //Activa Interrupcion por comunicacion serie RxIrq
 8000776:	2200      	movs	r2, #0
 8000778:	a906      	add	r1, sp, #24
 800077a:	480d      	ldr	r0, [pc, #52]	; (80007b0 <main+0xd4>)
 800077c:	f000 fa52 	bl	8000c24 <_ZN4mbed10SerialBase6attachENS_8CallbackIFvvEEENS0_7IrqTypeE>
        if (_ops) {
 8000780:	9b09      	ldr	r3, [sp, #36]	; 0x24
 8000782:	2b00      	cmp	r3, #0
 8000784:	d002      	beq.n	800078c <main+0xb0>
            _ops->dtor(this);
 8000786:	689b      	ldr	r3, [r3, #8]
 8000788:	a806      	add	r0, sp, #24
 800078a:	4798      	blx	r3
 800078c:	e7fe      	b.n	800078c <main+0xb0>
        if (!_function && _lock_deepsleep) {
 800078e:	3338      	adds	r3, #56	; 0x38
 8000790:	4a04      	ldr	r2, [pc, #16]	; (80007a4 <main+0xc8>)
 8000792:	5cd3      	ldrb	r3, [r2, r3]
 8000794:	e7be      	b.n	8000714 <main+0x38>
            sleep_manager_lock_deep_sleep();
 8000796:	f000 fc57 	bl	8001048 <sleep_manager_lock_deep_sleep_internal>
 800079a:	e7bd      	b.n	8000718 <main+0x3c>
 800079c:	080004c1 	.word	0x080004c1
 80007a0:	0800560c 	.word	0x0800560c
 80007a4:	20000860 	.word	0x20000860
 80007a8:	0003d090 	.word	0x0003d090
 80007ac:	0800086d 	.word	0x0800086d
 80007b0:	20000784 	.word	0x20000784

080007b4 <_Z13RedirigeSenalcc>:
 switch(Sector)    //Cambia las señales dependiendo de la incidencia de la señal
 80007b4:	2801      	cmp	r0, #1
 80007b6:	d00a      	beq.n	80007ce <_Z13RedirigeSenalcc+0x1a>
 80007b8:	2800      	cmp	r0, #0
 80007ba:	d004      	beq.n	80007c6 <_Z13RedirigeSenalcc+0x12>
 80007bc:	2802      	cmp	r0, #2
 80007be:	d00a      	beq.n	80007d6 <_Z13RedirigeSenalcc+0x22>
 80007c0:	2803      	cmp	r0, #3
 80007c2:	d00c      	beq.n	80007de <_Z13RedirigeSenalcc+0x2a>
}
 80007c4:	4770      	bx	lr
  Senal[0][0]=true;
 80007c6:	2201      	movs	r2, #1
 80007c8:	4b07      	ldr	r3, [pc, #28]	; (80007e8 <_Z13RedirigeSenalcc+0x34>)
 80007ca:	701a      	strb	r2, [r3, #0]
  break;
 80007cc:	e7fa      	b.n	80007c4 <_Z13RedirigeSenalcc+0x10>
  Senal[1][0]=true;
 80007ce:	2201      	movs	r2, #1
 80007d0:	4b05      	ldr	r3, [pc, #20]	; (80007e8 <_Z13RedirigeSenalcc+0x34>)
 80007d2:	705a      	strb	r2, [r3, #1]
  break;
 80007d4:	e7f6      	b.n	80007c4 <_Z13RedirigeSenalcc+0x10>
  Senal[2][0]=true;
 80007d6:	2201      	movs	r2, #1
 80007d8:	4b03      	ldr	r3, [pc, #12]	; (80007e8 <_Z13RedirigeSenalcc+0x34>)
 80007da:	709a      	strb	r2, [r3, #2]
  break;
 80007dc:	e7f2      	b.n	80007c4 <_Z13RedirigeSenalcc+0x10>
  Senal[3][0]=true;
 80007de:	2201      	movs	r2, #1
 80007e0:	4b01      	ldr	r3, [pc, #4]	; (80007e8 <_Z13RedirigeSenalcc+0x34>)
 80007e2:	70da      	strb	r2, [r3, #3]
}
 80007e4:	e7ee      	b.n	80007c4 <_Z13RedirigeSenalcc+0x10>
 80007e6:	46c0      	nop			; (mov r8, r8)
 80007e8:	20000704 	.word	0x20000704

080007ec <_Z14ActualizaSenalv>:
 SenalS0N0=Senal[0][0];
 80007ec:	4b1a      	ldr	r3, [pc, #104]	; (8000858 <_Z14ActualizaSenalv+0x6c>)
 80007ee:	781b      	ldrb	r3, [r3, #0]
    uint32_t ll_pin;
} gpio_t;

static inline void gpio_write(gpio_t *obj, int value)
{
    if (value) {
 80007f0:	2b00      	cmp	r3, #0
 80007f2:	d01c      	beq.n	800082e <_Z14ActualizaSenalv+0x42>
        *obj->reg_set = obj->mask;
 80007f4:	4b19      	ldr	r3, [pc, #100]	; (800085c <_Z14ActualizaSenalv+0x70>)
 80007f6:	689a      	ldr	r2, [r3, #8]
 80007f8:	681b      	ldr	r3, [r3, #0]
 80007fa:	6013      	str	r3, [r2, #0]
 SenalS1N0=Senal[1][0];
 80007fc:	4b16      	ldr	r3, [pc, #88]	; (8000858 <_Z14ActualizaSenalv+0x6c>)
 80007fe:	785b      	ldrb	r3, [r3, #1]
    if (value) {
 8000800:	2b00      	cmp	r3, #0
 8000802:	d019      	beq.n	8000838 <_Z14ActualizaSenalv+0x4c>
        *obj->reg_set = obj->mask;
 8000804:	4b16      	ldr	r3, [pc, #88]	; (8000860 <_Z14ActualizaSenalv+0x74>)
 8000806:	689a      	ldr	r2, [r3, #8]
 8000808:	681b      	ldr	r3, [r3, #0]
 800080a:	6013      	str	r3, [r2, #0]
 SenalS2N0=Senal[2][0];
 800080c:	4b12      	ldr	r3, [pc, #72]	; (8000858 <_Z14ActualizaSenalv+0x6c>)
 800080e:	789b      	ldrb	r3, [r3, #2]
    if (value) {
 8000810:	2b00      	cmp	r3, #0
 8000812:	d016      	beq.n	8000842 <_Z14ActualizaSenalv+0x56>
        *obj->reg_set = obj->mask;
 8000814:	4b13      	ldr	r3, [pc, #76]	; (8000864 <_Z14ActualizaSenalv+0x78>)
 8000816:	689a      	ldr	r2, [r3, #8]
 8000818:	681b      	ldr	r3, [r3, #0]
 800081a:	6013      	str	r3, [r2, #0]
 SenalS3N0=Senal[3][0];
 800081c:	4b0e      	ldr	r3, [pc, #56]	; (8000858 <_Z14ActualizaSenalv+0x6c>)
 800081e:	78db      	ldrb	r3, [r3, #3]
    if (value) {
 8000820:	2b00      	cmp	r3, #0
 8000822:	d113      	bne.n	800084c <_Z14ActualizaSenalv+0x60>
    } else {
#ifdef GPIO_IP_WITHOUT_BRR
        *obj->reg_clr = obj->mask << 16;
#else
        *obj->reg_clr = obj->mask;
 8000824:	4b10      	ldr	r3, [pc, #64]	; (8000868 <_Z14ActualizaSenalv+0x7c>)
 8000826:	68da      	ldr	r2, [r3, #12]
 8000828:	681b      	ldr	r3, [r3, #0]
 800082a:	6013      	str	r3, [r2, #0]
}
 800082c:	4770      	bx	lr
 800082e:	4b0b      	ldr	r3, [pc, #44]	; (800085c <_Z14ActualizaSenalv+0x70>)
 8000830:	68da      	ldr	r2, [r3, #12]
 8000832:	681b      	ldr	r3, [r3, #0]
 8000834:	6013      	str	r3, [r2, #0]
 8000836:	e7e1      	b.n	80007fc <_Z14ActualizaSenalv+0x10>
 8000838:	4b09      	ldr	r3, [pc, #36]	; (8000860 <_Z14ActualizaSenalv+0x74>)
 800083a:	68da      	ldr	r2, [r3, #12]
 800083c:	681b      	ldr	r3, [r3, #0]
 800083e:	6013      	str	r3, [r2, #0]
 8000840:	e7e4      	b.n	800080c <_Z14ActualizaSenalv+0x20>
 8000842:	4b08      	ldr	r3, [pc, #32]	; (8000864 <_Z14ActualizaSenalv+0x78>)
 8000844:	68da      	ldr	r2, [r3, #12]
 8000846:	681b      	ldr	r3, [r3, #0]
 8000848:	6013      	str	r3, [r2, #0]
 800084a:	e7e7      	b.n	800081c <_Z14ActualizaSenalv+0x30>
        *obj->reg_set = obj->mask;
 800084c:	4b06      	ldr	r3, [pc, #24]	; (8000868 <_Z14ActualizaSenalv+0x7c>)
 800084e:	689a      	ldr	r2, [r3, #8]
 8000850:	681b      	ldr	r3, [r3, #0]
 8000852:	6013      	str	r3, [r2, #0]
 8000854:	e7ea      	b.n	800082c <_Z14ActualizaSenalv+0x40>
 8000856:	46c0      	nop			; (mov r8, r8)
 8000858:	20000704 	.word	0x20000704
 800085c:	20000708 	.word	0x20000708
 8000860:	20000724 	.word	0x20000724
 8000864:	20000740 	.word	0x20000740
 8000868:	2000075c 	.word	0x2000075c

0800086c <_Z5myirqv>:
{
 800086c:	b510      	push	{r4, lr}
     * the calls from the SerialBase instead for backwards compatibility. This problem is
     * part of why Stream and Serial should be deprecated.
     */
    bool readable()
    {
        return SerialBase::readable();
 800086e:	481b      	ldr	r0, [pc, #108]	; (80008dc <_Z5myirqv+0x70>)
 8000870:	f000 f9c8 	bl	8000c04 <_ZN4mbed10SerialBase8readableEv>
    if(pc.readable())   //Interrupcion creada por dato de recepcion?
 8000874:	2800      	cmp	r0, #0
 8000876:	d100      	bne.n	800087a <_Z5myirqv+0xe>
}
 8000878:	bd10      	pop	{r4, pc}
        c[0]=c[1];
 800087a:	4c19      	ldr	r4, [pc, #100]	; (80008e0 <_Z5myirqv+0x74>)
 800087c:	7863      	ldrb	r3, [r4, #1]
 800087e:	7023      	strb	r3, [r4, #0]
        c[1]=c[2];
 8000880:	78a3      	ldrb	r3, [r4, #2]
 8000882:	7063      	strb	r3, [r4, #1]
        c[2]=c[3];
 8000884:	78e3      	ldrb	r3, [r4, #3]
 8000886:	70a3      	strb	r3, [r4, #2]
        c[3]=c[4];
 8000888:	7923      	ldrb	r3, [r4, #4]
 800088a:	70e3      	strb	r3, [r4, #3]
        c[4]=pc.getc();   //Actualizo los datos series de entrada
 800088c:	4813      	ldr	r0, [pc, #76]	; (80008dc <_Z5myirqv+0x70>)
 800088e:	30bc      	adds	r0, #188	; 0xbc
 8000890:	f001 f854 	bl	800193c <_ZN4mbed6Stream4getcEv>
 8000894:	b2c0      	uxtb	r0, r0
 8000896:	7120      	strb	r0, [r4, #4]
        if(c[4]== 0xE0)
 8000898:	28e0      	cmp	r0, #224	; 0xe0
 800089a:	d1ed      	bne.n	8000878 <_Z5myirqv+0xc>
            switch(c[0])
 800089c:	4b10      	ldr	r3, [pc, #64]	; (80008e0 <_Z5myirqv+0x74>)
 800089e:	781b      	ldrb	r3, [r3, #0]
 80008a0:	2b10      	cmp	r3, #16
 80008a2:	d00d      	beq.n	80008c0 <_Z5myirqv+0x54>
 80008a4:	2b20      	cmp	r3, #32
 80008a6:	d1e7      	bne.n	8000878 <_Z5myirqv+0xc>
             Senal[(int)c[1]][(int)c[2]]= (bool) c[3];//1^Senal[(int)c[1]][(int)c[2]]; //Actualiza el buffer de la senal
 80008a8:	4a0d      	ldr	r2, [pc, #52]	; (80008e0 <_Z5myirqv+0x74>)
 80008aa:	7850      	ldrb	r0, [r2, #1]
 80008ac:	7891      	ldrb	r1, [r2, #2]
 80008ae:	78d2      	ldrb	r2, [r2, #3]
 80008b0:	1e53      	subs	r3, r2, #1
 80008b2:	419a      	sbcs	r2, r3
 80008b4:	4b0b      	ldr	r3, [pc, #44]	; (80008e4 <_Z5myirqv+0x78>)
 80008b6:	181b      	adds	r3, r3, r0
 80008b8:	545a      	strb	r2, [r3, r1]
             ActualizaSenal();           //Modifica el estado de la senal
 80008ba:	f7ff ff97 	bl	80007ec <_Z14ActualizaSenalv>
             break;
 80008be:	e7db      	b.n	8000878 <_Z5myirqv+0xc>
             ZonaAfectada[(int)c[1]][(int)c[2]]=(bool) c[3];                                                                                                                //1^ZonaAfectada[(int)c[1]][(int)c[2]]; //Modifica el estado de la señal
 80008c0:	4b07      	ldr	r3, [pc, #28]	; (80008e0 <_Z5myirqv+0x74>)
 80008c2:	7858      	ldrb	r0, [r3, #1]
 80008c4:	7899      	ldrb	r1, [r3, #2]
 80008c6:	78da      	ldrb	r2, [r3, #3]
 80008c8:	1e53      	subs	r3, r2, #1
 80008ca:	419a      	sbcs	r2, r3
 80008cc:	4b06      	ldr	r3, [pc, #24]	; (80008e8 <_Z5myirqv+0x7c>)
 80008ce:	181b      	adds	r3, r3, r0
 80008d0:	545a      	strb	r2, [r3, r1]
             RedirigeSenal(c[1],c[2]);
 80008d2:	f7ff ff6f 	bl	80007b4 <_Z13RedirigeSenalcc>
             ActualizaSenal();
 80008d6:	f7ff ff89 	bl	80007ec <_Z14ActualizaSenalv>
}
 80008da:	e7cd      	b.n	8000878 <_Z5myirqv+0xc>
 80008dc:	20000784 	.word	0x20000784
 80008e0:	2000077c 	.word	0x2000077c
 80008e4:	20000704 	.word	0x20000704
 80008e8:	20000778 	.word	0x20000778

080008ec <_ZN4mbed6SerialD0Ev>:
class Serial : public SerialBase, public Stream, private NonCopyable<Serial> {
 80008ec:	b510      	push	{r4, lr}
 80008ee:	0004      	movs	r4, r0
 80008f0:	4b09      	ldr	r3, [pc, #36]	; (8000918 <_ZN4mbed6SerialD0Ev+0x2c>)
 80008f2:	6003      	str	r3, [r0, #0]
 80008f4:	0019      	movs	r1, r3
 80008f6:	3120      	adds	r1, #32
 80008f8:	22bc      	movs	r2, #188	; 0xbc
 80008fa:	5081      	str	r1, [r0, r2]
 80008fc:	3380      	adds	r3, #128	; 0x80
 80008fe:	3204      	adds	r2, #4
 8000900:	5083      	str	r3, [r0, r2]
 8000902:	30bc      	adds	r0, #188	; 0xbc
 8000904:	f000 ffee 	bl	80018e4 <_ZN4mbed6StreamD1Ev>
 8000908:	0020      	movs	r0, r4
 800090a:	f000 f9f5 	bl	8000cf8 <_ZN4mbed10SerialBaseD1Ev>
 800090e:	0020      	movs	r0, r4
 8000910:	f001 fd0a 	bl	8002328 <_ZdlPv>
 8000914:	0020      	movs	r0, r4
 8000916:	bd10      	pop	{r4, pc}
 8000918:	08005620 	.word	0x08005620

0800091c <_ZThn188_N4mbed6SerialD0Ev>:
 800091c:	b408      	push	{r3}
 800091e:	4b02      	ldr	r3, [pc, #8]	; (8000928 <_ZThn188_N4mbed6SerialD0Ev+0xc>)
 8000920:	469c      	mov	ip, r3
 8000922:	38bc      	subs	r0, #188	; 0xbc
 8000924:	bc08      	pop	{r3}
 8000926:	4760      	bx	ip
 8000928:	080008ed 	.word	0x080008ed

0800092c <_ZThn192_N4mbed6SerialD0Ev>:
 800092c:	b408      	push	{r3}
 800092e:	4b02      	ldr	r3, [pc, #8]	; (8000938 <_ZThn192_N4mbed6SerialD0Ev+0xc>)
 8000930:	469c      	mov	ip, r3
 8000932:	38c0      	subs	r0, #192	; 0xc0
 8000934:	bc08      	pop	{r3}
 8000936:	4760      	bx	ip
 8000938:	080008ed 	.word	0x080008ed

0800093c <_GLOBAL__sub_I_timer1>:
}
 800093c:	b510      	push	{r4, lr}
 800093e:	4902      	ldr	r1, [pc, #8]	; (8000948 <_GLOBAL__sub_I_timer1+0xc>)
 8000940:	2001      	movs	r0, #1
 8000942:	f7ff fe23 	bl	800058c <_Z41__static_initialization_and_destruction_0ii>
 8000946:	bd10      	pop	{r4, pc}
 8000948:	0000ffff 	.word	0x0000ffff

0800094c <_ZN4mbed14CircularBufferINS_11TransactionINS_3SPIEEELm2EmED1Ev>:
            (BufferSize < (((uint64_t) 1) << (sizeof(CounterType) * 8))),
            "Invalid BufferSize for the CounterType"
        );
    }

    ~CircularBuffer()
 800094c:	b570      	push	{r4, r5, r6, lr}
 800094e:	0005      	movs	r5, r0
    {
    }
 8000950:	1e06      	subs	r6, r0, #0
 8000952:	d00c      	beq.n	800096e <_ZN4mbed14CircularBufferINS_11TransactionINS_3SPIEEELm2EmED1Ev+0x22>
 8000954:	0004      	movs	r4, r0
 8000956:	3458      	adds	r4, #88	; 0x58
 8000958:	42b4      	cmp	r4, r6
 800095a:	d008      	beq.n	800096e <_ZN4mbed14CircularBufferINS_11TransactionINS_3SPIEEELm2EmED1Ev+0x22>
 800095c:	3c2c      	subs	r4, #44	; 0x2c
    void *rx_buffer;           /**< Rx buffer */
    size_t rx_length;          /**< Length of Rx buffer */
    uint32_t event;            /**< Event for a transaction */
    event_callback_t callback; /**< User's callback */
    uint8_t width;             /**< Buffer's word width (8, 16, 32, 64) */
} transaction_t;
 800095e:	0020      	movs	r0, r4
 8000960:	3018      	adds	r0, #24

    /** Destroy a callback
     */
    ~Callback()
    {
        if (_ops) {
 8000962:	6a63      	ldr	r3, [r4, #36]	; 0x24
 8000964:	2b00      	cmp	r3, #0
 8000966:	d0f7      	beq.n	8000958 <_ZN4mbed14CircularBufferINS_11TransactionINS_3SPIEEELm2EmED1Ev+0xc>
            _ops->dtor(this);
 8000968:	689b      	ldr	r3, [r3, #8]
 800096a:	4798      	blx	r3
 800096c:	e7f4      	b.n	8000958 <_ZN4mbed14CircularBufferINS_11TransactionINS_3SPIEEELm2EmED1Ev+0xc>
 800096e:	0028      	movs	r0, r5
 8000970:	bd70      	pop	{r4, r5, r6, pc}
	...

08000974 <_Z41__static_initialization_and_destruction_0ii>:
#endif
}

#endif

} // namespace mbed
 8000974:	b570      	push	{r4, r5, r6, lr}
 8000976:	0004      	movs	r4, r0
 8000978:	2801      	cmp	r0, #1
 800097a:	d000      	beq.n	800097e <_Z41__static_initialization_and_destruction_0ii+0xa>
 800097c:	bd70      	pop	{r4, r5, r6, pc}
 800097e:	4b10      	ldr	r3, [pc, #64]	; (80009c0 <_Z41__static_initialization_and_destruction_0ii+0x4c>)
 8000980:	4299      	cmp	r1, r3
 8000982:	d1fb      	bne.n	800097c <_Z41__static_initialization_and_destruction_0ii+0x8>
    CircularBuffer() : _head(0), _tail(0), _full(false)
 8000984:	4d0f      	ldr	r5, [pc, #60]	; (80009c4 <_Z41__static_initialization_and_destruction_0ii+0x50>)
 8000986:	2c00      	cmp	r4, #0
 8000988:	db0f      	blt.n	80009aa <_Z41__static_initialization_and_destruction_0ii+0x36>
public:
    Transaction(Class *tpointer, const transaction_t &transaction) : _obj(tpointer), _data(transaction)
    {
    }

    Transaction() : _obj(), _data()
 800098a:	2600      	movs	r6, #0
 800098c:	0028      	movs	r0, r5
 800098e:	c040      	stmia	r0!, {r6}
 8000990:	2228      	movs	r2, #40	; 0x28
 8000992:	0031      	movs	r1, r6
 8000994:	f004 f99b 	bl	8004cce <memset>
} transaction_t;
 8000998:	0028      	movs	r0, r5
 800099a:	3018      	adds	r0, #24
            memset(this, 0, sizeof(Callback));
 800099c:	2210      	movs	r2, #16
 800099e:	0031      	movs	r1, r6
 80009a0:	f004 f995 	bl	8004cce <memset>
 80009a4:	352c      	adds	r5, #44	; 0x2c
 80009a6:	3c01      	subs	r4, #1
 80009a8:	e7ed      	b.n	8000986 <_Z41__static_initialization_and_destruction_0ii+0x12>
 80009aa:	4806      	ldr	r0, [pc, #24]	; (80009c4 <_Z41__static_initialization_and_destruction_0ii+0x50>)
 80009ac:	2300      	movs	r3, #0
 80009ae:	6583      	str	r3, [r0, #88]	; 0x58
 80009b0:	65c3      	str	r3, [r0, #92]	; 0x5c
 80009b2:	2260      	movs	r2, #96	; 0x60
 80009b4:	5483      	strb	r3, [r0, r2]
CircularBuffer<Transaction<SPI>, TRANSACTION_QUEUE_SIZE_SPI> SPI::_transaction_buffer;
 80009b6:	4a04      	ldr	r2, [pc, #16]	; (80009c8 <_Z41__static_initialization_and_destruction_0ii+0x54>)
 80009b8:	4904      	ldr	r1, [pc, #16]	; (80009cc <_Z41__static_initialization_and_destruction_0ii+0x58>)
 80009ba:	f001 fc65 	bl	8002288 <__aeabi_atexit>
} // namespace mbed
 80009be:	e7dd      	b.n	800097c <_Z41__static_initialization_and_destruction_0ii+0x8>
 80009c0:	0000ffff 	.word	0x0000ffff
 80009c4:	200008a0 	.word	0x200008a0
 80009c8:	200000c0 	.word	0x200000c0
 80009cc:	0800094d 	.word	0x0800094d

080009d0 <_GLOBAL__sub_I__ZN4mbed3SPI19_transaction_bufferE>:
 80009d0:	b510      	push	{r4, lr}
 80009d2:	4902      	ldr	r1, [pc, #8]	; (80009dc <_GLOBAL__sub_I__ZN4mbed3SPI19_transaction_bufferE+0xc>)
 80009d4:	2001      	movs	r0, #1
 80009d6:	f7ff ffcd 	bl	8000974 <_Z41__static_initialization_and_destruction_0ii>
 80009da:	bd10      	pop	{r4, pc}
 80009dc:	0000ffff 	.word	0x0000ffff

080009e0 <_ZN4mbed10FileHandle5lseekEli>:
     *    -1 on failure or unsupported
     *  @deprecated Replaced by `off_t FileHandle::seek(off_t offset, int whence = SEEK_SET)'
     *
     */
    MBED_DEPRECATED_SINCE("mbed-os-5.4", "Replaced by FileHandle::seek")
    virtual off_t lseek(off_t offset, int whence)
 80009e0:	b510      	push	{r4, lr}
    {
        return seek(offset, whence);
 80009e2:	6803      	ldr	r3, [r0, #0]
 80009e4:	691b      	ldr	r3, [r3, #16]
 80009e6:	4798      	blx	r3
    }
 80009e8:	bd10      	pop	{r4, pc}

080009ea <_ZN4mbed10FileHandle5fsyncEv>:
     *    0 on success or un-needed,
     *   -1 on error
     *  @deprecated Replaced by `int FileHandle::sync()'
     */
    MBED_DEPRECATED_SINCE("mbed-os-5.4", "Replaced by FileHandle::sync")
    virtual int fsync()
 80009ea:	b510      	push	{r4, lr}
    {
        return sync();
 80009ec:	6803      	ldr	r3, [r0, #0]
 80009ee:	699b      	ldr	r3, [r3, #24]
 80009f0:	4798      	blx	r3
    }
 80009f2:	bd10      	pop	{r4, pc}

080009f4 <_ZN4mbed10FileHandle4flenEv>:
     *  @returns
     *   Length of the file
     *  @deprecated Replaced by `off_t FileHandle::size()'
     */
    MBED_DEPRECATED_SINCE("mbed-os-5.4", "Replaced by FileHandle::size")
    virtual off_t flen()
 80009f4:	b510      	push	{r4, lr}
    {
        return size();
 80009f6:	6803      	ldr	r3, [r0, #0]
 80009f8:	6a9b      	ldr	r3, [r3, #40]	; 0x28
 80009fa:	4798      	blx	r3
    }
 80009fc:	bd10      	pop	{r4, pc}

080009fe <_ZN4mbed10FileHandle12set_blockingEb>:
     *  @return             0 on success
     *  @return             Negative error code on failure
     */
    virtual int set_blocking(bool blocking)
    {
        return blocking ? 0 : -ENOTTY;
 80009fe:	2900      	cmp	r1, #0
 8000a00:	d001      	beq.n	8000a06 <_ZN4mbed10FileHandle12set_blockingEb+0x8>
 8000a02:	2000      	movs	r0, #0
    }
 8000a04:	4770      	bx	lr
        return blocking ? 0 : -ENOTTY;
 8000a06:	2019      	movs	r0, #25
 8000a08:	4240      	negs	r0, r0
 8000a0a:	e7fb      	b.n	8000a04 <_ZN4mbed10FileHandle12set_blockingEb+0x6>

08000a0c <_ZNK4mbed10FileHandle11is_blockingEv>:
     *  @return             true for blocking mode, false for non-blocking mode.
     */
    virtual bool is_blocking() const
    {
        return true;
    }
 8000a0c:	2001      	movs	r0, #1
 8000a0e:	4770      	bx	lr

08000a10 <_ZNK4mbed10FileHandle4pollEs>:
     */
    virtual short poll(short events) const
    {
        // Possible default for real files
        return POLLIN | POLLOUT;
    }
 8000a10:	2011      	movs	r0, #17
 8000a12:	4770      	bx	lr

08000a14 <_ZN4mbed10FileHandle5sigioENS_8CallbackIFvvEEE>:
     *  @param func     Function to call on state change
     */
    virtual void sigio(Callback<void()> func)
    {
        //Default for real files. Do nothing for real files.
    }
 8000a14:	4770      	bx	lr

08000a16 <_ZN4mbed6Serial4lockEv>:
}

void Serial::lock()
{
    _mutex.lock();
}
 8000a16:	4770      	bx	lr

08000a18 <_ZThn188_N4mbed6Serial4lockEv>:
    }

protected:
    virtual int _getc();
    virtual int _putc(int c);
    virtual void lock();
 8000a18:	b408      	push	{r3}
 8000a1a:	4b02      	ldr	r3, [pc, #8]	; (8000a24 <_ZThn188_N4mbed6Serial4lockEv+0xc>)
 8000a1c:	469c      	mov	ip, r3
 8000a1e:	38bc      	subs	r0, #188	; 0xbc
 8000a20:	bc08      	pop	{r3}
 8000a22:	4760      	bx	ip
 8000a24:	08000a17 	.word	0x08000a17

08000a28 <_ZN4mbed6Serial6unlockEv>:

void Serial::unlock()
{
    _mutex.unlock();
}
 8000a28:	4770      	bx	lr
	...

08000a2c <_ZThn188_N4mbed6Serial6unlockEv>:
    virtual void unlock();
 8000a2c:	b408      	push	{r3}
 8000a2e:	4b02      	ldr	r3, [pc, #8]	; (8000a38 <_ZThn188_N4mbed6Serial6unlockEv+0xc>)
 8000a30:	469c      	mov	ip, r3
 8000a32:	38bc      	subs	r0, #188	; 0xbc
 8000a34:	bc08      	pop	{r3}
 8000a36:	4760      	bx	ip
 8000a38:	08000a29 	.word	0x08000a29

08000a3c <_ZN4mbed6Serial5_getcEv>:
{
 8000a3c:	b510      	push	{r4, lr}
    return _base_getc();
 8000a3e:	f000 f9a4 	bl	8000d8a <_ZN4mbed10SerialBase10_base_getcEv>
}
 8000a42:	bd10      	pop	{r4, pc}

08000a44 <_ZThn188_N4mbed6Serial5_getcEv>:
    virtual int _getc();
 8000a44:	b408      	push	{r3}
 8000a46:	4b02      	ldr	r3, [pc, #8]	; (8000a50 <_ZThn188_N4mbed6Serial5_getcEv+0xc>)
 8000a48:	469c      	mov	ip, r3
 8000a4a:	38bc      	subs	r0, #188	; 0xbc
 8000a4c:	bc08      	pop	{r3}
 8000a4e:	4760      	bx	ip
 8000a50:	08000a3d 	.word	0x08000a3d

08000a54 <_ZN4mbed6Serial5_putcEi>:
{
 8000a54:	b510      	push	{r4, lr}
    return _base_putc(c);
 8000a56:	f000 f99d 	bl	8000d94 <_ZN4mbed10SerialBase10_base_putcEi>
}
 8000a5a:	bd10      	pop	{r4, pc}

08000a5c <_ZThn188_N4mbed6Serial5_putcEi>:
    virtual int _putc(int c);
 8000a5c:	b408      	push	{r3}
 8000a5e:	4b02      	ldr	r3, [pc, #8]	; (8000a68 <_ZThn188_N4mbed6Serial5_putcEi+0xc>)
 8000a60:	469c      	mov	ip, r3
 8000a62:	38bc      	subs	r0, #188	; 0xbc
 8000a64:	bc08      	pop	{r3}
 8000a66:	4760      	bx	ip
 8000a68:	08000a55 	.word	0x08000a55

08000a6c <_ZN4mbed6SerialC1E7PinNameS1_PKci>:
Serial::Serial(PinName tx, PinName rx, const char *name, int baud) : SerialBase(tx, rx, baud), Stream(name)
 8000a6c:	b570      	push	{r4, r5, r6, lr}
 8000a6e:	0004      	movs	r4, r0
 8000a70:	001d      	movs	r5, r3
 8000a72:	9b04      	ldr	r3, [sp, #16]
 8000a74:	f000 f838 	bl	8000ae8 <_ZN4mbed10SerialBaseC1E7PinNameS1_i>
 8000a78:	0020      	movs	r0, r4
 8000a7a:	30bc      	adds	r0, #188	; 0xbc
 8000a7c:	0029      	movs	r1, r5
 8000a7e:	f000 ff05 	bl	800188c <_ZN4mbed6StreamC1EPKc>
 8000a82:	4b06      	ldr	r3, [pc, #24]	; (8000a9c <_ZN4mbed6SerialC1E7PinNameS1_PKci+0x30>)
 8000a84:	001a      	movs	r2, r3
 8000a86:	3208      	adds	r2, #8
 8000a88:	6022      	str	r2, [r4, #0]
 8000a8a:	0019      	movs	r1, r3
 8000a8c:	3128      	adds	r1, #40	; 0x28
 8000a8e:	22bc      	movs	r2, #188	; 0xbc
 8000a90:	50a1      	str	r1, [r4, r2]
 8000a92:	3388      	adds	r3, #136	; 0x88
 8000a94:	3204      	adds	r2, #4
 8000a96:	50a3      	str	r3, [r4, r2]
}
 8000a98:	0020      	movs	r0, r4
 8000a9a:	bd70      	pop	{r4, r5, r6, pc}
 8000a9c:	08005618 	.word	0x08005618

08000aa0 <_ZN4mbed10SerialBase12_irq_handlerEm9SerialIrq>:
    core_util_critical_section_exit();
    unlock();
}

void SerialBase::_irq_handler(uint32_t id, SerialIrq irq_type)
{
 8000aa0:	b510      	push	{r4, lr}
        return _ops;
 8000aa2:	000b      	movs	r3, r1
 8000aa4:	330a      	adds	r3, #10
 8000aa6:	011b      	lsls	r3, r3, #4
 8000aa8:	18c3      	adds	r3, r0, r3
 8000aaa:	685b      	ldr	r3, [r3, #4]
    SerialBase *handler = (SerialBase *)id;
    if (handler->_irq[irq_type]) {
 8000aac:	2b00      	cmp	r3, #0
 8000aae:	d004      	beq.n	8000aba <_ZN4mbed10SerialBase12_irq_handlerEm9SerialIrq+0x1a>
        handler->_irq[irq_type]();
 8000ab0:	0109      	lsls	r1, r1, #4
 8000ab2:	3198      	adds	r1, #152	; 0x98
 8000ab4:	1840      	adds	r0, r0, r1
        return _ops->call(this);
 8000ab6:	681b      	ldr	r3, [r3, #0]
 8000ab8:	4798      	blx	r3
    }
}
 8000aba:	bd10      	pop	{r4, pc}

08000abc <_ZN4mbed10SerialBase4lockEv>:
}

void SerialBase::lock()
{
    // Stub
}
 8000abc:	4770      	bx	lr

08000abe <_ZN4mbed10SerialBase6unlockEv>:

void SerialBase:: unlock()
{
    // Stub
}
 8000abe:	4770      	bx	lr

08000ac0 <_ZN6CThunkIN4mbed10SerialBaseEE10trampolineEPS1_PvPMS1_FvS4_E>:
        volatile uint32_t callback;
        volatile uint32_t trampoline;
    } __attribute__((__packed__)) CThunkTrampoline;
#endif

    static void trampoline(T *instance, void *context, CCallback *callback)
 8000ac0:	b510      	push	{r4, lr}
    {
        if (instance && *callback) {
 8000ac2:	2800      	cmp	r0, #0
 8000ac4:	d00b      	beq.n	8000ade <_ZN6CThunkIN4mbed10SerialBaseEE10trampolineEPS1_PvPMS1_FvS4_E+0x1e>
 8000ac6:	6814      	ldr	r4, [r2, #0]
 8000ac8:	2c00      	cmp	r4, #0
 8000aca:	d009      	beq.n	8000ae0 <_ZN6CThunkIN4mbed10SerialBaseEE10trampolineEPS1_PvPMS1_FvS4_E+0x20>
            (static_cast<T *>(instance)->**callback)(context);
 8000acc:	6853      	ldr	r3, [r2, #4]
 8000ace:	07da      	lsls	r2, r3, #31
 8000ad0:	d502      	bpl.n	8000ad8 <_ZN6CThunkIN4mbed10SerialBaseEE10trampolineEPS1_PvPMS1_FvS4_E+0x18>
 8000ad2:	105a      	asrs	r2, r3, #1
 8000ad4:	5882      	ldr	r2, [r0, r2]
 8000ad6:	5914      	ldr	r4, [r2, r4]
 8000ad8:	105b      	asrs	r3, r3, #1
 8000ada:	18c0      	adds	r0, r0, r3
 8000adc:	47a0      	blx	r4
        }
    }
 8000ade:	bd10      	pop	{r4, pc}
        if (instance && *callback) {
 8000ae0:	6853      	ldr	r3, [r2, #4]
 8000ae2:	07db      	lsls	r3, r3, #31
 8000ae4:	d4f2      	bmi.n	8000acc <_ZN6CThunkIN4mbed10SerialBaseEE10trampolineEPS1_PvPMS1_FvS4_E+0xc>
 8000ae6:	e7fa      	b.n	8000ade <_ZN6CThunkIN4mbed10SerialBaseEE10trampolineEPS1_PvPMS1_FvS4_E+0x1e>

08000ae8 <_ZN4mbed10SerialBaseC1E7PinNameS1_i>:
SerialBase::SerialBase(PinName tx, PinName rx, int baud) :
 8000ae8:	b5f0      	push	{r4, r5, r6, r7, lr}
 8000aea:	b08b      	sub	sp, #44	; 0x2c
 8000aec:	0004      	movs	r4, r0
 8000aee:	9100      	str	r1, [sp, #0]
 8000af0:	9201      	str	r2, [sp, #4]
 8000af2:	001e      	movs	r6, r3
    _serial(), _baud(baud)
 8000af4:	4b3e      	ldr	r3, [pc, #248]	; (8000bf0 <_ZN4mbed10SerialBaseC1E7PinNameS1_i+0x108>)
 8000af6:	3308      	adds	r3, #8
 8000af8:	6003      	str	r3, [r0, #0]
        init(instance, NULL, NULL);
 8000afa:	2500      	movs	r5, #0
 8000afc:	9508      	str	r5, [sp, #32]
 8000afe:	9509      	str	r5, [sp, #36]	; 0x24
 8000b00:	af02      	add	r7, sp, #8
 8000b02:	2208      	movs	r2, #8
 8000b04:	a908      	add	r1, sp, #32
 8000b06:	0038      	movs	r0, r7
 8000b08:	f004 f8d8 	bl	8004cbc <memcpy>

    inline void init(T *instance, CCallback callback, void *context)
    {
        /* remember callback - need to add this level of redirection
           as pointer size for member functions differs between platforms */
        m_callback = callback;
 8000b0c:	0022      	movs	r2, r4
 8000b0e:	3208      	adds	r2, #8
 8000b10:	cf0a      	ldmia	r7!, {r1, r3}
 8000b12:	c20a      	stmia	r2!, {r1, r3}

        /* populate thunking trampoline */
        CTHUNK_ASSIGMENT;
 8000b14:	4b37      	ldr	r3, [pc, #220]	; (8000bf4 <_ZN4mbed10SerialBaseC1E7PinNameS1_i+0x10c>)
 8000b16:	6123      	str	r3, [r4, #16]
 8000b18:	4b37      	ldr	r3, [pc, #220]	; (8000bf8 <_ZN4mbed10SerialBaseC1E7PinNameS1_i+0x110>)
 8000b1a:	6163      	str	r3, [r4, #20]
        m_thunk.context = (uint32_t)context;
 8000b1c:	61e5      	str	r5, [r4, #28]
        m_thunk.instance = (uint32_t)instance;
 8000b1e:	61a4      	str	r4, [r4, #24]
        m_thunk.callback = (uint32_t)&m_callback;
 8000b20:	0023      	movs	r3, r4
 8000b22:	3308      	adds	r3, #8
 8000b24:	6223      	str	r3, [r4, #32]
        m_thunk.trampoline = (uint32_t)&trampoline;
 8000b26:	4b35      	ldr	r3, [pc, #212]	; (8000bfc <_ZN4mbed10SerialBaseC1E7PinNameS1_i+0x114>)
 8000b28:	6263      	str	r3, [r4, #36]	; 0x24
           so that all instructions following the ISB are fetched from cache or memory,
           after the instruction has been completed.
 */
__STATIC_FORCEINLINE void __ISB(void)
{
  __ASM volatile ("isb 0xF":::"memory");
 8000b2a:	f3bf 8f6f 	isb	sy
  \details Acts as a special kind of Data Memory Barrier.
           It completes when all explicit memory accesses before this instruction complete.
 */
__STATIC_FORCEINLINE void __DSB(void)
{
  __ASM volatile ("dsb 0xF":::"memory");
 8000b2e:	f3bf 8f4f 	dsb	sy
 8000b32:	2328      	movs	r3, #40	; 0x28
 8000b34:	54e5      	strb	r5, [r4, r3]
 8000b36:	3301      	adds	r3, #1
 8000b38:	54e5      	strb	r5, [r4, r3]
 8000b3a:	0020      	movs	r0, r4
 8000b3c:	302c      	adds	r0, #44	; 0x2c
            memset(this, 0, sizeof(Callback));
 8000b3e:	2210      	movs	r2, #16
 8000b40:	2100      	movs	r1, #0
 8000b42:	f004 f8c4 	bl	8004cce <memset>
 8000b46:	0020      	movs	r0, r4
 8000b48:	303c      	adds	r0, #60	; 0x3c
 8000b4a:	2210      	movs	r2, #16
 8000b4c:	2100      	movs	r1, #0
 8000b4e:	f004 f8be 	bl	8004cce <memset>
 8000b52:	0020      	movs	r0, r4
 8000b54:	304c      	adds	r0, #76	; 0x4c
 8000b56:	224c      	movs	r2, #76	; 0x4c
 8000b58:	2100      	movs	r1, #0
 8000b5a:	f004 f8b8 	bl	8004cce <memset>
 8000b5e:	0027      	movs	r7, r4
 8000b60:	3798      	adds	r7, #152	; 0x98
 8000b62:	3501      	adds	r5, #1
 8000b64:	2d00      	cmp	r5, #0
 8000b66:	db07      	blt.n	8000b78 <_ZN4mbed10SerialBaseC1E7PinNameS1_i+0x90>
            memset(this, 0, sizeof(Callback));
 8000b68:	2210      	movs	r2, #16
 8000b6a:	2100      	movs	r1, #0
 8000b6c:	0038      	movs	r0, r7
 8000b6e:	f004 f8ae 	bl	8004cce <memset>
 8000b72:	3710      	adds	r7, #16
 8000b74:	3d01      	subs	r5, #1
 8000b76:	e7f5      	b.n	8000b64 <_ZN4mbed10SerialBaseC1E7PinNameS1_i+0x7c>
 8000b78:	23b8      	movs	r3, #184	; 0xb8
 8000b7a:	50e6      	str	r6, [r4, r3]
    for (size_t i = 0; i < sizeof _irq / sizeof _irq[0]; i++) {
 8000b7c:	2600      	movs	r6, #0
 8000b7e:	e008      	b.n	8000b92 <_ZN4mbed10SerialBaseC1E7PinNameS1_i+0xaa>
        _ops = func._ops;
 8000b80:	9b07      	ldr	r3, [sp, #28]
 8000b82:	60eb      	str	r3, [r5, #12]
        if (_ops) {
 8000b84:	9b07      	ldr	r3, [sp, #28]
 8000b86:	2b00      	cmp	r3, #0
 8000b88:	d002      	beq.n	8000b90 <_ZN4mbed10SerialBaseC1E7PinNameS1_i+0xa8>
            _ops->dtor(this);
 8000b8a:	689b      	ldr	r3, [r3, #8]
 8000b8c:	a804      	add	r0, sp, #16
 8000b8e:	4798      	blx	r3
 8000b90:	3601      	adds	r6, #1
 8000b92:	2e01      	cmp	r6, #1
 8000b94:	d818      	bhi.n	8000bc8 <_ZN4mbed10SerialBaseC1E7PinNameS1_i+0xe0>
        _irq[i] = NULL;
 8000b96:	0135      	lsls	r5, r6, #4
 8000b98:	3598      	adds	r5, #152	; 0x98
 8000b9a:	1965      	adds	r5, r4, r5
            memset(this, 0, sizeof(Callback));
 8000b9c:	af04      	add	r7, sp, #16
 8000b9e:	2210      	movs	r2, #16
 8000ba0:	2100      	movs	r1, #0
 8000ba2:	0038      	movs	r0, r7
 8000ba4:	f004 f893 	bl	8004cce <memset>
        if (this != &that) {
 8000ba8:	42bd      	cmp	r5, r7
 8000baa:	d0eb      	beq.n	8000b84 <_ZN4mbed10SerialBaseC1E7PinNameS1_i+0x9c>
        if (_ops) {
 8000bac:	68eb      	ldr	r3, [r5, #12]
 8000bae:	2b00      	cmp	r3, #0
 8000bb0:	d002      	beq.n	8000bb8 <_ZN4mbed10SerialBaseC1E7PinNameS1_i+0xd0>
            _ops->dtor(this);
 8000bb2:	689b      	ldr	r3, [r3, #8]
 8000bb4:	0028      	movs	r0, r5
 8000bb6:	4798      	blx	r3
        if (func._ops) {
 8000bb8:	9b07      	ldr	r3, [sp, #28]
 8000bba:	2b00      	cmp	r3, #0
 8000bbc:	d0e0      	beq.n	8000b80 <_ZN4mbed10SerialBaseC1E7PinNameS1_i+0x98>
            func._ops->move(this, &func);
 8000bbe:	685b      	ldr	r3, [r3, #4]
 8000bc0:	a904      	add	r1, sp, #16
 8000bc2:	0028      	movs	r0, r5
 8000bc4:	4798      	blx	r3
 8000bc6:	e7db      	b.n	8000b80 <_ZN4mbed10SerialBaseC1E7PinNameS1_i+0x98>
    serial_init(&_serial, tx, rx);
 8000bc8:	0025      	movs	r5, r4
 8000bca:	354c      	adds	r5, #76	; 0x4c
 8000bcc:	9a01      	ldr	r2, [sp, #4]
 8000bce:	9900      	ldr	r1, [sp, #0]
 8000bd0:	0028      	movs	r0, r5
 8000bd2:	f002 fe15 	bl	8003800 <serial_init>
    serial_baud(&_serial, _baud);
 8000bd6:	23b8      	movs	r3, #184	; 0xb8
 8000bd8:	58e1      	ldr	r1, [r4, r3]
 8000bda:	0028      	movs	r0, r5
 8000bdc:	f002 fdea 	bl	80037b4 <serial_baud>
    serial_irq_handler(&_serial, SerialBase::_irq_handler, (uint32_t)this);
 8000be0:	0022      	movs	r2, r4
 8000be2:	4907      	ldr	r1, [pc, #28]	; (8000c00 <_ZN4mbed10SerialBaseC1E7PinNameS1_i+0x118>)
 8000be4:	0028      	movs	r0, r5
 8000be6:	f002 fb11 	bl	800320c <serial_irq_handler>
}
 8000bea:	0020      	movs	r0, r4
 8000bec:	b00b      	add	sp, #44	; 0x2c
 8000bee:	bdf0      	pop	{r4, r5, r6, r7, pc}
 8000bf0:	080056a8 	.word	0x080056a8
 8000bf4:	c80fa001 	.word	0xc80fa001
 8000bf8:	00004718 	.word	0x00004718
 8000bfc:	08000ac1 	.word	0x08000ac1
 8000c00:	08000aa1 	.word	0x08000aa1

08000c04 <_ZN4mbed10SerialBase8readableEv>:
{
 8000c04:	b570      	push	{r4, r5, r6, lr}
 8000c06:	0004      	movs	r4, r0
    lock();
 8000c08:	6803      	ldr	r3, [r0, #0]
 8000c0a:	681b      	ldr	r3, [r3, #0]
 8000c0c:	4798      	blx	r3
    int ret = serial_readable(&_serial);
 8000c0e:	0020      	movs	r0, r4
 8000c10:	304c      	adds	r0, #76	; 0x4c
 8000c12:	f002 fd69 	bl	80036e8 <serial_readable>
 8000c16:	0005      	movs	r5, r0
    unlock();
 8000c18:	6823      	ldr	r3, [r4, #0]
 8000c1a:	685b      	ldr	r3, [r3, #4]
 8000c1c:	0020      	movs	r0, r4
 8000c1e:	4798      	blx	r3
}
 8000c20:	0028      	movs	r0, r5
 8000c22:	bd70      	pop	{r4, r5, r6, pc}

08000c24 <_ZN4mbed10SerialBase6attachENS_8CallbackIFvvEEENS0_7IrqTypeE>:
{
 8000c24:	b5f0      	push	{r4, r5, r6, r7, lr}
 8000c26:	b085      	sub	sp, #20
 8000c28:	0004      	movs	r4, r0
 8000c2a:	000e      	movs	r6, r1
 8000c2c:	0017      	movs	r7, r2
    lock();
 8000c2e:	6803      	ldr	r3, [r0, #0]
 8000c30:	681b      	ldr	r3, [r3, #0]
 8000c32:	4798      	blx	r3
    core_util_critical_section_enter();
 8000c34:	f000 fed0 	bl	80019d8 <core_util_critical_section_enter>
    if (func) {
 8000c38:	68f3      	ldr	r3, [r6, #12]
 8000c3a:	2b00      	cmp	r3, #0
 8000c3c:	d02b      	beq.n	8000c96 <_ZN4mbed10SerialBase6attachENS_8CallbackIFvvEEENS0_7IrqTypeE+0x72>
        return _ops;
 8000c3e:	003b      	movs	r3, r7
 8000c40:	330a      	adds	r3, #10
 8000c42:	011b      	lsls	r3, r3, #4
 8000c44:	18e3      	adds	r3, r4, r3
 8000c46:	685b      	ldr	r3, [r3, #4]
        if (!_irq[type]) {
 8000c48:	2b00      	cmp	r3, #0
 8000c4a:	d021      	beq.n	8000c90 <_ZN4mbed10SerialBase6attachENS_8CallbackIFvvEEENS0_7IrqTypeE+0x6c>
        _irq[type] = func;
 8000c4c:	013d      	lsls	r5, r7, #4
 8000c4e:	3598      	adds	r5, #152	; 0x98
 8000c50:	1965      	adds	r5, r4, r5
        if (this != &that) {
 8000c52:	42ae      	cmp	r6, r5
 8000c54:	d00e      	beq.n	8000c74 <_ZN4mbed10SerialBase6attachENS_8CallbackIFvvEEENS0_7IrqTypeE+0x50>
        if (_ops) {
 8000c56:	68eb      	ldr	r3, [r5, #12]
 8000c58:	2b00      	cmp	r3, #0
 8000c5a:	d002      	beq.n	8000c62 <_ZN4mbed10SerialBase6attachENS_8CallbackIFvvEEENS0_7IrqTypeE+0x3e>
            _ops->dtor(this);
 8000c5c:	689b      	ldr	r3, [r3, #8]
 8000c5e:	0028      	movs	r0, r5
 8000c60:	4798      	blx	r3
        if (func._ops) {
 8000c62:	68f3      	ldr	r3, [r6, #12]
 8000c64:	2b00      	cmp	r3, #0
 8000c66:	d003      	beq.n	8000c70 <_ZN4mbed10SerialBase6attachENS_8CallbackIFvvEEENS0_7IrqTypeE+0x4c>
            func._ops->move(this, &func);
 8000c68:	685b      	ldr	r3, [r3, #4]
 8000c6a:	0031      	movs	r1, r6
 8000c6c:	0028      	movs	r0, r5
 8000c6e:	4798      	blx	r3
        _ops = func._ops;
 8000c70:	68f3      	ldr	r3, [r6, #12]
 8000c72:	60eb      	str	r3, [r5, #12]
        serial_irq_set(&_serial, (SerialIrq)type, 1);
 8000c74:	0020      	movs	r0, r4
 8000c76:	304c      	adds	r0, #76	; 0x4c
 8000c78:	2201      	movs	r2, #1
 8000c7a:	0039      	movs	r1, r7
 8000c7c:	f002 fad2 	bl	8003224 <serial_irq_set>
    core_util_critical_section_exit();
 8000c80:	f000 feb4 	bl	80019ec <core_util_critical_section_exit>
    unlock();
 8000c84:	6823      	ldr	r3, [r4, #0]
 8000c86:	685b      	ldr	r3, [r3, #4]
 8000c88:	0020      	movs	r0, r4
 8000c8a:	4798      	blx	r3
}
 8000c8c:	b005      	add	sp, #20
 8000c8e:	bdf0      	pop	{r4, r5, r6, r7, pc}
            sleep_manager_lock_deep_sleep();
 8000c90:	f000 f9da 	bl	8001048 <sleep_manager_lock_deep_sleep_internal>
 8000c94:	e7da      	b.n	8000c4c <_ZN4mbed10SerialBase6attachENS_8CallbackIFvvEEENS0_7IrqTypeE+0x28>
        return _ops;
 8000c96:	003b      	movs	r3, r7
 8000c98:	330a      	adds	r3, #10
 8000c9a:	011b      	lsls	r3, r3, #4
 8000c9c:	18e3      	adds	r3, r4, r3
 8000c9e:	685b      	ldr	r3, [r3, #4]
        if (_irq[type]) {
 8000ca0:	2b00      	cmp	r3, #0
 8000ca2:	d001      	beq.n	8000ca8 <_ZN4mbed10SerialBase6attachENS_8CallbackIFvvEEENS0_7IrqTypeE+0x84>
            sleep_manager_unlock_deep_sleep();
 8000ca4:	f000 f9f2 	bl	800108c <sleep_manager_unlock_deep_sleep_internal>
        _irq[type] = NULL;
 8000ca8:	013d      	lsls	r5, r7, #4
 8000caa:	3598      	adds	r5, #152	; 0x98
 8000cac:	1965      	adds	r5, r4, r5
            memset(this, 0, sizeof(Callback));
 8000cae:	466e      	mov	r6, sp
 8000cb0:	2210      	movs	r2, #16
 8000cb2:	2100      	movs	r1, #0
 8000cb4:	4668      	mov	r0, sp
 8000cb6:	f004 f80a 	bl	8004cce <memset>
        if (this != &that) {
 8000cba:	42b5      	cmp	r5, r6
 8000cbc:	d00e      	beq.n	8000cdc <_ZN4mbed10SerialBase6attachENS_8CallbackIFvvEEENS0_7IrqTypeE+0xb8>
        if (_ops) {
 8000cbe:	68eb      	ldr	r3, [r5, #12]
 8000cc0:	2b00      	cmp	r3, #0
 8000cc2:	d002      	beq.n	8000cca <_ZN4mbed10SerialBase6attachENS_8CallbackIFvvEEENS0_7IrqTypeE+0xa6>
            _ops->dtor(this);
 8000cc4:	689b      	ldr	r3, [r3, #8]
 8000cc6:	0028      	movs	r0, r5
 8000cc8:	4798      	blx	r3
        if (func._ops) {
 8000cca:	9b03      	ldr	r3, [sp, #12]
 8000ccc:	2b00      	cmp	r3, #0
 8000cce:	d003      	beq.n	8000cd8 <_ZN4mbed10SerialBase6attachENS_8CallbackIFvvEEENS0_7IrqTypeE+0xb4>
            func._ops->move(this, &func);
 8000cd0:	685b      	ldr	r3, [r3, #4]
 8000cd2:	4669      	mov	r1, sp
 8000cd4:	0028      	movs	r0, r5
 8000cd6:	4798      	blx	r3
        _ops = func._ops;
 8000cd8:	9b03      	ldr	r3, [sp, #12]
 8000cda:	60eb      	str	r3, [r5, #12]
        if (_ops) {
 8000cdc:	9b03      	ldr	r3, [sp, #12]
 8000cde:	2b00      	cmp	r3, #0
 8000ce0:	d002      	beq.n	8000ce8 <_ZN4mbed10SerialBase6attachENS_8CallbackIFvvEEENS0_7IrqTypeE+0xc4>
            _ops->dtor(this);
 8000ce2:	689b      	ldr	r3, [r3, #8]
 8000ce4:	4668      	mov	r0, sp
 8000ce6:	4798      	blx	r3
        serial_irq_set(&_serial, (SerialIrq)type, 0);
 8000ce8:	0020      	movs	r0, r4
 8000cea:	304c      	adds	r0, #76	; 0x4c
 8000cec:	2200      	movs	r2, #0
 8000cee:	0039      	movs	r1, r7
 8000cf0:	f002 fa98 	bl	8003224 <serial_irq_set>
 8000cf4:	e7c4      	b.n	8000c80 <_ZN4mbed10SerialBase6attachENS_8CallbackIFvvEEENS0_7IrqTypeE+0x5c>
	...

08000cf8 <_ZN4mbed10SerialBaseD1Ev>:

SerialBase::~SerialBase()
 8000cf8:	b570      	push	{r4, r5, r6, lr}
 8000cfa:	b084      	sub	sp, #16
 8000cfc:	0006      	movs	r6, r0
 8000cfe:	4b1d      	ldr	r3, [pc, #116]	; (8000d74 <_ZN4mbed10SerialBaseD1Ev+0x7c>)
 8000d00:	3308      	adds	r3, #8
 8000d02:	6003      	str	r3, [r0, #0]
{
    // No lock needed in destructor

    // Detaching interrupts releases the sleep lock if it was locked
    for (int irq = 0; irq < IrqCnt; irq++) {
 8000d04:	2400      	movs	r4, #0
 8000d06:	e000      	b.n	8000d0a <_ZN4mbed10SerialBaseD1Ev+0x12>
 8000d08:	3401      	adds	r4, #1
 8000d0a:	2c01      	cmp	r4, #1
 8000d0c:	dc10      	bgt.n	8000d30 <_ZN4mbed10SerialBaseD1Ev+0x38>
            memset(this, 0, sizeof(Callback));
 8000d0e:	2210      	movs	r2, #16
 8000d10:	2100      	movs	r1, #0
 8000d12:	4668      	mov	r0, sp
 8000d14:	f003 ffdb 	bl	8004cce <memset>
        attach(NULL, (IrqType)irq);
 8000d18:	b2e2      	uxtb	r2, r4
 8000d1a:	4669      	mov	r1, sp
 8000d1c:	0030      	movs	r0, r6
 8000d1e:	f7ff ff81 	bl	8000c24 <_ZN4mbed10SerialBase6attachENS_8CallbackIFvvEEENS0_7IrqTypeE>
        if (_ops) {
 8000d22:	9b03      	ldr	r3, [sp, #12]
 8000d24:	2b00      	cmp	r3, #0
 8000d26:	d0ef      	beq.n	8000d08 <_ZN4mbed10SerialBaseD1Ev+0x10>
            _ops->dtor(this);
 8000d28:	689b      	ldr	r3, [r3, #8]
 8000d2a:	4668      	mov	r0, sp
 8000d2c:	4798      	blx	r3
 8000d2e:	e7eb      	b.n	8000d08 <_ZN4mbed10SerialBaseD1Ev+0x10>
SerialBase::~SerialBase()
 8000d30:	0035      	movs	r5, r6
 8000d32:	3598      	adds	r5, #152	; 0x98
 8000d34:	2d00      	cmp	r5, #0
 8000d36:	d00b      	beq.n	8000d50 <_ZN4mbed10SerialBaseD1Ev+0x58>
 8000d38:	0034      	movs	r4, r6
 8000d3a:	34b8      	adds	r4, #184	; 0xb8
 8000d3c:	42ac      	cmp	r4, r5
 8000d3e:	d007      	beq.n	8000d50 <_ZN4mbed10SerialBaseD1Ev+0x58>
 8000d40:	3c10      	subs	r4, #16
        if (_ops) {
 8000d42:	68e3      	ldr	r3, [r4, #12]
 8000d44:	2b00      	cmp	r3, #0
 8000d46:	d0f9      	beq.n	8000d3c <_ZN4mbed10SerialBaseD1Ev+0x44>
            _ops->dtor(this);
 8000d48:	689b      	ldr	r3, [r3, #8]
 8000d4a:	0020      	movs	r0, r4
 8000d4c:	4798      	blx	r3
 8000d4e:	e7f5      	b.n	8000d3c <_ZN4mbed10SerialBaseD1Ev+0x44>
 8000d50:	0030      	movs	r0, r6
 8000d52:	303c      	adds	r0, #60	; 0x3c
        if (_ops) {
 8000d54:	6cb3      	ldr	r3, [r6, #72]	; 0x48
 8000d56:	2b00      	cmp	r3, #0
 8000d58:	d001      	beq.n	8000d5e <_ZN4mbed10SerialBaseD1Ev+0x66>
            _ops->dtor(this);
 8000d5a:	689b      	ldr	r3, [r3, #8]
 8000d5c:	4798      	blx	r3
 8000d5e:	0030      	movs	r0, r6
 8000d60:	302c      	adds	r0, #44	; 0x2c
        if (_ops) {
 8000d62:	6bb3      	ldr	r3, [r6, #56]	; 0x38
 8000d64:	2b00      	cmp	r3, #0
 8000d66:	d001      	beq.n	8000d6c <_ZN4mbed10SerialBaseD1Ev+0x74>
            _ops->dtor(this);
 8000d68:	689b      	ldr	r3, [r3, #8]
 8000d6a:	4798      	blx	r3
    }
}
 8000d6c:	0030      	movs	r0, r6
 8000d6e:	b004      	add	sp, #16
 8000d70:	bd70      	pop	{r4, r5, r6, pc}
 8000d72:	46c0      	nop			; (mov r8, r8)
 8000d74:	080056a8 	.word	0x080056a8

08000d78 <_ZN4mbed10SerialBaseD0Ev>:
SerialBase::~SerialBase()
 8000d78:	b510      	push	{r4, lr}
 8000d7a:	0004      	movs	r4, r0
}
 8000d7c:	f7ff ffbc 	bl	8000cf8 <_ZN4mbed10SerialBaseD1Ev>
 8000d80:	0020      	movs	r0, r4
 8000d82:	f001 fad1 	bl	8002328 <_ZdlPv>
 8000d86:	0020      	movs	r0, r4
 8000d88:	bd10      	pop	{r4, pc}

08000d8a <_ZN4mbed10SerialBase10_base_getcEv>:
{
 8000d8a:	b510      	push	{r4, lr}
    return serial_getc(&_serial);
 8000d8c:	304c      	adds	r0, #76	; 0x4c
 8000d8e:	f002 facf 	bl	8003330 <serial_getc>
}
 8000d92:	bd10      	pop	{r4, pc}

08000d94 <_ZN4mbed10SerialBase10_base_putcEi>:
{
 8000d94:	b510      	push	{r4, lr}
 8000d96:	000c      	movs	r4, r1
    serial_putc(&_serial, c);
 8000d98:	304c      	adds	r0, #76	; 0x4c
 8000d9a:	f002 fadd 	bl	8003358 <serial_putc>
}
 8000d9e:	0020      	movs	r0, r4
 8000da0:	bd10      	pop	{r4, pc}

08000da2 <_ZN4mbed6Ticker7handlerEv>:
    insert_absolute(_delay + ticker_read_us(_ticker_data));
    core_util_critical_section_exit();
}

void Ticker::handler()
{
 8000da2:	b510      	push	{r4, lr}
 8000da4:	0004      	movs	r4, r0
    insert_absolute(event.timestamp + _delay);
 8000da6:	6882      	ldr	r2, [r0, #8]
 8000da8:	68c3      	ldr	r3, [r0, #12]
 8000daa:	6a41      	ldr	r1, [r0, #36]	; 0x24
 8000dac:	6a00      	ldr	r0, [r0, #32]
 8000dae:	1812      	adds	r2, r2, r0
 8000db0:	414b      	adcs	r3, r1
 8000db2:	0020      	movs	r0, r4
 8000db4:	f000 f874 	bl	8000ea0 <_ZN4mbed10TimerEvent15insert_absoluteEy>
        return _ops;
 8000db8:	6b63      	ldr	r3, [r4, #52]	; 0x34
    if (_function) {
 8000dba:	2b00      	cmp	r3, #0
 8000dbc:	d003      	beq.n	8000dc6 <_ZN4mbed6Ticker7handlerEv+0x24>
        _function();
 8000dbe:	0020      	movs	r0, r4
 8000dc0:	3028      	adds	r0, #40	; 0x28
        return _ops->call(this);
 8000dc2:	681b      	ldr	r3, [r3, #0]
 8000dc4:	4798      	blx	r3
    }
}
 8000dc6:	bd10      	pop	{r4, pc}

08000dc8 <_ZN4mbed6Ticker6detachEv>:
{
 8000dc8:	b530      	push	{r4, r5, lr}
 8000dca:	b085      	sub	sp, #20
 8000dcc:	0004      	movs	r4, r0
    core_util_critical_section_enter();
 8000dce:	f000 fe03 	bl	80019d8 <core_util_critical_section_enter>
    remove();
 8000dd2:	0020      	movs	r0, r4
 8000dd4:	f000 f86f 	bl	8000eb6 <_ZN4mbed10TimerEvent6removeEv>
    if (_function && _lock_deepsleep) {
 8000dd8:	6b63      	ldr	r3, [r4, #52]	; 0x34
 8000dda:	2b00      	cmp	r3, #0
 8000ddc:	d025      	beq.n	8000e2a <_ZN4mbed6Ticker6detachEv+0x62>
 8000dde:	2338      	movs	r3, #56	; 0x38
 8000de0:	5ce3      	ldrb	r3, [r4, r3]
 8000de2:	2b00      	cmp	r3, #0
 8000de4:	d123      	bne.n	8000e2e <_ZN4mbed6Ticker6detachEv+0x66>
    _function = 0;
 8000de6:	3428      	adds	r4, #40	; 0x28
            memset(this, 0, sizeof(Callback));
 8000de8:	466d      	mov	r5, sp
 8000dea:	2210      	movs	r2, #16
 8000dec:	2100      	movs	r1, #0
 8000dee:	4668      	mov	r0, sp
 8000df0:	f003 ff6d 	bl	8004cce <memset>
        if (this != &that) {
 8000df4:	42ac      	cmp	r4, r5
 8000df6:	d00e      	beq.n	8000e16 <_ZN4mbed6Ticker6detachEv+0x4e>
        if (_ops) {
 8000df8:	68e3      	ldr	r3, [r4, #12]
 8000dfa:	2b00      	cmp	r3, #0
 8000dfc:	d002      	beq.n	8000e04 <_ZN4mbed6Ticker6detachEv+0x3c>
            _ops->dtor(this);
 8000dfe:	689b      	ldr	r3, [r3, #8]
 8000e00:	0020      	movs	r0, r4
 8000e02:	4798      	blx	r3
        if (func._ops) {
 8000e04:	9b03      	ldr	r3, [sp, #12]
 8000e06:	2b00      	cmp	r3, #0
 8000e08:	d003      	beq.n	8000e12 <_ZN4mbed6Ticker6detachEv+0x4a>
            func._ops->move(this, &func);
 8000e0a:	685b      	ldr	r3, [r3, #4]
 8000e0c:	4669      	mov	r1, sp
 8000e0e:	0020      	movs	r0, r4
 8000e10:	4798      	blx	r3
        _ops = func._ops;
 8000e12:	9b03      	ldr	r3, [sp, #12]
 8000e14:	60e3      	str	r3, [r4, #12]
        if (_ops) {
 8000e16:	9b03      	ldr	r3, [sp, #12]
 8000e18:	2b00      	cmp	r3, #0
 8000e1a:	d002      	beq.n	8000e22 <_ZN4mbed6Ticker6detachEv+0x5a>
            _ops->dtor(this);
 8000e1c:	689b      	ldr	r3, [r3, #8]
 8000e1e:	4668      	mov	r0, sp
 8000e20:	4798      	blx	r3
    core_util_critical_section_exit();
 8000e22:	f000 fde3 	bl	80019ec <core_util_critical_section_exit>
}
 8000e26:	b005      	add	sp, #20
 8000e28:	bd30      	pop	{r4, r5, pc}
    if (_function && _lock_deepsleep) {
 8000e2a:	2300      	movs	r3, #0
 8000e2c:	e7d9      	b.n	8000de2 <_ZN4mbed6Ticker6detachEv+0x1a>
        sleep_manager_unlock_deep_sleep();
 8000e2e:	f000 f92d 	bl	800108c <sleep_manager_unlock_deep_sleep_internal>
 8000e32:	e7d8      	b.n	8000de6 <_ZN4mbed6Ticker6detachEv+0x1e>

08000e34 <_ZN4mbed6Ticker5setupEy>:
{
 8000e34:	b5d0      	push	{r4, r6, r7, lr}
 8000e36:	0004      	movs	r4, r0
 8000e38:	0016      	movs	r6, r2
 8000e3a:	001f      	movs	r7, r3
    core_util_critical_section_enter();
 8000e3c:	f000 fdcc 	bl	80019d8 <core_util_critical_section_enter>
    remove();
 8000e40:	0020      	movs	r0, r4
 8000e42:	f000 f838 	bl	8000eb6 <_ZN4mbed10TimerEvent6removeEv>
    _delay = t;
 8000e46:	6226      	str	r6, [r4, #32]
 8000e48:	6267      	str	r7, [r4, #36]	; 0x24
    insert_absolute(_delay + ticker_read_us(_ticker_data));
 8000e4a:	69a0      	ldr	r0, [r4, #24]
 8000e4c:	f000 fb95 	bl	800157a <ticker_read_us>
 8000e50:	0032      	movs	r2, r6
 8000e52:	003b      	movs	r3, r7
 8000e54:	1812      	adds	r2, r2, r0
 8000e56:	414b      	adcs	r3, r1
 8000e58:	0020      	movs	r0, r4
 8000e5a:	f000 f821 	bl	8000ea0 <_ZN4mbed10TimerEvent15insert_absoluteEy>
    core_util_critical_section_exit();
 8000e5e:	f000 fdc5 	bl	80019ec <core_util_critical_section_exit>
}
 8000e62:	bdd0      	pop	{r4, r6, r7, pc}

08000e64 <_ZN4mbed10TimerEvent3irqEm>:
{
    ticker_set_handler(_ticker_data, (&TimerEvent::irq));
}

void TimerEvent::irq(uint32_t id)
{
 8000e64:	b510      	push	{r4, lr}
    TimerEvent *timer_event = (TimerEvent *)id;
    timer_event->handler();
 8000e66:	6803      	ldr	r3, [r0, #0]
 8000e68:	689b      	ldr	r3, [r3, #8]
 8000e6a:	4798      	blx	r3
}
 8000e6c:	bd10      	pop	{r4, pc}
	...

08000e70 <_ZN4mbed10TimerEventC1Ev>:
TimerEvent::TimerEvent() : event(), _ticker_data(get_us_ticker_data())
 8000e70:	b510      	push	{r4, lr}
 8000e72:	0004      	movs	r4, r0
 8000e74:	4b08      	ldr	r3, [pc, #32]	; (8000e98 <_ZN4mbed10TimerEventC1Ev+0x28>)
 8000e76:	3308      	adds	r3, #8
 8000e78:	6003      	str	r3, [r0, #0]
 8000e7a:	2200      	movs	r2, #0
 8000e7c:	2300      	movs	r3, #0
 8000e7e:	6082      	str	r2, [r0, #8]
 8000e80:	60c3      	str	r3, [r0, #12]
 8000e82:	2300      	movs	r3, #0
 8000e84:	6103      	str	r3, [r0, #16]
 8000e86:	6143      	str	r3, [r0, #20]
 8000e88:	f000 fb8a 	bl	80015a0 <get_us_ticker_data>
 8000e8c:	61a0      	str	r0, [r4, #24]
    ticker_set_handler(_ticker_data, (&TimerEvent::irq));
 8000e8e:	4903      	ldr	r1, [pc, #12]	; (8000e9c <_ZN4mbed10TimerEventC1Ev+0x2c>)
 8000e90:	f000 faf0 	bl	8001474 <ticker_set_handler>
}
 8000e94:	0020      	movs	r0, r4
 8000e96:	bd10      	pop	{r4, pc}
 8000e98:	080056d4 	.word	0x080056d4
 8000e9c:	08000e65 	.word	0x08000e65

08000ea0 <_ZN4mbed10TimerEvent15insert_absoluteEy>:
{
    ticker_insert_event(_ticker_data, &event, timestamp, (uint32_t)this);
}

void TimerEvent::insert_absolute(us_timestamp_t timestamp)
{
 8000ea0:	b510      	push	{r4, lr}
 8000ea2:	b082      	sub	sp, #8
    ticker_insert_event_us(_ticker_data, &event, timestamp, (uint32_t)this);
 8000ea4:	6984      	ldr	r4, [r0, #24]
 8000ea6:	0001      	movs	r1, r0
 8000ea8:	3108      	adds	r1, #8
 8000eaa:	9000      	str	r0, [sp, #0]
 8000eac:	0020      	movs	r0, r4
 8000eae:	f000 fb1f 	bl	80014f0 <ticker_insert_event_us>
}
 8000eb2:	b002      	add	sp, #8
 8000eb4:	bd10      	pop	{r4, pc}

08000eb6 <_ZN4mbed10TimerEvent6removeEv>:

void TimerEvent::remove()
{
 8000eb6:	b510      	push	{r4, lr}
 8000eb8:	0001      	movs	r1, r0
    ticker_remove_event(_ticker_data, &event);
 8000eba:	6980      	ldr	r0, [r0, #24]
 8000ebc:	3108      	adds	r1, #8
 8000ebe:	f000 fb41 	bl	8001544 <ticker_remove_event>
}
 8000ec2:	bd10      	pop	{r4, pc}

08000ec4 <_ZN4mbed10TimerEventD1Ev>:
TimerEvent::~TimerEvent()
 8000ec4:	b510      	push	{r4, lr}
 8000ec6:	0004      	movs	r4, r0
 8000ec8:	4b03      	ldr	r3, [pc, #12]	; (8000ed8 <_ZN4mbed10TimerEventD1Ev+0x14>)
 8000eca:	3308      	adds	r3, #8
 8000ecc:	6003      	str	r3, [r0, #0]
    remove();
 8000ece:	f7ff fff2 	bl	8000eb6 <_ZN4mbed10TimerEvent6removeEv>
}
 8000ed2:	0020      	movs	r0, r4
 8000ed4:	bd10      	pop	{r4, pc}
 8000ed6:	46c0      	nop			; (mov r8, r8)
 8000ed8:	080056d4 	.word	0x080056d4

08000edc <_ZN4mbed10FileHandle4tellEv>:
    virtual off_t tell()
 8000edc:	b510      	push	{r4, lr}
        return seek(0, SEEK_CUR);
 8000ede:	6803      	ldr	r3, [r0, #0]
 8000ee0:	691b      	ldr	r3, [r3, #16]
 8000ee2:	2201      	movs	r2, #1
 8000ee4:	2100      	movs	r1, #0
 8000ee6:	4798      	blx	r3
    }
 8000ee8:	bd10      	pop	{r4, pc}

08000eea <_ZN4mbed10FileHandle6rewindEv>:
    virtual void rewind()
 8000eea:	b510      	push	{r4, lr}
        seek(0, SEEK_SET);
 8000eec:	6803      	ldr	r3, [r0, #0]
 8000eee:	691b      	ldr	r3, [r3, #16]
 8000ef0:	2200      	movs	r2, #0
 8000ef2:	2100      	movs	r1, #0
 8000ef4:	4798      	blx	r3
    }
 8000ef6:	bd10      	pop	{r4, pc}

08000ef8 <are_interrupts_enabled>:
  __ASM volatile ("MRS %0, primask" : "=r" (result) :: "memory");
 8000ef8:	f3ef 8310 	mrs	r3, PRIMASK
static bool are_interrupts_enabled(void)
{
#if defined(__CORTEX_A9)
    return ((__get_CPSR() & 0x80) == 0);
#else
    return ((__get_PRIMASK() & 0x1) == 0);
 8000efc:	2001      	movs	r0, #1
 8000efe:	4018      	ands	r0, r3
 8000f00:	4243      	negs	r3, r0
 8000f02:	4158      	adcs	r0, r3
 8000f04:	b2c0      	uxtb	r0, r0
#endif
}
 8000f06:	4770      	bx	lr

08000f08 <hal_critical_section_enter>:


MBED_WEAK void hal_critical_section_enter(void)
{
 8000f08:	b510      	push	{r4, lr}
    const bool interrupt_state = are_interrupts_enabled();
 8000f0a:	f7ff fff5 	bl	8000ef8 <are_interrupts_enabled>
  __ASM volatile ("cpsid i" : : : "memory");
 8000f0e:	b672      	cpsid	i

    __disable_irq();

    if (state_saved == true) {
 8000f10:	4b04      	ldr	r3, [pc, #16]	; (8000f24 <hal_critical_section_enter+0x1c>)
 8000f12:	781b      	ldrb	r3, [r3, #0]
 8000f14:	2b00      	cmp	r3, #0
 8000f16:	d104      	bne.n	8000f22 <hal_critical_section_enter+0x1a>
        return;
    }

    critical_interrupts_enabled = interrupt_state;
 8000f18:	4b03      	ldr	r3, [pc, #12]	; (8000f28 <hal_critical_section_enter+0x20>)
 8000f1a:	7018      	strb	r0, [r3, #0]
    state_saved = true;
 8000f1c:	2201      	movs	r2, #1
 8000f1e:	4b01      	ldr	r3, [pc, #4]	; (8000f24 <hal_critical_section_enter+0x1c>)
 8000f20:	701a      	strb	r2, [r3, #0]
}
 8000f22:	bd10      	pop	{r4, pc}
 8000f24:	20000905 	.word	0x20000905
 8000f28:	20000904 	.word	0x20000904

08000f2c <hal_critical_section_exit>:
{
#ifndef FEATURE_UVISOR
    // Interrupts must be disabled on invoking an exit from a critical section
    MBED_ASSERT(!are_interrupts_enabled());
#endif
    state_saved = false;
 8000f2c:	2200      	movs	r2, #0
 8000f2e:	4b04      	ldr	r3, [pc, #16]	; (8000f40 <hal_critical_section_exit+0x14>)
 8000f30:	701a      	strb	r2, [r3, #0]

    // Restore the IRQs to their state prior to entering the critical section
    if (critical_interrupts_enabled == true) {
 8000f32:	4b04      	ldr	r3, [pc, #16]	; (8000f44 <hal_critical_section_exit+0x18>)
 8000f34:	781b      	ldrb	r3, [r3, #0]
 8000f36:	2b00      	cmp	r3, #0
 8000f38:	d000      	beq.n	8000f3c <hal_critical_section_exit+0x10>
  __ASM volatile ("cpsie i" : : : "memory");
 8000f3a:	b662      	cpsie	i
        __enable_irq();
    }
}
 8000f3c:	4770      	bx	lr
 8000f3e:	46c0      	nop			; (mov r8, r8)
 8000f40:	20000905 	.word	0x20000905
 8000f44:	20000904 	.word	0x20000904

08000f48 <gpio_init_out_ex>:
{
    gpio_init_out_ex(gpio, pin, 0);
}

void gpio_init_out_ex(gpio_t *gpio, PinName pin, int value)
{
 8000f48:	b570      	push	{r4, r5, r6, lr}
 8000f4a:	0004      	movs	r4, r0
 8000f4c:	000d      	movs	r5, r1
 8000f4e:	0016      	movs	r6, r2
    gpio_init(gpio, pin);
 8000f50:	f002 fa7a 	bl	8003448 <gpio_init>
    if (pin != NC) {
 8000f54:	1c6b      	adds	r3, r5, #1
 8000f56:	d00c      	beq.n	8000f72 <gpio_init_out_ex+0x2a>
    if (value) {
 8000f58:	2e00      	cmp	r6, #0
 8000f5a:	d00b      	beq.n	8000f74 <gpio_init_out_ex+0x2c>
        *obj->reg_set = obj->mask;
 8000f5c:	68a3      	ldr	r3, [r4, #8]
 8000f5e:	6822      	ldr	r2, [r4, #0]
 8000f60:	601a      	str	r2, [r3, #0]
        gpio_dir(gpio, PIN_OUTPUT);
 8000f62:	2101      	movs	r1, #1
 8000f64:	0020      	movs	r0, r4
 8000f66:	f002 fa97 	bl	8003498 <gpio_dir>
        gpio_mode(gpio, mode);
 8000f6a:	2100      	movs	r1, #0
 8000f6c:	0020      	movs	r0, r4
 8000f6e:	f002 fa8d 	bl	800348c <gpio_mode>
    _gpio_init_out(gpio, pin, PullNone, value);
}
 8000f72:	bd70      	pop	{r4, r5, r6, pc}
        *obj->reg_clr = obj->mask;
 8000f74:	68e3      	ldr	r3, [r4, #12]
 8000f76:	6822      	ldr	r2, [r4, #0]
 8000f78:	601a      	str	r2, [r3, #0]
 8000f7a:	e7f2      	b.n	8000f62 <gpio_init_out_ex+0x1a>

08000f7c <gpio_init_out>:
{
 8000f7c:	b510      	push	{r4, lr}
    gpio_init_out_ex(gpio, pin, 0);
 8000f7e:	2200      	movs	r2, #0
 8000f80:	f7ff ffe2 	bl	8000f48 <gpio_init_out_ex>
}
 8000f84:	bd10      	pop	{r4, pc}
	...

08000f88 <pinmap_pinout>:
 */
#include "hal/pinmap.h"
#include "platform/mbed_error.h"

void pinmap_pinout(PinName pin, const PinMap *map)
{
 8000f88:	b510      	push	{r4, lr}
 8000f8a:	b082      	sub	sp, #8
 8000f8c:	0004      	movs	r4, r0
    if (pin == NC) {
 8000f8e:	1c43      	adds	r3, r0, #1
 8000f90:	d017      	beq.n	8000fc2 <pinmap_pinout+0x3a>
        return;
    }

    while (map->pin != NC) {
 8000f92:	2200      	movs	r2, #0
 8000f94:	5e8b      	ldrsh	r3, [r1, r2]
 8000f96:	1c5a      	adds	r2, r3, #1
 8000f98:	d00c      	beq.n	8000fb4 <pinmap_pinout+0x2c>
        if (map->pin == pin) {
 8000f9a:	429c      	cmp	r4, r3
 8000f9c:	d001      	beq.n	8000fa2 <pinmap_pinout+0x1a>
            pin_function(pin, map->function);

            pin_mode(pin, PullNone);
            return;
        }
        map++;
 8000f9e:	310c      	adds	r1, #12
 8000fa0:	e7f7      	b.n	8000f92 <pinmap_pinout+0xa>
            pin_function(pin, map->function);
 8000fa2:	6889      	ldr	r1, [r1, #8]
 8000fa4:	0020      	movs	r0, r4
 8000fa6:	f002 facf 	bl	8003548 <pin_function>
            pin_mode(pin, PullNone);
 8000faa:	2100      	movs	r1, #0
 8000fac:	0020      	movs	r0, r4
 8000fae:	f002 fb55 	bl	800365c <pin_mode>
            return;
 8000fb2:	e006      	b.n	8000fc2 <pinmap_pinout+0x3a>
    }
    MBED_ERROR1(MBED_MAKE_ERROR(MBED_MODULE_PLATFORM, MBED_ERROR_CODE_PINMAP_INVALID), "could not pinout", pin);
 8000fb4:	2300      	movs	r3, #0
 8000fb6:	9300      	str	r3, [sp, #0]
 8000fb8:	0022      	movs	r2, r4
 8000fba:	2100      	movs	r1, #0
 8000fbc:	4802      	ldr	r0, [pc, #8]	; (8000fc8 <pinmap_pinout+0x40>)
 8000fbe:	f000 fdab 	bl	8001b18 <mbed_error>
}
 8000fc2:	b002      	add	sp, #8
 8000fc4:	bd10      	pop	{r4, pc}
 8000fc6:	46c0      	nop			; (mov r8, r8)
 8000fc8:	80010130 	.word	0x80010130

08000fcc <pinmap_merge>:

uint32_t pinmap_merge(uint32_t a, uint32_t b)
{
 8000fcc:	b500      	push	{lr}
 8000fce:	b083      	sub	sp, #12
    // both are the same (inc both NC)
    if (a == b) {
 8000fd0:	4288      	cmp	r0, r1
 8000fd2:	d00c      	beq.n	8000fee <pinmap_merge+0x22>
        return a;
    }

    // one (or both) is not connected
    if (a == (uint32_t)NC) {
 8000fd4:	1c43      	adds	r3, r0, #1
 8000fd6:	d00c      	beq.n	8000ff2 <pinmap_merge+0x26>
        return b;
    }
    if (b == (uint32_t)NC) {
 8000fd8:	1c4b      	adds	r3, r1, #1
 8000fda:	d008      	beq.n	8000fee <pinmap_merge+0x22>
        return a;
    }

    // mis-match error case
    MBED_ERROR1(MBED_MAKE_ERROR(MBED_MODULE_PLATFORM, MBED_ERROR_CODE_PINMAP_INVALID), "pinmap mis-match", a);
 8000fdc:	2300      	movs	r3, #0
 8000fde:	9300      	str	r3, [sp, #0]
 8000fe0:	0002      	movs	r2, r0
 8000fe2:	2100      	movs	r1, #0
 8000fe4:	4804      	ldr	r0, [pc, #16]	; (8000ff8 <pinmap_merge+0x2c>)
 8000fe6:	f000 fd97 	bl	8001b18 <mbed_error>
    return (uint32_t)NC;
 8000fea:	2001      	movs	r0, #1
 8000fec:	4240      	negs	r0, r0
}
 8000fee:	b003      	add	sp, #12
 8000ff0:	bd00      	pop	{pc}
        return b;
 8000ff2:	0008      	movs	r0, r1
 8000ff4:	e7fb      	b.n	8000fee <pinmap_merge+0x22>
 8000ff6:	46c0      	nop			; (mov r8, r8)
 8000ff8:	80010130 	.word	0x80010130

08000ffc <pinmap_find_peripheral>:

uint32_t pinmap_find_peripheral(PinName pin, const PinMap *map)
{
    while (map->pin != NC) {
 8000ffc:	2200      	movs	r2, #0
 8000ffe:	5e8b      	ldrsh	r3, [r1, r2]
 8001000:	1c5a      	adds	r2, r3, #1
 8001002:	d005      	beq.n	8001010 <pinmap_find_peripheral+0x14>
        if (map->pin == pin) {
 8001004:	4283      	cmp	r3, r0
 8001006:	d001      	beq.n	800100c <pinmap_find_peripheral+0x10>
            return map->peripheral;
        }
        map++;
 8001008:	310c      	adds	r1, #12
 800100a:	e7f7      	b.n	8000ffc <pinmap_find_peripheral>
            return map->peripheral;
 800100c:	6848      	ldr	r0, [r1, #4]
 800100e:	e001      	b.n	8001014 <pinmap_find_peripheral+0x18>
    }
    return (uint32_t)NC;
 8001010:	2001      	movs	r0, #1
 8001012:	4240      	negs	r0, r0
}
 8001014:	4770      	bx	lr
	...

08001018 <pinmap_peripheral>:

uint32_t pinmap_peripheral(PinName pin, const PinMap *map)
{
 8001018:	b510      	push	{r4, lr}
 800101a:	b082      	sub	sp, #8
    uint32_t peripheral = (uint32_t)NC;

    if (pin == (PinName)NC) {
 800101c:	1c43      	adds	r3, r0, #1
 800101e:	d104      	bne.n	800102a <pinmap_peripheral+0x12>
        return (uint32_t)NC;
 8001020:	2401      	movs	r4, #1
 8001022:	4264      	negs	r4, r4
    peripheral = pinmap_find_peripheral(pin, map);
    if ((uint32_t)NC == peripheral) { // no mapping available
        MBED_ERROR1(MBED_MAKE_ERROR(MBED_MODULE_PLATFORM, MBED_ERROR_CODE_PINMAP_INVALID), "pinmap not found for peripheral", peripheral);
    }
    return peripheral;
}
 8001024:	0020      	movs	r0, r4
 8001026:	b002      	add	sp, #8
 8001028:	bd10      	pop	{r4, pc}
    peripheral = pinmap_find_peripheral(pin, map);
 800102a:	f7ff ffe7 	bl	8000ffc <pinmap_find_peripheral>
 800102e:	0004      	movs	r4, r0
    if ((uint32_t)NC == peripheral) { // no mapping available
 8001030:	1c43      	adds	r3, r0, #1
 8001032:	d1f7      	bne.n	8001024 <pinmap_peripheral+0xc>
        MBED_ERROR1(MBED_MAKE_ERROR(MBED_MODULE_PLATFORM, MBED_ERROR_CODE_PINMAP_INVALID), "pinmap not found for peripheral", peripheral);
 8001034:	2300      	movs	r3, #0
 8001036:	9300      	str	r3, [sp, #0]
 8001038:	0002      	movs	r2, r0
 800103a:	2100      	movs	r1, #0
 800103c:	4801      	ldr	r0, [pc, #4]	; (8001044 <pinmap_peripheral+0x2c>)
 800103e:	f000 fd6b 	bl	8001b18 <mbed_error>
 8001042:	e7ef      	b.n	8001024 <pinmap_peripheral+0xc>
 8001044:	80010130 	.word	0x80010130

08001048 <sleep_manager_lock_deep_sleep_internal>:
}

#endif // MBED_SLEEP_TRACING_ENABLED

void sleep_manager_lock_deep_sleep_internal(void)
{
 8001048:	b500      	push	{lr}
 800104a:	b083      	sub	sp, #12
    core_util_critical_section_enter();
 800104c:	f000 fcc4 	bl	80019d8 <core_util_critical_section_enter>
    if (deep_sleep_lock == USHRT_MAX) {
 8001050:	4b0b      	ldr	r3, [pc, #44]	; (8001080 <sleep_manager_lock_deep_sleep_internal+0x38>)
 8001052:	881a      	ldrh	r2, [r3, #0]
 8001054:	4b0b      	ldr	r3, [pc, #44]	; (8001084 <sleep_manager_lock_deep_sleep_internal+0x3c>)
 8001056:	429a      	cmp	r2, r3
 8001058:	d007      	beq.n	800106a <sleep_manager_lock_deep_sleep_internal+0x22>
        core_util_critical_section_exit();
        MBED_ERROR1(MBED_MAKE_ERROR(MBED_MODULE_HAL, MBED_ERROR_CODE_OVERFLOW), "DeepSleepLock overflow (> USHRT_MAX)", deep_sleep_lock);
    }
    core_util_atomic_incr_u16(&deep_sleep_lock, 1);
 800105a:	2101      	movs	r1, #1
 800105c:	4808      	ldr	r0, [pc, #32]	; (8001080 <sleep_manager_lock_deep_sleep_internal+0x38>)
 800105e:	f000 fcd7 	bl	8001a10 <core_util_atomic_incr_u16>
    core_util_critical_section_exit();
 8001062:	f000 fcc3 	bl	80019ec <core_util_critical_section_exit>
}
 8001066:	b003      	add	sp, #12
 8001068:	bd00      	pop	{pc}
        core_util_critical_section_exit();
 800106a:	f000 fcbf 	bl	80019ec <core_util_critical_section_exit>
        MBED_ERROR1(MBED_MAKE_ERROR(MBED_MODULE_HAL, MBED_ERROR_CODE_OVERFLOW), "DeepSleepLock overflow (> USHRT_MAX)", deep_sleep_lock);
 800106e:	4b04      	ldr	r3, [pc, #16]	; (8001080 <sleep_manager_lock_deep_sleep_internal+0x38>)
 8001070:	881a      	ldrh	r2, [r3, #0]
 8001072:	2300      	movs	r3, #0
 8001074:	9300      	str	r3, [sp, #0]
 8001076:	2100      	movs	r1, #0
 8001078:	4803      	ldr	r0, [pc, #12]	; (8001088 <sleep_manager_lock_deep_sleep_internal+0x40>)
 800107a:	f000 fd4d 	bl	8001b18 <mbed_error>
 800107e:	e7ec      	b.n	800105a <sleep_manager_lock_deep_sleep_internal+0x12>
 8001080:	20000906 	.word	0x20000906
 8001084:	0000ffff 	.word	0x0000ffff
 8001088:	80040123 	.word	0x80040123

0800108c <sleep_manager_unlock_deep_sleep_internal>:

void sleep_manager_unlock_deep_sleep_internal(void)
{
 800108c:	b500      	push	{lr}
 800108e:	b083      	sub	sp, #12
    core_util_critical_section_enter();
 8001090:	f000 fca2 	bl	80019d8 <core_util_critical_section_enter>
    if (deep_sleep_lock == 0) {
 8001094:	4b0b      	ldr	r3, [pc, #44]	; (80010c4 <sleep_manager_unlock_deep_sleep_internal+0x38>)
 8001096:	881b      	ldrh	r3, [r3, #0]
 8001098:	2b00      	cmp	r3, #0
 800109a:	d007      	beq.n	80010ac <sleep_manager_unlock_deep_sleep_internal+0x20>
        core_util_critical_section_exit();
        MBED_ERROR1(MBED_MAKE_ERROR(MBED_MODULE_HAL, MBED_ERROR_CODE_UNDERFLOW), "DeepSleepLock underflow (< 0)", deep_sleep_lock);
    }
    core_util_atomic_decr_u16(&deep_sleep_lock, 1);
 800109c:	2101      	movs	r1, #1
 800109e:	4809      	ldr	r0, [pc, #36]	; (80010c4 <sleep_manager_unlock_deep_sleep_internal+0x38>)
 80010a0:	f000 fcc3 	bl	8001a2a <core_util_atomic_decr_u16>
    core_util_critical_section_exit();
 80010a4:	f000 fca2 	bl	80019ec <core_util_critical_section_exit>
}
 80010a8:	b003      	add	sp, #12
 80010aa:	bd00      	pop	{pc}
        core_util_critical_section_exit();
 80010ac:	f000 fc9e 	bl	80019ec <core_util_critical_section_exit>
        MBED_ERROR1(MBED_MAKE_ERROR(MBED_MODULE_HAL, MBED_ERROR_CODE_UNDERFLOW), "DeepSleepLock underflow (< 0)", deep_sleep_lock);
 80010b0:	4b04      	ldr	r3, [pc, #16]	; (80010c4 <sleep_manager_unlock_deep_sleep_internal+0x38>)
 80010b2:	881a      	ldrh	r2, [r3, #0]
 80010b4:	2300      	movs	r3, #0
 80010b6:	9300      	str	r3, [sp, #0]
 80010b8:	2100      	movs	r1, #0
 80010ba:	4803      	ldr	r0, [pc, #12]	; (80010c8 <sleep_manager_unlock_deep_sleep_internal+0x3c>)
 80010bc:	f000 fd2c 	bl	8001b18 <mbed_error>
 80010c0:	e7ec      	b.n	800109c <sleep_manager_unlock_deep_sleep_internal+0x10>
 80010c2:	46c0      	nop			; (mov r8, r8)
 80010c4:	20000906 	.word	0x20000906
 80010c8:	80040124 	.word	0x80040124

080010cc <set_handler>:
/**
 * Set the event handler function of a ticker instance.
 */
static void set_handler(const ticker_data_t *const ticker, ticker_event_handler handler)
{
    ticker->queue->event_handler = handler;
 80010cc:	6843      	ldr	r3, [r0, #4]
 80010ce:	6019      	str	r1, [r3, #0]
}
 80010d0:	4770      	bx	lr
	...

080010d4 <update_present_time>:

/**
 * Update the present timestamp value of a ticker.
 */
static void update_present_time(const ticker_data_t *const ticker)
{
 80010d4:	b5f0      	push	{r4, r5, r6, r7, lr}
 80010d6:	46c6      	mov	lr, r8
 80010d8:	b500      	push	{lr}
 80010da:	b084      	sub	sp, #16
 80010dc:	0004      	movs	r4, r0
    ticker_event_queue_t *queue = ticker->queue;
 80010de:	6846      	ldr	r6, [r0, #4]
    uint32_t ticker_time = ticker->interface->read();
 80010e0:	6803      	ldr	r3, [r0, #0]
 80010e2:	685b      	ldr	r3, [r3, #4]
 80010e4:	4798      	blx	r3
    if (ticker_time == ticker->queue->tick_last_read) {
 80010e6:	6863      	ldr	r3, [r4, #4]
 80010e8:	6a1b      	ldr	r3, [r3, #32]
 80010ea:	4298      	cmp	r0, r3
 80010ec:	d050      	beq.n	8001190 <update_present_time+0xbc>
        // No work to do
        return;
    }

    uint64_t elapsed_ticks = (ticker_time - queue->tick_last_read) & queue->bitmask;
 80010ee:	6a33      	ldr	r3, [r6, #32]
 80010f0:	1ac3      	subs	r3, r0, r3
 80010f2:	68f2      	ldr	r2, [r6, #12]
 80010f4:	401a      	ands	r2, r3
 80010f6:	0014      	movs	r4, r2
 80010f8:	2500      	movs	r5, #0
    queue->tick_last_read = ticker_time;
 80010fa:	6230      	str	r0, [r6, #32]

    uint64_t elapsed_us;
    if (1000000 == queue->frequency) {
 80010fc:	68b3      	ldr	r3, [r6, #8]
 80010fe:	4698      	mov	r8, r3
 8001100:	4b4a      	ldr	r3, [pc, #296]	; (800122c <update_present_time+0x158>)
 8001102:	4598      	cmp	r8, r3
 8001104:	d03e      	beq.n	8001184 <update_present_time+0xb0>
        // Optimized for 1MHz

        elapsed_us = elapsed_ticks;
    } else if (0 != queue->frequency_shifts) {
 8001106:	233a      	movs	r3, #58	; 0x3a
 8001108:	5cf7      	ldrb	r7, [r6, r3]
 800110a:	2f00      	cmp	r7, #0
 800110c:	d05b      	beq.n	80011c6 <update_present_time+0xf2>
        // Optimized for frequencies divisible by 2
        uint64_t us_x_ticks = elapsed_ticks * 1000000;
 800110e:	4a47      	ldr	r2, [pc, #284]	; (800122c <update_present_time+0x158>)
 8001110:	2300      	movs	r3, #0
 8001112:	0020      	movs	r0, r4
 8001114:	0029      	movs	r1, r5
 8001116:	f7ff f8b5 	bl	8000284 <__aeabi_lmul>
 800111a:	9000      	str	r0, [sp, #0]
 800111c:	9101      	str	r1, [sp, #4]
        elapsed_us = us_x_ticks >> queue->frequency_shifts;
 800111e:	2320      	movs	r3, #32
 8001120:	425b      	negs	r3, r3
 8001122:	18fb      	adds	r3, r7, r3
 8001124:	d438      	bmi.n	8001198 <update_present_time+0xc4>
 8001126:	000a      	movs	r2, r1
 8001128:	40da      	lsrs	r2, r3
 800112a:	0014      	movs	r4, r2
 800112c:	9b01      	ldr	r3, [sp, #4]
 800112e:	40fb      	lsrs	r3, r7
 8001130:	001d      	movs	r5, r3

        // Update remainder
        queue->tick_remainder += us_x_ticks - (elapsed_us << queue->frequency_shifts);
 8001132:	003b      	movs	r3, r7
 8001134:	3b20      	subs	r3, #32
 8001136:	469c      	mov	ip, r3
 8001138:	d43a      	bmi.n	80011b0 <update_present_time+0xdc>
 800113a:	0021      	movs	r1, r4
 800113c:	4660      	mov	r0, ip
 800113e:	4081      	lsls	r1, r0
 8001140:	000b      	movs	r3, r1
 8001142:	0021      	movs	r1, r4
 8001144:	40b9      	lsls	r1, r7
 8001146:	000a      	movs	r2, r1
 8001148:	9800      	ldr	r0, [sp, #0]
 800114a:	9901      	ldr	r1, [sp, #4]
 800114c:	1a80      	subs	r0, r0, r2
 800114e:	4199      	sbcs	r1, r3
 8001150:	6ab2      	ldr	r2, [r6, #40]	; 0x28
 8001152:	6af3      	ldr	r3, [r6, #44]	; 0x2c
 8001154:	1880      	adds	r0, r0, r2
 8001156:	4159      	adcs	r1, r3
 8001158:	9000      	str	r0, [sp, #0]
 800115a:	9101      	str	r1, [sp, #4]
 800115c:	0002      	movs	r2, r0
 800115e:	000b      	movs	r3, r1
 8001160:	62b2      	str	r2, [r6, #40]	; 0x28
 8001162:	62f3      	str	r3, [r6, #44]	; 0x2c
        if (queue->tick_remainder >= queue->frequency) {
 8001164:	4642      	mov	r2, r8
 8001166:	2300      	movs	r3, #0
 8001168:	428b      	cmp	r3, r1
 800116a:	d101      	bne.n	8001170 <update_present_time+0x9c>
 800116c:	4282      	cmp	r2, r0
 800116e:	d809      	bhi.n	8001184 <update_present_time+0xb0>
            elapsed_us += 1;
 8001170:	2001      	movs	r0, #1
 8001172:	2100      	movs	r1, #0
 8001174:	1824      	adds	r4, r4, r0
 8001176:	414d      	adcs	r5, r1
            queue->tick_remainder -= queue->frequency;
 8001178:	9800      	ldr	r0, [sp, #0]
 800117a:	9901      	ldr	r1, [sp, #4]
 800117c:	1a80      	subs	r0, r0, r2
 800117e:	4199      	sbcs	r1, r3
 8001180:	62b0      	str	r0, [r6, #40]	; 0x28
 8001182:	62f1      	str	r1, [r6, #44]	; 0x2c
            queue->tick_remainder -= queue->frequency;
        }
    }

    // Update current time
    queue->present_time += elapsed_us;
 8001184:	6b32      	ldr	r2, [r6, #48]	; 0x30
 8001186:	6b73      	ldr	r3, [r6, #52]	; 0x34
 8001188:	18a4      	adds	r4, r4, r2
 800118a:	415d      	adcs	r5, r3
 800118c:	6334      	str	r4, [r6, #48]	; 0x30
 800118e:	6375      	str	r5, [r6, #52]	; 0x34
}
 8001190:	b004      	add	sp, #16
 8001192:	bc04      	pop	{r2}
 8001194:	4690      	mov	r8, r2
 8001196:	bdf0      	pop	{r4, r5, r6, r7, pc}
        elapsed_us = us_x_ticks >> queue->frequency_shifts;
 8001198:	2320      	movs	r3, #32
 800119a:	1bdb      	subs	r3, r3, r7
 800119c:	9800      	ldr	r0, [sp, #0]
 800119e:	9901      	ldr	r1, [sp, #4]
 80011a0:	000a      	movs	r2, r1
 80011a2:	409a      	lsls	r2, r3
 80011a4:	0013      	movs	r3, r2
 80011a6:	0002      	movs	r2, r0
 80011a8:	40fa      	lsrs	r2, r7
 80011aa:	0014      	movs	r4, r2
 80011ac:	431c      	orrs	r4, r3
 80011ae:	e7bd      	b.n	800112c <update_present_time+0x58>
        queue->tick_remainder += us_x_ticks - (elapsed_us << queue->frequency_shifts);
 80011b0:	2320      	movs	r3, #32
 80011b2:	1bdb      	subs	r3, r3, r7
 80011b4:	0022      	movs	r2, r4
 80011b6:	40da      	lsrs	r2, r3
 80011b8:	4694      	mov	ip, r2
 80011ba:	0029      	movs	r1, r5
 80011bc:	40b9      	lsls	r1, r7
 80011be:	000b      	movs	r3, r1
 80011c0:	4661      	mov	r1, ip
 80011c2:	430b      	orrs	r3, r1
 80011c4:	e7bd      	b.n	8001142 <update_present_time+0x6e>
        uint64_t us_x_ticks = elapsed_ticks * 1000000;
 80011c6:	4a19      	ldr	r2, [pc, #100]	; (800122c <update_present_time+0x158>)
 80011c8:	2300      	movs	r3, #0
 80011ca:	0020      	movs	r0, r4
 80011cc:	0029      	movs	r1, r5
 80011ce:	f7ff f859 	bl	8000284 <__aeabi_lmul>
        elapsed_us = us_x_ticks / queue->frequency;
 80011d2:	4643      	mov	r3, r8
 80011d4:	9300      	str	r3, [sp, #0]
 80011d6:	2300      	movs	r3, #0
 80011d8:	9301      	str	r3, [sp, #4]
 80011da:	9a00      	ldr	r2, [sp, #0]
 80011dc:	9b01      	ldr	r3, [sp, #4]
 80011de:	9002      	str	r0, [sp, #8]
 80011e0:	9103      	str	r1, [sp, #12]
 80011e2:	f7ff f82f 	bl	8000244 <__aeabi_uldivmod>
 80011e6:	0004      	movs	r4, r0
 80011e8:	000d      	movs	r5, r1
        queue->tick_remainder += us_x_ticks - elapsed_us * queue->frequency;
 80011ea:	0002      	movs	r2, r0
 80011ec:	000b      	movs	r3, r1
 80011ee:	9800      	ldr	r0, [sp, #0]
 80011f0:	9901      	ldr	r1, [sp, #4]
 80011f2:	f7ff f847 	bl	8000284 <__aeabi_lmul>
 80011f6:	9a02      	ldr	r2, [sp, #8]
 80011f8:	9b03      	ldr	r3, [sp, #12]
 80011fa:	1a12      	subs	r2, r2, r0
 80011fc:	418b      	sbcs	r3, r1
 80011fe:	6ab0      	ldr	r0, [r6, #40]	; 0x28
 8001200:	6af1      	ldr	r1, [r6, #44]	; 0x2c
 8001202:	1812      	adds	r2, r2, r0
 8001204:	414b      	adcs	r3, r1
 8001206:	62b2      	str	r2, [r6, #40]	; 0x28
 8001208:	62f3      	str	r3, [r6, #44]	; 0x2c
        if (queue->tick_remainder >= queue->frequency) {
 800120a:	9800      	ldr	r0, [sp, #0]
 800120c:	9901      	ldr	r1, [sp, #4]
 800120e:	4299      	cmp	r1, r3
 8001210:	d101      	bne.n	8001216 <update_present_time+0x142>
 8001212:	4290      	cmp	r0, r2
 8001214:	d8b6      	bhi.n	8001184 <update_present_time+0xb0>
            elapsed_us += 1;
 8001216:	2001      	movs	r0, #1
 8001218:	2100      	movs	r1, #0
 800121a:	1824      	adds	r4, r4, r0
 800121c:	414d      	adcs	r5, r1
            queue->tick_remainder -= queue->frequency;
 800121e:	9800      	ldr	r0, [sp, #0]
 8001220:	9901      	ldr	r1, [sp, #4]
 8001222:	1a12      	subs	r2, r2, r0
 8001224:	418b      	sbcs	r3, r1
 8001226:	62b2      	str	r2, [r6, #40]	; 0x28
 8001228:	62f3      	str	r3, [r6, #44]	; 0x2c
 800122a:	e7ab      	b.n	8001184 <update_present_time+0xb0>
 800122c:	000f4240 	.word	0x000f4240

08001230 <compute_tick>:

/**
 * Given the absolute timestamp compute the hal tick timestamp.
 */
static timestamp_t compute_tick(const ticker_data_t *const ticker, us_timestamp_t timestamp)
{
 8001230:	b570      	push	{r4, r5, r6, lr}
    ticker_event_queue_t *queue = ticker->queue;
 8001232:	6844      	ldr	r4, [r0, #4]
    us_timestamp_t delta_us = timestamp - queue->present_time;
 8001234:	6b20      	ldr	r0, [r4, #48]	; 0x30
 8001236:	6b61      	ldr	r1, [r4, #52]	; 0x34
 8001238:	1a12      	subs	r2, r2, r0
 800123a:	418b      	sbcs	r3, r1
 800123c:	0010      	movs	r0, r2
 800123e:	0019      	movs	r1, r3

    timestamp_t delta = ticker->queue->max_delta;
 8001240:	6925      	ldr	r5, [r4, #16]
    if (delta_us <=  ticker->queue->max_delta_us) {
 8001242:	69a2      	ldr	r2, [r4, #24]
 8001244:	69e3      	ldr	r3, [r4, #28]
 8001246:	4299      	cmp	r1, r3
 8001248:	d831      	bhi.n	80012ae <compute_tick+0x7e>
 800124a:	d017      	beq.n	800127c <compute_tick+0x4c>
        // Checking max_delta_us ensures the operation will not overflow

        if (1000000 == queue->frequency) {
 800124c:	68a2      	ldr	r2, [r4, #8]
 800124e:	4b1c      	ldr	r3, [pc, #112]	; (80012c0 <compute_tick+0x90>)
 8001250:	429a      	cmp	r2, r3
 8001252:	d016      	beq.n	8001282 <compute_tick+0x52>

            delta = delta_us;
            if (delta > ticker->queue->max_delta) {
                delta = ticker->queue->max_delta;
            }
        } else if (0 != queue->frequency_shifts) {
 8001254:	233a      	movs	r3, #58	; 0x3a
 8001256:	5ce3      	ldrb	r3, [r4, r3]
 8001258:	2b00      	cmp	r3, #0
 800125a:	d01f      	beq.n	800129c <compute_tick+0x6c>
            // Optimized frequencies divisible by 2

            delta = (delta_us << ticker->queue->frequency_shifts) / 1000000;
 800125c:	2220      	movs	r2, #32
 800125e:	4252      	negs	r2, r2
 8001260:	189a      	adds	r2, r3, r2
 8001262:	d412      	bmi.n	800128a <compute_tick+0x5a>
 8001264:	0006      	movs	r6, r0
 8001266:	4096      	lsls	r6, r2
 8001268:	4098      	lsls	r0, r3
 800126a:	4a15      	ldr	r2, [pc, #84]	; (80012c0 <compute_tick+0x90>)
 800126c:	2300      	movs	r3, #0
 800126e:	0031      	movs	r1, r6
 8001270:	f7fe ffe8 	bl	8000244 <__aeabi_uldivmod>
            if (delta > ticker->queue->max_delta) {
 8001274:	4285      	cmp	r5, r0
 8001276:	d31a      	bcc.n	80012ae <compute_tick+0x7e>
            delta = (delta_us << ticker->queue->frequency_shifts) / 1000000;
 8001278:	0005      	movs	r5, r0
 800127a:	e018      	b.n	80012ae <compute_tick+0x7e>
    if (delta_us <=  ticker->queue->max_delta_us) {
 800127c:	4290      	cmp	r0, r2
 800127e:	d9e5      	bls.n	800124c <compute_tick+0x1c>
 8001280:	e015      	b.n	80012ae <compute_tick+0x7e>
            if (delta > ticker->queue->max_delta) {
 8001282:	4285      	cmp	r5, r0
 8001284:	d313      	bcc.n	80012ae <compute_tick+0x7e>
            delta = delta_us;
 8001286:	0005      	movs	r5, r0
 8001288:	e011      	b.n	80012ae <compute_tick+0x7e>
            delta = (delta_us << ticker->queue->frequency_shifts) / 1000000;
 800128a:	2220      	movs	r2, #32
 800128c:	1ad2      	subs	r2, r2, r3
 800128e:	0006      	movs	r6, r0
 8001290:	40d6      	lsrs	r6, r2
 8001292:	0032      	movs	r2, r6
 8001294:	000e      	movs	r6, r1
 8001296:	409e      	lsls	r6, r3
 8001298:	4316      	orrs	r6, r2
 800129a:	e7e5      	b.n	8001268 <compute_tick+0x38>
                delta = ticker->queue->max_delta;
            }
        } else {
            // General case

            delta = delta_us * queue->frequency / 1000000;
 800129c:	2300      	movs	r3, #0
 800129e:	f7fe fff1 	bl	8000284 <__aeabi_lmul>
 80012a2:	4a07      	ldr	r2, [pc, #28]	; (80012c0 <compute_tick+0x90>)
 80012a4:	2300      	movs	r3, #0
 80012a6:	f7fe ffcd 	bl	8000244 <__aeabi_uldivmod>
            if (delta > ticker->queue->max_delta) {
 80012aa:	4285      	cmp	r5, r0
 80012ac:	d205      	bcs.n	80012ba <compute_tick+0x8a>
                delta = ticker->queue->max_delta;
            }
        }
    }
    return (queue->tick_last_read + delta) & queue->bitmask;
 80012ae:	6a23      	ldr	r3, [r4, #32]
 80012b0:	469c      	mov	ip, r3
 80012b2:	4465      	add	r5, ip
 80012b4:	68e0      	ldr	r0, [r4, #12]
 80012b6:	4028      	ands	r0, r5
}
 80012b8:	bd70      	pop	{r4, r5, r6, pc}
            delta = delta_us * queue->frequency / 1000000;
 80012ba:	0005      	movs	r5, r0
 80012bc:	e7f7      	b.n	80012ae <compute_tick+0x7e>
 80012be:	46c0      	nop			; (mov r8, r8)
 80012c0:	000f4240 	.word	0x000f4240

080012c4 <_ticker_match_interval_passed>:
/**
 * Return 1 if the tick has incremented to or past match_tick, otherwise 0.
 */
int _ticker_match_interval_passed(timestamp_t prev_tick, timestamp_t cur_tick, timestamp_t match_tick)
{
    if (match_tick > prev_tick) {
 80012c4:	4282      	cmp	r2, r0
 80012c6:	d905      	bls.n	80012d4 <_ticker_match_interval_passed+0x10>
        return (cur_tick >= match_tick) || (cur_tick < prev_tick);
 80012c8:	428a      	cmp	r2, r1
 80012ca:	d909      	bls.n	80012e0 <_ticker_match_interval_passed+0x1c>
 80012cc:	4288      	cmp	r0, r1
 80012ce:	d909      	bls.n	80012e4 <_ticker_match_interval_passed+0x20>
 80012d0:	2001      	movs	r0, #1
 80012d2:	e00a      	b.n	80012ea <_ticker_match_interval_passed+0x26>
    } else {
        return (cur_tick < prev_tick) && (cur_tick >= match_tick);
 80012d4:	4288      	cmp	r0, r1
 80012d6:	d907      	bls.n	80012e8 <_ticker_match_interval_passed+0x24>
 80012d8:	428a      	cmp	r2, r1
 80012da:	d907      	bls.n	80012ec <_ticker_match_interval_passed+0x28>
 80012dc:	2000      	movs	r0, #0
 80012de:	e004      	b.n	80012ea <_ticker_match_interval_passed+0x26>
        return (cur_tick >= match_tick) || (cur_tick < prev_tick);
 80012e0:	2001      	movs	r0, #1
 80012e2:	e002      	b.n	80012ea <_ticker_match_interval_passed+0x26>
 80012e4:	2000      	movs	r0, #0
 80012e6:	e000      	b.n	80012ea <_ticker_match_interval_passed+0x26>
        return (cur_tick < prev_tick) && (cur_tick >= match_tick);
 80012e8:	2000      	movs	r0, #0
    }
}
 80012ea:	4770      	bx	lr
        return (cur_tick < prev_tick) && (cur_tick >= match_tick);
 80012ec:	2001      	movs	r0, #1
 80012ee:	e7fc      	b.n	80012ea <_ticker_match_interval_passed+0x26>

080012f0 <schedule_interrupt>:
 * @note If there is no event in the queue then the interrupt is scheduled to
 * in ticker.queue.max_delta. This is necessary to keep track
 * of the timer overflow.
 */
static void schedule_interrupt(const ticker_data_t *const ticker)
{
 80012f0:	b570      	push	{r4, r5, r6, lr}
 80012f2:	0004      	movs	r4, r0
    ticker_event_queue_t *queue = ticker->queue;
 80012f4:	6845      	ldr	r5, [r0, #4]
    if (ticker->queue->dispatching) {
 80012f6:	2339      	movs	r3, #57	; 0x39
 80012f8:	5ceb      	ldrb	r3, [r5, r3]
 80012fa:	2b00      	cmp	r3, #0
 80012fc:	d000      	beq.n	8001300 <schedule_interrupt+0x10>
    } else {
        uint32_t match_tick =
            (queue->tick_last_read + queue->max_delta) & queue->bitmask;
        ticker->interface->set_interrupt(match_tick);
    }
}
 80012fe:	bd70      	pop	{r4, r5, r6, pc}
    update_present_time(ticker);
 8001300:	f7ff fee8 	bl	80010d4 <update_present_time>
    if (ticker->queue->head) {
 8001304:	6862      	ldr	r2, [r4, #4]
 8001306:	6853      	ldr	r3, [r2, #4]
 8001308:	2b00      	cmp	r3, #0
 800130a:	d029      	beq.n	8001360 <schedule_interrupt+0x70>
        us_timestamp_t present = ticker->queue->present_time;
 800130c:	6b10      	ldr	r0, [r2, #48]	; 0x30
 800130e:	6b51      	ldr	r1, [r2, #52]	; 0x34
        us_timestamp_t match_time = ticker->queue->head->timestamp;
 8001310:	681a      	ldr	r2, [r3, #0]
 8001312:	685b      	ldr	r3, [r3, #4]
        if (match_time <= present) {
 8001314:	428b      	cmp	r3, r1
 8001316:	d917      	bls.n	8001348 <schedule_interrupt+0x58>
        timestamp_t match_tick = compute_tick(ticker, match_time);
 8001318:	0020      	movs	r0, r4
 800131a:	f7ff ff89 	bl	8001230 <compute_tick>
 800131e:	0006      	movs	r6, r0
        if (match_tick == queue->tick_last_read) {
 8001320:	6a2b      	ldr	r3, [r5, #32]
 8001322:	4298      	cmp	r0, r3
 8001324:	d018      	beq.n	8001358 <schedule_interrupt+0x68>
        ticker->interface->set_interrupt(match_tick);
 8001326:	6823      	ldr	r3, [r4, #0]
 8001328:	691b      	ldr	r3, [r3, #16]
 800132a:	4798      	blx	r3
        timestamp_t cur_tick = ticker->interface->read();
 800132c:	6823      	ldr	r3, [r4, #0]
 800132e:	685b      	ldr	r3, [r3, #4]
 8001330:	4798      	blx	r3
 8001332:	0001      	movs	r1, r0
        if (_ticker_match_interval_passed(queue->tick_last_read, cur_tick, match_tick)) {
 8001334:	6a28      	ldr	r0, [r5, #32]
 8001336:	0032      	movs	r2, r6
 8001338:	f7ff ffc4 	bl	80012c4 <_ticker_match_interval_passed>
 800133c:	2800      	cmp	r0, #0
 800133e:	d0de      	beq.n	80012fe <schedule_interrupt+0xe>
            ticker->interface->fire_interrupt();
 8001340:	6823      	ldr	r3, [r4, #0]
 8001342:	695b      	ldr	r3, [r3, #20]
 8001344:	4798      	blx	r3
 8001346:	e7da      	b.n	80012fe <schedule_interrupt+0xe>
        if (match_time <= present) {
 8001348:	428b      	cmp	r3, r1
 800134a:	d101      	bne.n	8001350 <schedule_interrupt+0x60>
 800134c:	4282      	cmp	r2, r0
 800134e:	d8e3      	bhi.n	8001318 <schedule_interrupt+0x28>
            ticker->interface->fire_interrupt();
 8001350:	6823      	ldr	r3, [r4, #0]
 8001352:	695b      	ldr	r3, [r3, #20]
 8001354:	4798      	blx	r3
            return;
 8001356:	e7d2      	b.n	80012fe <schedule_interrupt+0xe>
            ticker->interface->fire_interrupt();
 8001358:	6823      	ldr	r3, [r4, #0]
 800135a:	695b      	ldr	r3, [r3, #20]
 800135c:	4798      	blx	r3
            return;
 800135e:	e7ce      	b.n	80012fe <schedule_interrupt+0xe>
            (queue->tick_last_read + queue->max_delta) & queue->bitmask;
 8001360:	6a2b      	ldr	r3, [r5, #32]
 8001362:	692a      	ldr	r2, [r5, #16]
 8001364:	4694      	mov	ip, r2
 8001366:	4463      	add	r3, ip
 8001368:	68e8      	ldr	r0, [r5, #12]
        uint32_t match_tick =
 800136a:	4018      	ands	r0, r3
        ticker->interface->set_interrupt(match_tick);
 800136c:	6823      	ldr	r3, [r4, #0]
 800136e:	691b      	ldr	r3, [r3, #16]
 8001370:	4798      	blx	r3
 8001372:	e7c4      	b.n	80012fe <schedule_interrupt+0xe>

08001374 <initialize>:
{
 8001374:	b5f0      	push	{r4, r5, r6, r7, lr}
 8001376:	46ce      	mov	lr, r9
 8001378:	4647      	mov	r7, r8
 800137a:	b580      	push	{r7, lr}
 800137c:	b083      	sub	sp, #12
 800137e:	0005      	movs	r5, r0
    if (ticker->queue->initialized) {
 8001380:	2338      	movs	r3, #56	; 0x38
 8001382:	6842      	ldr	r2, [r0, #4]
 8001384:	5cd3      	ldrb	r3, [r2, r3]
 8001386:	2b00      	cmp	r3, #0
 8001388:	d004      	beq.n	8001394 <initialize+0x20>
}
 800138a:	b003      	add	sp, #12
 800138c:	bc0c      	pop	{r2, r3}
 800138e:	4690      	mov	r8, r2
 8001390:	4699      	mov	r9, r3
 8001392:	bdf0      	pop	{r4, r5, r6, r7, pc}
    ticker->interface->init();
 8001394:	6803      	ldr	r3, [r0, #0]
 8001396:	681b      	ldr	r3, [r3, #0]
 8001398:	4798      	blx	r3
    const ticker_info_t *info = ticker->interface->get_info();
 800139a:	682b      	ldr	r3, [r5, #0]
 800139c:	699b      	ldr	r3, [r3, #24]
 800139e:	4798      	blx	r3
    uint32_t frequency = info->frequency;
 80013a0:	6806      	ldr	r6, [r0, #0]
    if (info->frequency == 0) {
 80013a2:	2e00      	cmp	r6, #0
 80013a4:	d100      	bne.n	80013a8 <initialize+0x34>
        frequency = 1000000;
 80013a6:	4e32      	ldr	r6, [pc, #200]	; (8001470 <initialize+0xfc>)
    for (uint8_t i = 31; i > 0; --i) {
 80013a8:	241f      	movs	r4, #31
 80013aa:	2c00      	cmp	r4, #0
 80013ac:	d006      	beq.n	80013bc <initialize+0x48>
        if ((1 << i) == frequency) {
 80013ae:	2301      	movs	r3, #1
 80013b0:	40a3      	lsls	r3, r4
 80013b2:	429e      	cmp	r6, r3
 80013b4:	d002      	beq.n	80013bc <initialize+0x48>
    for (uint8_t i = 31; i > 0; --i) {
 80013b6:	3c01      	subs	r4, #1
 80013b8:	b2e4      	uxtb	r4, r4
 80013ba:	e7f6      	b.n	80013aa <initialize+0x36>
    uint32_t bits = info->bits;
 80013bc:	6847      	ldr	r7, [r0, #4]
    if ((info->bits > 32) || (info->bits < 4)) {
 80013be:	1f3b      	subs	r3, r7, #4
 80013c0:	2b1c      	cmp	r3, #28
 80013c2:	d900      	bls.n	80013c6 <initialize+0x52>
        bits = 32;
 80013c4:	2720      	movs	r7, #32
    uint32_t max_delta = 0x7 << (bits - 4); // 7/16th
 80013c6:	1f3b      	subs	r3, r7, #4
 80013c8:	2207      	movs	r2, #7
 80013ca:	409a      	lsls	r2, r3
 80013cc:	4691      	mov	r9, r2
        ((uint64_t)max_delta * 1000000 + frequency - 1) / frequency;
 80013ce:	2300      	movs	r3, #0
 80013d0:	4698      	mov	r8, r3
 80013d2:	4a27      	ldr	r2, [pc, #156]	; (8001470 <initialize+0xfc>)
 80013d4:	2300      	movs	r3, #0
 80013d6:	4648      	mov	r0, r9
 80013d8:	2100      	movs	r1, #0
 80013da:	f7fe ff53 	bl	8000284 <__aeabi_lmul>
 80013de:	9600      	str	r6, [sp, #0]
 80013e0:	2300      	movs	r3, #0
 80013e2:	9301      	str	r3, [sp, #4]
 80013e4:	9a00      	ldr	r2, [sp, #0]
 80013e6:	9b01      	ldr	r3, [sp, #4]
 80013e8:	1880      	adds	r0, r0, r2
 80013ea:	4159      	adcs	r1, r3
 80013ec:	2201      	movs	r2, #1
 80013ee:	4252      	negs	r2, r2
 80013f0:	17d3      	asrs	r3, r2, #31
 80013f2:	1880      	adds	r0, r0, r2
 80013f4:	4159      	adcs	r1, r3
    uint64_t max_delta_us =
 80013f6:	9a00      	ldr	r2, [sp, #0]
 80013f8:	9b01      	ldr	r3, [sp, #4]
 80013fa:	f7fe ff23 	bl	8000244 <__aeabi_uldivmod>
 80013fe:	9000      	str	r0, [sp, #0]
 8001400:	9101      	str	r1, [sp, #4]
    ticker->queue->event_handler = NULL;
 8001402:	686b      	ldr	r3, [r5, #4]
 8001404:	4642      	mov	r2, r8
 8001406:	601a      	str	r2, [r3, #0]
    ticker->queue->head = NULL;
 8001408:	686b      	ldr	r3, [r5, #4]
 800140a:	605a      	str	r2, [r3, #4]
    ticker->queue->tick_last_read = ticker->interface->read();
 800140c:	686b      	ldr	r3, [r5, #4]
 800140e:	4698      	mov	r8, r3
 8001410:	682b      	ldr	r3, [r5, #0]
 8001412:	685b      	ldr	r3, [r3, #4]
 8001414:	4798      	blx	r3
 8001416:	4643      	mov	r3, r8
 8001418:	6218      	str	r0, [r3, #32]
    ticker->queue->tick_remainder = 0;
 800141a:	686b      	ldr	r3, [r5, #4]
 800141c:	2000      	movs	r0, #0
 800141e:	2100      	movs	r1, #0
 8001420:	6298      	str	r0, [r3, #40]	; 0x28
 8001422:	62d9      	str	r1, [r3, #44]	; 0x2c
    ticker->queue->frequency = frequency;
 8001424:	686b      	ldr	r3, [r5, #4]
 8001426:	609e      	str	r6, [r3, #8]
    ticker->queue->frequency_shifts = frequency_shifts;
 8001428:	233a      	movs	r3, #58	; 0x3a
 800142a:	686a      	ldr	r2, [r5, #4]
 800142c:	54d4      	strb	r4, [r2, r3]
    ticker->queue->bitmask = ((uint64_t)1 << bits) - 1;
 800142e:	6869      	ldr	r1, [r5, #4]
 8001430:	2201      	movs	r2, #1
 8001432:	0013      	movs	r3, r2
 8001434:	40bb      	lsls	r3, r7
 8001436:	3b01      	subs	r3, #1
 8001438:	60cb      	str	r3, [r1, #12]
    ticker->queue->max_delta = max_delta;
 800143a:	686b      	ldr	r3, [r5, #4]
 800143c:	4649      	mov	r1, r9
 800143e:	6119      	str	r1, [r3, #16]
    ticker->queue->max_delta_us = max_delta_us;
 8001440:	686b      	ldr	r3, [r5, #4]
 8001442:	9800      	ldr	r0, [sp, #0]
 8001444:	9901      	ldr	r1, [sp, #4]
 8001446:	6198      	str	r0, [r3, #24]
 8001448:	61d9      	str	r1, [r3, #28]
    ticker->queue->present_time = 0;
 800144a:	686b      	ldr	r3, [r5, #4]
 800144c:	2000      	movs	r0, #0
 800144e:	2100      	movs	r1, #0
 8001450:	6318      	str	r0, [r3, #48]	; 0x30
 8001452:	6359      	str	r1, [r3, #52]	; 0x34
    ticker->queue->dispatching = false;
 8001454:	2100      	movs	r1, #0
 8001456:	2339      	movs	r3, #57	; 0x39
 8001458:	6868      	ldr	r0, [r5, #4]
 800145a:	54c1      	strb	r1, [r0, r3]
    ticker->queue->initialized = true;
 800145c:	3b01      	subs	r3, #1
 800145e:	6869      	ldr	r1, [r5, #4]
 8001460:	54ca      	strb	r2, [r1, r3]
    update_present_time(ticker);
 8001462:	0028      	movs	r0, r5
 8001464:	f7ff fe36 	bl	80010d4 <update_present_time>
    schedule_interrupt(ticker);
 8001468:	0028      	movs	r0, r5
 800146a:	f7ff ff41 	bl	80012f0 <schedule_interrupt>
 800146e:	e78c      	b.n	800138a <initialize+0x16>
 8001470:	000f4240 	.word	0x000f4240

08001474 <ticker_set_handler>:

void ticker_set_handler(const ticker_data_t *const ticker, ticker_event_handler handler)
{
 8001474:	b570      	push	{r4, r5, r6, lr}
 8001476:	0004      	movs	r4, r0
 8001478:	000d      	movs	r5, r1
    initialize(ticker);
 800147a:	f7ff ff7b 	bl	8001374 <initialize>

    core_util_critical_section_enter();
 800147e:	f000 faab 	bl	80019d8 <core_util_critical_section_enter>
    set_handler(ticker, handler);
 8001482:	0029      	movs	r1, r5
 8001484:	0020      	movs	r0, r4
 8001486:	f7ff fe21 	bl	80010cc <set_handler>
    core_util_critical_section_exit();
 800148a:	f000 faaf 	bl	80019ec <core_util_critical_section_exit>
}
 800148e:	bd70      	pop	{r4, r5, r6, pc}

08001490 <ticker_irq_handler>:

void ticker_irq_handler(const ticker_data_t *const ticker)
{
 8001490:	b570      	push	{r4, r5, r6, lr}
 8001492:	0004      	movs	r4, r0
    core_util_critical_section_enter();
 8001494:	f000 faa0 	bl	80019d8 <core_util_critical_section_enter>

    ticker->interface->clear_interrupt();
 8001498:	6823      	ldr	r3, [r4, #0]
 800149a:	68db      	ldr	r3, [r3, #12]
 800149c:	4798      	blx	r3

    /* Go through all the pending TimerEvents */
    ticker->queue->dispatching = true;
 800149e:	2201      	movs	r2, #1
 80014a0:	2339      	movs	r3, #57	; 0x39
 80014a2:	6861      	ldr	r1, [r4, #4]
 80014a4:	54ca      	strb	r2, [r1, r3]
    while (1) {
        if (ticker->queue->head == NULL) {
 80014a6:	6863      	ldr	r3, [r4, #4]
 80014a8:	685b      	ldr	r3, [r3, #4]
 80014aa:	2b00      	cmp	r3, #0
 80014ac:	d016      	beq.n	80014dc <ticker_irq_handler+0x4c>
            break;
        }

        // update the current timestamp used by the queue
        update_present_time(ticker);
 80014ae:	0020      	movs	r0, r4
 80014b0:	f7ff fe10 	bl	80010d4 <update_present_time>

        if (ticker->queue->head->timestamp <= ticker->queue->present_time) {
 80014b4:	6863      	ldr	r3, [r4, #4]
 80014b6:	685a      	ldr	r2, [r3, #4]
 80014b8:	6816      	ldr	r6, [r2, #0]
 80014ba:	6850      	ldr	r0, [r2, #4]
 80014bc:	6b1d      	ldr	r5, [r3, #48]	; 0x30
 80014be:	6b59      	ldr	r1, [r3, #52]	; 0x34
 80014c0:	4288      	cmp	r0, r1
 80014c2:	d80b      	bhi.n	80014dc <ticker_irq_handler+0x4c>
 80014c4:	d008      	beq.n	80014d8 <ticker_irq_handler+0x48>
            // This event was in the past:
            //      point to the following one and execute its handler
            ticker_event_t *p = ticker->queue->head;
            ticker->queue->head = ticker->queue->head->next;
 80014c6:	68d1      	ldr	r1, [r2, #12]
 80014c8:	6059      	str	r1, [r3, #4]
            if (ticker->queue->event_handler != NULL) {
 80014ca:	6863      	ldr	r3, [r4, #4]
 80014cc:	681b      	ldr	r3, [r3, #0]
 80014ce:	2b00      	cmp	r3, #0
 80014d0:	d0e9      	beq.n	80014a6 <ticker_irq_handler+0x16>
                (*ticker->queue->event_handler)(p->id); // NOTE: the handler can set new events
 80014d2:	6890      	ldr	r0, [r2, #8]
 80014d4:	4798      	blx	r3
 80014d6:	e7e6      	b.n	80014a6 <ticker_irq_handler+0x16>
        if (ticker->queue->head->timestamp <= ticker->queue->present_time) {
 80014d8:	42ae      	cmp	r6, r5
 80014da:	d9f4      	bls.n	80014c6 <ticker_irq_handler+0x36>
             * event handler may have altered the chain of pending events. */
        } else {
            break;
        }
    }
    ticker->queue->dispatching = false;
 80014dc:	2200      	movs	r2, #0
 80014de:	2339      	movs	r3, #57	; 0x39
 80014e0:	6861      	ldr	r1, [r4, #4]
 80014e2:	54ca      	strb	r2, [r1, r3]

    schedule_interrupt(ticker);
 80014e4:	0020      	movs	r0, r4
 80014e6:	f7ff ff03 	bl	80012f0 <schedule_interrupt>

    core_util_critical_section_exit();
 80014ea:	f000 fa7f 	bl	80019ec <core_util_critical_section_exit>
}
 80014ee:	bd70      	pop	{r4, r5, r6, pc}

080014f0 <ticker_insert_event_us>:

    core_util_critical_section_exit();
}

void ticker_insert_event_us(const ticker_data_t *const ticker, ticker_event_t *obj, us_timestamp_t timestamp, uint32_t id)
{
 80014f0:	b5f8      	push	{r3, r4, r5, r6, r7, lr}
 80014f2:	0006      	movs	r6, r0
 80014f4:	000d      	movs	r5, r1
 80014f6:	0017      	movs	r7, r2
 80014f8:	001c      	movs	r4, r3
    core_util_critical_section_enter();
 80014fa:	f000 fa6d 	bl	80019d8 <core_util_critical_section_enter>

    // update the current timestamp
    update_present_time(ticker);
 80014fe:	0030      	movs	r0, r6
 8001500:	f7ff fde8 	bl	80010d4 <update_present_time>

    // initialise our data
    obj->timestamp = timestamp;
 8001504:	602f      	str	r7, [r5, #0]
 8001506:	606c      	str	r4, [r5, #4]
    obj->id = id;
 8001508:	9b06      	ldr	r3, [sp, #24]
 800150a:	60ab      	str	r3, [r5, #8]

    /* Go through the list until we either reach the end, or find
       an element this should come before (which is possibly the
       head). */
    ticker_event_t *prev = NULL, *p = ticker->queue->head;
 800150c:	6873      	ldr	r3, [r6, #4]
 800150e:	685b      	ldr	r3, [r3, #4]
 8001510:	2100      	movs	r1, #0
    while (p != NULL) {
 8001512:	e001      	b.n	8001518 <ticker_insert_event_us+0x28>
        /* check if we come before p */
        if (timestamp < p->timestamp) {
            break;
        }
        /* go to the next element */
        prev = p;
 8001514:	0019      	movs	r1, r3
        p = p->next;
 8001516:	68db      	ldr	r3, [r3, #12]
    while (p != NULL) {
 8001518:	2b00      	cmp	r3, #0
 800151a:	d006      	beq.n	800152a <ticker_insert_event_us+0x3a>
        if (timestamp < p->timestamp) {
 800151c:	6818      	ldr	r0, [r3, #0]
 800151e:	685a      	ldr	r2, [r3, #4]
 8001520:	42a2      	cmp	r2, r4
 8001522:	d802      	bhi.n	800152a <ticker_insert_event_us+0x3a>
 8001524:	d1f6      	bne.n	8001514 <ticker_insert_event_us+0x24>
 8001526:	42b8      	cmp	r0, r7
 8001528:	d9f4      	bls.n	8001514 <ticker_insert_event_us+0x24>
    }

    /* if we're at the end p will be NULL, which is correct */
    obj->next = p;
 800152a:	60eb      	str	r3, [r5, #12]

    /* if prev is NULL we're at the head */
    if (prev == NULL) {
 800152c:	2900      	cmp	r1, #0
 800152e:	d003      	beq.n	8001538 <ticker_insert_event_us+0x48>
        ticker->queue->head = obj;
        schedule_interrupt(ticker);
    } else {
        prev->next = obj;
 8001530:	60cd      	str	r5, [r1, #12]
    }

    core_util_critical_section_exit();
 8001532:	f000 fa5b 	bl	80019ec <core_util_critical_section_exit>
}
 8001536:	bdf8      	pop	{r3, r4, r5, r6, r7, pc}
        ticker->queue->head = obj;
 8001538:	6873      	ldr	r3, [r6, #4]
 800153a:	605d      	str	r5, [r3, #4]
        schedule_interrupt(ticker);
 800153c:	0030      	movs	r0, r6
 800153e:	f7ff fed7 	bl	80012f0 <schedule_interrupt>
 8001542:	e7f6      	b.n	8001532 <ticker_insert_event_us+0x42>

08001544 <ticker_remove_event>:

void ticker_remove_event(const ticker_data_t *const ticker, ticker_event_t *obj)
{
 8001544:	b570      	push	{r4, r5, r6, lr}
 8001546:	0005      	movs	r5, r0
 8001548:	000c      	movs	r4, r1
    core_util_critical_section_enter();
 800154a:	f000 fa45 	bl	80019d8 <core_util_critical_section_enter>

    // remove this object from the list
    if (ticker->queue->head == obj) {
 800154e:	686a      	ldr	r2, [r5, #4]
 8001550:	6853      	ldr	r3, [r2, #4]
 8001552:	42a3      	cmp	r3, r4
 8001554:	d006      	beq.n	8001564 <ticker_remove_event+0x20>
        ticker->queue->head = obj->next;
        schedule_interrupt(ticker);
    } else {
        // find the object before me, then drop me
        ticker_event_t *p = ticker->queue->head;
        while (p != NULL) {
 8001556:	2b00      	cmp	r3, #0
 8001558:	d00c      	beq.n	8001574 <ticker_remove_event+0x30>
            if (p->next == obj) {
 800155a:	68da      	ldr	r2, [r3, #12]
 800155c:	4294      	cmp	r4, r2
 800155e:	d007      	beq.n	8001570 <ticker_remove_event+0x2c>
                p->next = obj->next;
                break;
            }
            p = p->next;
 8001560:	0013      	movs	r3, r2
 8001562:	e7f8      	b.n	8001556 <ticker_remove_event+0x12>
        ticker->queue->head = obj->next;
 8001564:	68e3      	ldr	r3, [r4, #12]
 8001566:	6053      	str	r3, [r2, #4]
        schedule_interrupt(ticker);
 8001568:	0028      	movs	r0, r5
 800156a:	f7ff fec1 	bl	80012f0 <schedule_interrupt>
 800156e:	e001      	b.n	8001574 <ticker_remove_event+0x30>
                p->next = obj->next;
 8001570:	68e2      	ldr	r2, [r4, #12]
 8001572:	60da      	str	r2, [r3, #12]
        }
    }

    core_util_critical_section_exit();
 8001574:	f000 fa3a 	bl	80019ec <core_util_critical_section_exit>
}
 8001578:	bd70      	pop	{r4, r5, r6, pc}

0800157a <ticker_read_us>:
{
    return ticker_read_us(ticker);
}

us_timestamp_t ticker_read_us(const ticker_data_t *const ticker)
{
 800157a:	b510      	push	{r4, lr}
 800157c:	0004      	movs	r4, r0
    initialize(ticker);
 800157e:	f7ff fef9 	bl	8001374 <initialize>

    core_util_critical_section_enter();
 8001582:	f000 fa29 	bl	80019d8 <core_util_critical_section_enter>
    update_present_time(ticker);
 8001586:	0020      	movs	r0, r4
 8001588:	f7ff fda4 	bl	80010d4 <update_present_time>
    core_util_critical_section_exit();
 800158c:	f000 fa2e 	bl	80019ec <core_util_critical_section_exit>

    return ticker->queue->present_time;
 8001590:	6863      	ldr	r3, [r4, #4]
 8001592:	6b18      	ldr	r0, [r3, #48]	; 0x30
 8001594:	6b59      	ldr	r1, [r3, #52]	; 0x34
}
 8001596:	bd10      	pop	{r4, pc}

08001598 <ticker_read>:
{
 8001598:	b510      	push	{r4, lr}
    return ticker_read_us(ticker);
 800159a:	f7ff ffee 	bl	800157a <ticker_read_us>
}
 800159e:	bd10      	pop	{r4, pc}

080015a0 <get_us_ticker_data>:
};

const ticker_data_t *get_us_ticker_data(void)
{
    return &us_data;
}
 80015a0:	4800      	ldr	r0, [pc, #0]	; (80015a4 <get_us_ticker_data+0x4>)
 80015a2:	4770      	bx	lr
 80015a4:	080056e8 	.word	0x080056e8

080015a8 <us_ticker_irq_handler>:

    return prev_irq_handler;
}

void us_ticker_irq_handler(void)
{
 80015a8:	b510      	push	{r4, lr}
    if (irq_handler) {
 80015aa:	4b03      	ldr	r3, [pc, #12]	; (80015b8 <us_ticker_irq_handler+0x10>)
 80015ac:	681b      	ldr	r3, [r3, #0]
 80015ae:	2b00      	cmp	r3, #0
 80015b0:	d001      	beq.n	80015b6 <us_ticker_irq_handler+0xe>
        irq_handler(&us_data);
 80015b2:	4802      	ldr	r0, [pc, #8]	; (80015bc <us_ticker_irq_handler+0x14>)
 80015b4:	4798      	blx	r3
    }
}
 80015b6:	bd10      	pop	{r4, pc}
 80015b8:	200000c4 	.word	0x200000c4
 80015bc:	080056e8 	.word	0x080056e8

080015c0 <_ZN4mbed8FileBaseC1EPKcNS_8PathTypeE>:
FileBase *FileBase::_head = NULL;
SingletonPtr<PlatformMutex> FileBase::_mutex;

FileBase::FileBase(const char *name, PathType t) : _next(NULL),
    _name(name),
    _path_type(t)
 80015c0:	4b0e      	ldr	r3, [pc, #56]	; (80015fc <_ZN4mbed8FileBaseC1EPKcNS_8PathTypeE+0x3c>)
 80015c2:	3308      	adds	r3, #8
 80015c4:	6003      	str	r3, [r0, #0]
 80015c6:	2300      	movs	r3, #0
 80015c8:	6043      	str	r3, [r0, #4]
 80015ca:	6081      	str	r1, [r0, #8]
 80015cc:	7302      	strb	r2, [r0, #12]
     * @returns
     *   A pointer to the singleton
     */
    T *get()
    {
        if (NULL == _ptr) {
 80015ce:	4b0c      	ldr	r3, [pc, #48]	; (8001600 <_ZN4mbed8FileBaseC1EPKcNS_8PathTypeE+0x40>)
 80015d0:	681b      	ldr	r3, [r3, #0]
 80015d2:	2b00      	cmp	r3, #0
 80015d4:	d00a      	beq.n	80015ec <_ZN4mbed8FileBaseC1EPKcNS_8PathTypeE+0x2c>
{
    _mutex->lock();
    if (name != NULL) {
 80015d6:	2900      	cmp	r1, #0
 80015d8:	d003      	beq.n	80015e2 <_ZN4mbed8FileBaseC1EPKcNS_8PathTypeE+0x22>
        // put this object at head of the list
        _next = _head;
 80015da:	4b0a      	ldr	r3, [pc, #40]	; (8001604 <_ZN4mbed8FileBaseC1EPKcNS_8PathTypeE+0x44>)
 80015dc:	681a      	ldr	r2, [r3, #0]
 80015de:	6042      	str	r2, [r0, #4]
        _head = this;
 80015e0:	6018      	str	r0, [r3, #0]
 80015e2:	4b07      	ldr	r3, [pc, #28]	; (8001600 <_ZN4mbed8FileBaseC1EPKcNS_8PathTypeE+0x40>)
 80015e4:	681b      	ldr	r3, [r3, #0]
 80015e6:	2b00      	cmp	r3, #0
 80015e8:	d004      	beq.n	80015f4 <_ZN4mbed8FileBaseC1EPKcNS_8PathTypeE+0x34>
    } else {
        _next = NULL;
    }
    _mutex->unlock();
}
 80015ea:	4770      	bx	lr
            singleton_lock();
            if (NULL == _ptr) {
                _ptr = new (_data) T();
 80015ec:	4b04      	ldr	r3, [pc, #16]	; (8001600 <_ZN4mbed8FileBaseC1EPKcNS_8PathTypeE+0x40>)
 80015ee:	1d1a      	adds	r2, r3, #4
 80015f0:	601a      	str	r2, [r3, #0]
 80015f2:	e7f0      	b.n	80015d6 <_ZN4mbed8FileBaseC1EPKcNS_8PathTypeE+0x16>
 80015f4:	4b02      	ldr	r3, [pc, #8]	; (8001600 <_ZN4mbed8FileBaseC1EPKcNS_8PathTypeE+0x40>)
 80015f6:	1d1a      	adds	r2, r3, #4
 80015f8:	601a      	str	r2, [r3, #0]
 80015fa:	e7f6      	b.n	80015ea <_ZN4mbed8FileBaseC1EPKcNS_8PathTypeE+0x2a>
 80015fc:	0800570c 	.word	0x0800570c
 8001600:	2000094c 	.word	0x2000094c
 8001604:	20000948 	.word	0x20000948

08001608 <_ZN4mbed8FileBase6lookupEPKcj>:
        remove_filehandle(static_cast<FileHandle *>(static_cast<FileLike *>(this)));
    }
}

FileBase *FileBase::lookup(const char *name, unsigned int len)
{
 8001608:	b5f0      	push	{r4, r5, r6, r7, lr}
 800160a:	46c6      	mov	lr, r8
 800160c:	b500      	push	{lr}
 800160e:	0007      	movs	r7, r0
 8001610:	000e      	movs	r6, r1
        if (NULL == _ptr) {
 8001612:	4b19      	ldr	r3, [pc, #100]	; (8001678 <_ZN4mbed8FileBase6lookupEPKcj+0x70>)
 8001614:	681b      	ldr	r3, [r3, #0]
 8001616:	2b00      	cmp	r3, #0
 8001618:	d005      	beq.n	8001626 <_ZN4mbed8FileBase6lookupEPKcj+0x1e>
            singleton_unlock();
        }
        // _ptr was not zero initialized or was
        // corrupted if this assert is hit
        MBED_ASSERT(_ptr == (T *)&_data);
        return _ptr;
 800161a:	4b17      	ldr	r3, [pc, #92]	; (8001678 <_ZN4mbed8FileBase6lookupEPKcj+0x70>)
 800161c:	681b      	ldr	r3, [r3, #0]
 800161e:	4698      	mov	r8, r3
    _mutex->lock();
    FileBase *p = _head;
 8001620:	4b16      	ldr	r3, [pc, #88]	; (800167c <_ZN4mbed8FileBase6lookupEPKcj+0x74>)
 8001622:	681c      	ldr	r4, [r3, #0]
 8001624:	e004      	b.n	8001630 <_ZN4mbed8FileBase6lookupEPKcj+0x28>
                _ptr = new (_data) T();
 8001626:	4b14      	ldr	r3, [pc, #80]	; (8001678 <_ZN4mbed8FileBase6lookupEPKcj+0x70>)
 8001628:	1d1a      	adds	r2, r3, #4
 800162a:	601a      	str	r2, [r3, #0]
 800162c:	e7f5      	b.n	800161a <_ZN4mbed8FileBase6lookupEPKcj+0x12>
        /* Check that p->_name matches name and is the correct length */
        if (p->_name != NULL && std::strncmp(p->_name, name, len) == 0 && std::strlen(p->_name) == len) {
            _mutex->unlock();
            return p;
        }
        p = p->_next;
 800162e:	6864      	ldr	r4, [r4, #4]
    while (p != NULL) {
 8001630:	2c00      	cmp	r4, #0
 8001632:	d015      	beq.n	8001660 <_ZN4mbed8FileBase6lookupEPKcj+0x58>
        if (p->_name != NULL && std::strncmp(p->_name, name, len) == 0 && std::strlen(p->_name) == len) {
 8001634:	68a5      	ldr	r5, [r4, #8]
 8001636:	2d00      	cmp	r5, #0
 8001638:	d0f9      	beq.n	800162e <_ZN4mbed8FileBase6lookupEPKcj+0x26>
 800163a:	0032      	movs	r2, r6
 800163c:	0039      	movs	r1, r7
 800163e:	0028      	movs	r0, r5
 8001640:	f003 fdbc 	bl	80051bc <strncmp>
 8001644:	2800      	cmp	r0, #0
 8001646:	d1f2      	bne.n	800162e <_ZN4mbed8FileBase6lookupEPKcj+0x26>
 8001648:	0028      	movs	r0, r5
 800164a:	f7fe fd67 	bl	800011c <strlen>
 800164e:	4286      	cmp	r6, r0
 8001650:	d1ed      	bne.n	800162e <_ZN4mbed8FileBase6lookupEPKcj+0x26>
        if (NULL == _ptr) {
 8001652:	4643      	mov	r3, r8
 8001654:	2b00      	cmp	r3, #0
 8001656:	d106      	bne.n	8001666 <_ZN4mbed8FileBase6lookupEPKcj+0x5e>
                _ptr = new (_data) T();
 8001658:	4b07      	ldr	r3, [pc, #28]	; (8001678 <_ZN4mbed8FileBase6lookupEPKcj+0x70>)
 800165a:	1d1a      	adds	r2, r3, #4
 800165c:	601a      	str	r2, [r3, #0]
            return p;
 800165e:	e002      	b.n	8001666 <_ZN4mbed8FileBase6lookupEPKcj+0x5e>
        if (NULL == _ptr) {
 8001660:	4643      	mov	r3, r8
 8001662:	2b00      	cmp	r3, #0
 8001664:	d003      	beq.n	800166e <_ZN4mbed8FileBase6lookupEPKcj+0x66>
    }
    _mutex->unlock();
    return NULL;
}
 8001666:	0020      	movs	r0, r4
 8001668:	bc04      	pop	{r2}
 800166a:	4690      	mov	r8, r2
 800166c:	bdf0      	pop	{r4, r5, r6, r7, pc}
                _ptr = new (_data) T();
 800166e:	4b02      	ldr	r3, [pc, #8]	; (8001678 <_ZN4mbed8FileBase6lookupEPKcj+0x70>)
 8001670:	1d1a      	adds	r2, r3, #4
 8001672:	601a      	str	r2, [r3, #0]
    return NULL;
 8001674:	e7f7      	b.n	8001666 <_ZN4mbed8FileBase6lookupEPKcj+0x5e>
 8001676:	46c0      	nop			; (mov r8, r8)
 8001678:	2000094c 	.word	0x2000094c
 800167c:	20000948 	.word	0x20000948

08001680 <_ZN4mbed8FileBase11getPathTypeEv>:
}

PathType FileBase::getPathType(void)
{
    // Constant read so no lock needed
    return _path_type;
 8001680:	7b00      	ldrb	r0, [r0, #12]
}
 8001682:	4770      	bx	lr

08001684 <_ZN4mbed8FileBaseD1Ev>:
FileBase::~FileBase()
 8001684:	b510      	push	{r4, lr}
 8001686:	0004      	movs	r4, r0
 8001688:	4b16      	ldr	r3, [pc, #88]	; (80016e4 <_ZN4mbed8FileBaseD1Ev+0x60>)
 800168a:	3308      	adds	r3, #8
 800168c:	6003      	str	r3, [r0, #0]
        if (NULL == _ptr) {
 800168e:	4b16      	ldr	r3, [pc, #88]	; (80016e8 <_ZN4mbed8FileBaseD1Ev+0x64>)
 8001690:	681b      	ldr	r3, [r3, #0]
 8001692:	2b00      	cmp	r3, #0
 8001694:	d00b      	beq.n	80016ae <_ZN4mbed8FileBaseD1Ev+0x2a>
        return _ptr;
 8001696:	4b14      	ldr	r3, [pc, #80]	; (80016e8 <_ZN4mbed8FileBaseD1Ev+0x64>)
 8001698:	6819      	ldr	r1, [r3, #0]
    if (_name != NULL) {
 800169a:	68a3      	ldr	r3, [r4, #8]
 800169c:	2b00      	cmp	r3, #0
 800169e:	d010      	beq.n	80016c2 <_ZN4mbed8FileBaseD1Ev+0x3e>
        if (_head == this) { // first in the list, so just drop me
 80016a0:	4b12      	ldr	r3, [pc, #72]	; (80016ec <_ZN4mbed8FileBaseD1Ev+0x68>)
 80016a2:	681a      	ldr	r2, [r3, #0]
 80016a4:	4294      	cmp	r4, r2
 80016a6:	d107      	bne.n	80016b8 <_ZN4mbed8FileBaseD1Ev+0x34>
            _head = _next;
 80016a8:	6862      	ldr	r2, [r4, #4]
 80016aa:	601a      	str	r2, [r3, #0]
 80016ac:	e009      	b.n	80016c2 <_ZN4mbed8FileBaseD1Ev+0x3e>
                _ptr = new (_data) T();
 80016ae:	4b0e      	ldr	r3, [pc, #56]	; (80016e8 <_ZN4mbed8FileBaseD1Ev+0x64>)
 80016b0:	1d1a      	adds	r2, r3, #4
 80016b2:	601a      	str	r2, [r3, #0]
 80016b4:	e7ef      	b.n	8001696 <_ZN4mbed8FileBaseD1Ev+0x12>
                p = p->_next;
 80016b6:	001a      	movs	r2, r3
            while (p->_next != this) {
 80016b8:	6853      	ldr	r3, [r2, #4]
 80016ba:	429c      	cmp	r4, r3
 80016bc:	d1fb      	bne.n	80016b6 <_ZN4mbed8FileBaseD1Ev+0x32>
            p->_next = _next;
 80016be:	6863      	ldr	r3, [r4, #4]
 80016c0:	6053      	str	r3, [r2, #4]
        if (NULL == _ptr) {
 80016c2:	2900      	cmp	r1, #0
 80016c4:	d006      	beq.n	80016d4 <_ZN4mbed8FileBaseD1Ev+0x50>
    if (getPathType() == FilePathType) {
 80016c6:	0020      	movs	r0, r4
 80016c8:	f7ff ffda 	bl	8001680 <_ZN4mbed8FileBase11getPathTypeEv>
 80016cc:	2800      	cmp	r0, #0
 80016ce:	d005      	beq.n	80016dc <_ZN4mbed8FileBaseD1Ev+0x58>
}
 80016d0:	0020      	movs	r0, r4
 80016d2:	bd10      	pop	{r4, pc}
                _ptr = new (_data) T();
 80016d4:	4b04      	ldr	r3, [pc, #16]	; (80016e8 <_ZN4mbed8FileBaseD1Ev+0x64>)
 80016d6:	1d1a      	adds	r2, r3, #4
 80016d8:	601a      	str	r2, [r3, #0]
 80016da:	e7f4      	b.n	80016c6 <_ZN4mbed8FileBaseD1Ev+0x42>
        remove_filehandle(static_cast<FileHandle *>(static_cast<FileLike *>(this)));
 80016dc:	1f20      	subs	r0, r4, #4
 80016de:	f000 fadd 	bl	8001c9c <_ZN4mbed17remove_filehandleEPNS_10FileHandleE>
 80016e2:	e7f5      	b.n	80016d0 <_ZN4mbed8FileBaseD1Ev+0x4c>
 80016e4:	0800570c 	.word	0x0800570c
 80016e8:	2000094c 	.word	0x2000094c
 80016ec:	20000948 	.word	0x20000948

080016f0 <_ZN4mbed8FileBaseD0Ev>:
FileBase::~FileBase()
 80016f0:	b510      	push	{r4, lr}
 80016f2:	0004      	movs	r4, r0
}
 80016f4:	f7ff ffc6 	bl	8001684 <_ZN4mbed8FileBaseD1Ev>
 80016f8:	0020      	movs	r0, r4
 80016fa:	f000 fe15 	bl	8002328 <_ZdlPv>
 80016fe:	0020      	movs	r0, r4
 8001700:	bd10      	pop	{r4, pc}

08001702 <_ZN4mbed10FileHandle4syncEv>:
    }
 8001702:	2000      	movs	r0, #0
 8001704:	4770      	bx	lr

08001706 <_ZN4mbed10FileHandle6isattyEv>:
    }
 8001706:	2000      	movs	r0, #0
 8001708:	4770      	bx	lr

0800170a <_ZN4mbed10FileHandle4sizeEv>:
#include "platform/mbed_critical.h"

namespace mbed {

off_t FileHandle::size()
{
 800170a:	b570      	push	{r4, r5, r6, lr}
 800170c:	0004      	movs	r4, r0
    /* remember our current position */
    off_t off = seek(0, SEEK_CUR);
 800170e:	6803      	ldr	r3, [r0, #0]
 8001710:	691b      	ldr	r3, [r3, #16]
 8001712:	2201      	movs	r2, #1
 8001714:	2100      	movs	r1, #0
 8001716:	4798      	blx	r3
 8001718:	1e05      	subs	r5, r0, #0
    if (off < 0) {
 800171a:	db0d      	blt.n	8001738 <_ZN4mbed10FileHandle4sizeEv+0x2e>
        return off;
    }
    /* seek to the end to get the file length */
    off_t size = seek(0, SEEK_END);
 800171c:	6823      	ldr	r3, [r4, #0]
 800171e:	691b      	ldr	r3, [r3, #16]
 8001720:	2202      	movs	r2, #2
 8001722:	2100      	movs	r1, #0
 8001724:	0020      	movs	r0, r4
 8001726:	4798      	blx	r3
 8001728:	0006      	movs	r6, r0
    /* return to our old position */
    seek(off, SEEK_SET);
 800172a:	6823      	ldr	r3, [r4, #0]
 800172c:	691b      	ldr	r3, [r3, #16]
 800172e:	2200      	movs	r2, #0
 8001730:	0029      	movs	r1, r5
 8001732:	0020      	movs	r0, r4
 8001734:	4798      	blx	r3
    return size;
 8001736:	0035      	movs	r5, r6
}
 8001738:	0028      	movs	r0, r5
 800173a:	bd70      	pop	{r4, r5, r6, pc}

0800173c <_ZN4mbed8FilePathC1EPKc>:
 */
#include "platform/FilePath.h"

namespace mbed {

FilePath::FilePath(const char *file_path) : file_name(NULL), fb(NULL)
 800173c:	b570      	push	{r4, r5, r6, lr}
 800173e:	0004      	movs	r4, r0
 8001740:	000d      	movs	r5, r1
 8001742:	2300      	movs	r3, #0
 8001744:	6003      	str	r3, [r0, #0]
 8001746:	6043      	str	r3, [r0, #4]
{
    // skip slashes
    file_path += strspn(file_path, "/");
 8001748:	490b      	ldr	r1, [pc, #44]	; (8001778 <_ZN4mbed8FilePathC1EPKc+0x3c>)
 800174a:	0028      	movs	r0, r5
 800174c:	f003 fd47 	bl	80051de <strspn>
 8001750:	1828      	adds	r0, r5, r0

    const char *file_system = file_path;
    file_name = file_system;
 8001752:	6020      	str	r0, [r4, #0]
    int len = 0;
 8001754:	2100      	movs	r1, #0
    while (true) {
        char c = *file_name;
 8001756:	6823      	ldr	r3, [r4, #0]
 8001758:	781a      	ldrb	r2, [r3, #0]
        if (c == '/') { // end of object name
 800175a:	2a2f      	cmp	r2, #47	; 0x2f
 800175c:	d005      	beq.n	800176a <_ZN4mbed8FilePathC1EPKc+0x2e>
            file_name++; // point to one char after the '/'
            break;
        }
        if (c == 0) { // end of object name, with no filename
 800175e:	2a00      	cmp	r2, #0
 8001760:	d005      	beq.n	800176e <_ZN4mbed8FilePathC1EPKc+0x32>
            break;
        }
        len++;
 8001762:	3101      	adds	r1, #1
        file_name++;
 8001764:	3301      	adds	r3, #1
 8001766:	6023      	str	r3, [r4, #0]
    }
 8001768:	e7f5      	b.n	8001756 <_ZN4mbed8FilePathC1EPKc+0x1a>
            file_name++; // point to one char after the '/'
 800176a:	3301      	adds	r3, #1
 800176c:	6023      	str	r3, [r4, #0]

    MBED_ASSERT(len != 0);
    fb = FileBase::lookup(file_system, len);
 800176e:	f7ff ff4b 	bl	8001608 <_ZN4mbed8FileBase6lookupEPKcj>
 8001772:	6060      	str	r0, [r4, #4]
}
 8001774:	0020      	movs	r0, r4
 8001776:	bd70      	pop	{r4, r5, r6, pc}
 8001778:	0800576c 	.word	0x0800576c

0800177c <_ZN4mbed8FilePath8fileNameEv>:

const char *FilePath::fileName(void)
{
    return file_name;
 800177c:	6800      	ldr	r0, [r0, #0]
}
 800177e:	4770      	bx	lr

08001780 <_ZN4mbed8FilePath12isFileSystemEv>:

bool FilePath::isFileSystem(void)
{
 8001780:	b510      	push	{r4, lr}
    if (NULL == fb) {
 8001782:	6840      	ldr	r0, [r0, #4]
 8001784:	2800      	cmp	r0, #0
 8001786:	d006      	beq.n	8001796 <_ZN4mbed8FilePath12isFileSystemEv+0x16>
        return false;
    }
    return (fb->getPathType() == FileSystemPathType);
 8001788:	f7ff ff7a 	bl	8001680 <_ZN4mbed8FileBase11getPathTypeEv>
 800178c:	3801      	subs	r0, #1
 800178e:	4243      	negs	r3, r0
 8001790:	4158      	adcs	r0, r3
 8001792:	b2c0      	uxtb	r0, r0
}
 8001794:	bd10      	pop	{r4, pc}
        return false;
 8001796:	2000      	movs	r0, #0
 8001798:	e7fc      	b.n	8001794 <_ZN4mbed8FilePath12isFileSystemEv+0x14>

0800179a <_ZN4mbed8FilePath10fileSystemEv>:

FileSystemLike *FilePath::fileSystem(void)
{
 800179a:	b510      	push	{r4, lr}
 800179c:	0004      	movs	r4, r0
    if (isFileSystem()) {
 800179e:	f7ff ffef 	bl	8001780 <_ZN4mbed8FilePath12isFileSystemEv>
 80017a2:	2800      	cmp	r0, #0
 80017a4:	d004      	beq.n	80017b0 <_ZN4mbed8FilePath10fileSystemEv+0x16>
        return static_cast<FileSystemLike *>(fb);
 80017a6:	6860      	ldr	r0, [r4, #4]
 80017a8:	2800      	cmp	r0, #0
 80017aa:	d003      	beq.n	80017b4 <_ZN4mbed8FilePath10fileSystemEv+0x1a>
 80017ac:	3804      	subs	r0, #4
    }
    return NULL;
}
 80017ae:	bd10      	pop	{r4, pc}
    return NULL;
 80017b0:	2000      	movs	r0, #0
 80017b2:	e7fc      	b.n	80017ae <_ZN4mbed8FilePath10fileSystemEv+0x14>
        return static_cast<FileSystemLike *>(fb);
 80017b4:	2000      	movs	r0, #0
 80017b6:	e7fa      	b.n	80017ae <_ZN4mbed8FilePath10fileSystemEv+0x14>

080017b8 <_ZN4mbed8FilePath6isFileEv>:

bool FilePath::isFile(void)
{
 80017b8:	b510      	push	{r4, lr}
    if (NULL == fb) {
 80017ba:	6840      	ldr	r0, [r0, #4]
 80017bc:	2800      	cmp	r0, #0
 80017be:	d005      	beq.n	80017cc <_ZN4mbed8FilePath6isFileEv+0x14>
        return false;
    }
    return (fb->getPathType() == FilePathType);
 80017c0:	f7ff ff5e 	bl	8001680 <_ZN4mbed8FileBase11getPathTypeEv>
 80017c4:	4243      	negs	r3, r0
 80017c6:	4158      	adcs	r0, r3
 80017c8:	b2c0      	uxtb	r0, r0
}
 80017ca:	bd10      	pop	{r4, pc}
        return false;
 80017cc:	2000      	movs	r0, #0
 80017ce:	e7fc      	b.n	80017ca <_ZN4mbed8FilePath6isFileEv+0x12>

080017d0 <_ZN4mbed8FilePath4fileEv>:

FileLike *FilePath::file(void)
{
 80017d0:	b510      	push	{r4, lr}
 80017d2:	0004      	movs	r4, r0
    if (isFile()) {
 80017d4:	f7ff fff0 	bl	80017b8 <_ZN4mbed8FilePath6isFileEv>
 80017d8:	2800      	cmp	r0, #0
 80017da:	d004      	beq.n	80017e6 <_ZN4mbed8FilePath4fileEv+0x16>
        return (FileLike *)fb;
 80017dc:	6860      	ldr	r0, [r4, #4]
 80017de:	2800      	cmp	r0, #0
 80017e0:	d003      	beq.n	80017ea <_ZN4mbed8FilePath4fileEv+0x1a>
 80017e2:	3804      	subs	r0, #4
    }
    return NULL;
}
 80017e4:	bd10      	pop	{r4, pc}
    return NULL;
 80017e6:	2000      	movs	r0, #0
 80017e8:	e7fc      	b.n	80017e4 <_ZN4mbed8FilePath4fileEv+0x14>
        return (FileLike *)fb;
 80017ea:	2000      	movs	r0, #0
 80017ec:	e7fa      	b.n	80017e4 <_ZN4mbed8FilePath4fileEv+0x14>

080017ee <_ZN4mbed8FilePath6existsEv>:

bool FilePath::exists(void)
{
    return fb != NULL;
 80017ee:	6840      	ldr	r0, [r0, #4]
 80017f0:	1e43      	subs	r3, r0, #1
 80017f2:	4198      	sbcs	r0, r3
 80017f4:	b2c0      	uxtb	r0, r0
}
 80017f6:	4770      	bx	lr

080017f8 <_ZN4mbed6Stream4lockEv>:
    /** Acquire exclusive access to this object.
     */
    virtual void lock()
    {
        // Stub
    }
 80017f8:	4770      	bx	lr

080017fa <_ZN4mbed6Stream6unlockEv>:
    /** Release exclusive access to this object.
     */
    virtual void unlock()
    {
        // Stub
    }
 80017fa:	4770      	bx	lr

080017fc <_ZN4mbed6Stream5closeEv>:
}

int Stream::close()
{
    return 0;
}
 80017fc:	2000      	movs	r0, #0
 80017fe:	4770      	bx	lr

08001800 <_ZN4mbed6Stream5writeEPKvj>:

ssize_t Stream::write(const void *buffer, size_t length)
{
 8001800:	b5f0      	push	{r4, r5, r6, r7, lr}
 8001802:	46c6      	mov	lr, r8
 8001804:	b500      	push	{lr}
 8001806:	0005      	movs	r5, r0
 8001808:	4688      	mov	r8, r1
    const char *ptr = (const char *)buffer;
    const char *end = ptr + length;
 800180a:	4442      	add	r2, r8
 800180c:	0017      	movs	r7, r2

    lock();
 800180e:	6803      	ldr	r3, [r0, #0]
 8001810:	6d1b      	ldr	r3, [r3, #80]	; 0x50
 8001812:	4798      	blx	r3
    const char *ptr = (const char *)buffer;
 8001814:	4644      	mov	r4, r8
 8001816:	e000      	b.n	800181a <_ZN4mbed6Stream5writeEPKvj+0x1a>
    while (ptr != end) {
        if (_putc(*ptr++) == EOF) {
 8001818:	0034      	movs	r4, r6
    while (ptr != end) {
 800181a:	42bc      	cmp	r4, r7
 800181c:	d008      	beq.n	8001830 <_ZN4mbed6Stream5writeEPKvj+0x30>
        if (_putc(*ptr++) == EOF) {
 800181e:	682b      	ldr	r3, [r5, #0]
 8001820:	6c9b      	ldr	r3, [r3, #72]	; 0x48
 8001822:	1c66      	adds	r6, r4, #1
 8001824:	7821      	ldrb	r1, [r4, #0]
 8001826:	0028      	movs	r0, r5
 8001828:	4798      	blx	r3
 800182a:	1c43      	adds	r3, r0, #1
 800182c:	d1f4      	bne.n	8001818 <_ZN4mbed6Stream5writeEPKvj+0x18>
 800182e:	0034      	movs	r4, r6
            break;
        }
    }
    unlock();
 8001830:	682b      	ldr	r3, [r5, #0]
 8001832:	6d5b      	ldr	r3, [r3, #84]	; 0x54
 8001834:	0028      	movs	r0, r5
 8001836:	4798      	blx	r3

    return ptr - (const char *)buffer;
 8001838:	4643      	mov	r3, r8
 800183a:	1ae0      	subs	r0, r4, r3
}
 800183c:	bc04      	pop	{r2}
 800183e:	4690      	mov	r8, r2
 8001840:	bdf0      	pop	{r4, r5, r6, r7, pc}

08001842 <_ZN4mbed6Stream4readEPvj>:

ssize_t Stream::read(void *buffer, size_t length)
{
 8001842:	b5f8      	push	{r3, r4, r5, r6, r7, lr}
 8001844:	0005      	movs	r5, r0
 8001846:	000f      	movs	r7, r1
    char *ptr = (char *)buffer;
    char *end = ptr + length;
 8001848:	188e      	adds	r6, r1, r2

    lock();
 800184a:	6803      	ldr	r3, [r0, #0]
 800184c:	6d1b      	ldr	r3, [r3, #80]	; 0x50
 800184e:	4798      	blx	r3
    char *ptr = (char *)buffer;
 8001850:	003c      	movs	r4, r7
    while (ptr != end) {
 8001852:	42b4      	cmp	r4, r6
 8001854:	d008      	beq.n	8001868 <_ZN4mbed6Stream4readEPvj+0x26>
        int c = _getc();
 8001856:	682b      	ldr	r3, [r5, #0]
 8001858:	6cdb      	ldr	r3, [r3, #76]	; 0x4c
 800185a:	0028      	movs	r0, r5
 800185c:	4798      	blx	r3
        if (c == EOF) {
 800185e:	1c43      	adds	r3, r0, #1
 8001860:	d002      	beq.n	8001868 <_ZN4mbed6Stream4readEPvj+0x26>
            break;
        }
        *ptr++ = c;
 8001862:	7020      	strb	r0, [r4, #0]
 8001864:	3401      	adds	r4, #1
    while (ptr != end) {
 8001866:	e7f4      	b.n	8001852 <_ZN4mbed6Stream4readEPvj+0x10>
    }
    unlock();
 8001868:	682b      	ldr	r3, [r5, #0]
 800186a:	6d5b      	ldr	r3, [r3, #84]	; 0x54
 800186c:	0028      	movs	r0, r5
 800186e:	4798      	blx	r3

    return ptr - (const char *)buffer;
 8001870:	1be0      	subs	r0, r4, r7
}
 8001872:	bdf8      	pop	{r3, r4, r5, r6, r7, pc}

08001874 <_ZN4mbed6Stream4seekEli>:

off_t Stream::seek(off_t offset, int whence)
{
    return 0;
}
 8001874:	2000      	movs	r0, #0
 8001876:	4770      	bx	lr

08001878 <_ZN4mbed6Stream4tellEv>:

off_t Stream::tell()
{
    return 0;
}
 8001878:	2000      	movs	r0, #0
 800187a:	4770      	bx	lr

0800187c <_ZN4mbed6Stream6rewindEv>:

void Stream::rewind()
{
}
 800187c:	4770      	bx	lr

0800187e <_ZN4mbed6Stream6isattyEv>:

int Stream::isatty()
{
    return 0;
}
 800187e:	2000      	movs	r0, #0
 8001880:	4770      	bx	lr

08001882 <_ZN4mbed6Stream4syncEv>:

int Stream::sync()
{
    return 0;
}
 8001882:	2000      	movs	r0, #0
 8001884:	4770      	bx	lr

08001886 <_ZN4mbed6Stream4sizeEv>:

off_t Stream::size()
{
    return 0;
}
 8001886:	2000      	movs	r0, #0
 8001888:	4770      	bx	lr
	...

0800188c <_ZN4mbed6StreamC1EPKc>:
Stream::Stream(const char *name) : FileLike(name), _file(NULL)
 800188c:	b510      	push	{r4, lr}
 800188e:	b082      	sub	sp, #8
 8001890:	0004      	movs	r4, r0
class FileHandle : private NonCopyable<FileHandle> {
 8001892:	4b10      	ldr	r3, [pc, #64]	; (80018d4 <_ZN4mbed6StreamC1EPKc+0x48>)
 8001894:	c008      	stmia	r0!, {r3}
public:
    /** Constructor FileLike
     *
     *  @param name     The name to use to open the file.
     */
    FileLike(const char *name = NULL) : FileBase(name, FilePathType) {}
 8001896:	2200      	movs	r2, #0
 8001898:	f7ff fe92 	bl	80015c0 <_ZN4mbed8FileBaseC1EPKcNS_8PathTypeE>
 800189c:	4b0e      	ldr	r3, [pc, #56]	; (80018d8 <_ZN4mbed6StreamC1EPKc+0x4c>)
 800189e:	001a      	movs	r2, r3
 80018a0:	3208      	adds	r2, #8
 80018a2:	6022      	str	r2, [r4, #0]
 80018a4:	3368      	adds	r3, #104	; 0x68
 80018a6:	6063      	str	r3, [r4, #4]
 80018a8:	2300      	movs	r3, #0
 80018aa:	6163      	str	r3, [r4, #20]
    _file = fdopen(this, "w+");
 80018ac:	490b      	ldr	r1, [pc, #44]	; (80018dc <_ZN4mbed6StreamC1EPKc+0x50>)
 80018ae:	0020      	movs	r0, r4
 80018b0:	f000 fd17 	bl	80022e2 <_ZN4mbed6fdopenEPNS_10FileHandleEPKc>
 80018b4:	6160      	str	r0, [r4, #20]
    if (_file) {
 80018b6:	2800      	cmp	r0, #0
 80018b8:	d004      	beq.n	80018c4 <_ZN4mbed6StreamC1EPKc+0x38>
        mbed_set_unbuffered_stream(_file);
 80018ba:	f000 fce7 	bl	800228c <_ZN4mbed26mbed_set_unbuffered_streamEP7__sFILE>
}
 80018be:	0020      	movs	r0, r4
 80018c0:	b002      	add	sp, #8
 80018c2:	bd10      	pop	{r4, pc}
        MBED_ERROR1(MBED_MAKE_ERROR(MBED_MODULE_PLATFORM, MBED_ERROR_CODE_OPEN_FAILED), "Stream obj failure", _file);
 80018c4:	2300      	movs	r3, #0
 80018c6:	9300      	str	r3, [sp, #0]
 80018c8:	0002      	movs	r2, r0
 80018ca:	2100      	movs	r1, #0
 80018cc:	4804      	ldr	r0, [pc, #16]	; (80018e0 <_ZN4mbed6StreamC1EPKc+0x54>)
 80018ce:	f000 f923 	bl	8001b18 <mbed_error>
 80018d2:	e7f4      	b.n	80018be <_ZN4mbed6StreamC1EPKc+0x32>
 80018d4:	08005724 	.word	0x08005724
 80018d8:	080057d4 	.word	0x080057d4
 80018dc:	080057d0 	.word	0x080057d0
 80018e0:	80010119 	.word	0x80010119

080018e4 <_ZN4mbed6StreamD1Ev>:
Stream::~Stream()
 80018e4:	b510      	push	{r4, lr}
 80018e6:	0004      	movs	r4, r0
 80018e8:	4b08      	ldr	r3, [pc, #32]	; (800190c <_ZN4mbed6StreamD1Ev+0x28>)
 80018ea:	001a      	movs	r2, r3
 80018ec:	3208      	adds	r2, #8
 80018ee:	6002      	str	r2, [r0, #0]
 80018f0:	3368      	adds	r3, #104	; 0x68
 80018f2:	6043      	str	r3, [r0, #4]
    fclose(_file);
 80018f4:	6940      	ldr	r0, [r0, #20]
 80018f6:	f002 f98d 	bl	8003c14 <fclose>
    virtual ~FileLike() {}
 80018fa:	4b05      	ldr	r3, [pc, #20]	; (8001910 <_ZN4mbed6StreamD1Ev+0x2c>)
 80018fc:	6023      	str	r3, [r4, #0]
 80018fe:	3350      	adds	r3, #80	; 0x50
 8001900:	6063      	str	r3, [r4, #4]
 8001902:	1d20      	adds	r0, r4, #4
 8001904:	f7ff febe 	bl	8001684 <_ZN4mbed8FileBaseD1Ev>
}
 8001908:	0020      	movs	r0, r4
 800190a:	bd10      	pop	{r4, pc}
 800190c:	080057d4 	.word	0x080057d4
 8001910:	08005778 	.word	0x08005778

08001914 <_ZN4mbed6Stream4putcEi>:
{
 8001914:	b570      	push	{r4, r5, r6, lr}
 8001916:	0004      	movs	r4, r0
 8001918:	000d      	movs	r5, r1
    lock();
 800191a:	6803      	ldr	r3, [r0, #0]
 800191c:	6d1b      	ldr	r3, [r3, #80]	; 0x50
 800191e:	4798      	blx	r3
    fflush(_file);
 8001920:	6960      	ldr	r0, [r4, #20]
 8001922:	f002 fa59 	bl	8003dd8 <fflush>
    int ret = std::fputc(c, _file);
 8001926:	6961      	ldr	r1, [r4, #20]
 8001928:	0028      	movs	r0, r5
 800192a:	f002 fc2f 	bl	800418c <fputc>
 800192e:	0005      	movs	r5, r0
    unlock();
 8001930:	6823      	ldr	r3, [r4, #0]
 8001932:	6d5b      	ldr	r3, [r3, #84]	; 0x54
 8001934:	0020      	movs	r0, r4
 8001936:	4798      	blx	r3
}
 8001938:	0028      	movs	r0, r5
 800193a:	bd70      	pop	{r4, r5, r6, pc}

0800193c <_ZN4mbed6Stream4getcEv>:
{
 800193c:	b570      	push	{r4, r5, r6, lr}
 800193e:	0004      	movs	r4, r0
    lock();
 8001940:	6803      	ldr	r3, [r0, #0]
 8001942:	6d1b      	ldr	r3, [r3, #80]	; 0x50
 8001944:	4798      	blx	r3
    fflush(_file);
 8001946:	6960      	ldr	r0, [r4, #20]
 8001948:	f002 fa46 	bl	8003dd8 <fflush>
    int ret = mbed_getc(_file);
 800194c:	6960      	ldr	r0, [r4, #20]
 800194e:	f000 fcdd 	bl	800230c <_ZN4mbed9mbed_getcEP7__sFILE>
 8001952:	0005      	movs	r5, r0
    unlock();
 8001954:	6823      	ldr	r3, [r4, #0]
 8001956:	6d5b      	ldr	r3, [r3, #84]	; 0x54
 8001958:	0020      	movs	r0, r4
 800195a:	4798      	blx	r3
}
 800195c:	0028      	movs	r0, r5
 800195e:	bd70      	pop	{r4, r5, r6, pc}

08001960 <mbed_die>:
extern int stdio_uart_inited;
extern serial_t stdio_uart;
#endif

WEAK void mbed_die(void)
{
 8001960:	b530      	push	{r4, r5, lr}
 8001962:	b089      	sub	sp, #36	; 0x24
#if !defined (NRF51_H) && !defined(TARGET_EFM32)
    core_util_critical_section_enter();
 8001964:	f000 f838 	bl	80019d8 <core_util_critical_section_enter>
#endif
    gpio_t led_err;
    gpio_init_out(&led_err, LED1);
 8001968:	2105      	movs	r1, #5
 800196a:	a801      	add	r0, sp, #4
 800196c:	f7ff fb06 	bl	8000f7c <gpio_init_out>
 8001970:	e021      	b.n	80019b6 <mbed_die+0x56>
        *obj->reg_set = obj->mask;
 8001972:	9b03      	ldr	r3, [sp, #12]
 8001974:	9a01      	ldr	r2, [sp, #4]
 8001976:	601a      	str	r2, [r3, #0]

    while (1) {
        for (int i = 0; i < 4; ++i) {
            gpio_write(&led_err, 1);
            wait_ms(150);
 8001978:	2096      	movs	r0, #150	; 0x96
 800197a:	f000 fcf5 	bl	8002368 <wait_ms>
        *obj->reg_clr = obj->mask;
 800197e:	9b04      	ldr	r3, [sp, #16]
 8001980:	9a01      	ldr	r2, [sp, #4]
 8001982:	601a      	str	r2, [r3, #0]
            gpio_write(&led_err, 0);
            wait_ms(150);
 8001984:	2096      	movs	r0, #150	; 0x96
 8001986:	f000 fcef 	bl	8002368 <wait_ms>
        for (int i = 0; i < 4; ++i) {
 800198a:	3401      	adds	r4, #1
 800198c:	2c03      	cmp	r4, #3
 800198e:	ddf0      	ble.n	8001972 <mbed_die+0x12>
 8001990:	2400      	movs	r4, #0
 8001992:	e00e      	b.n	80019b2 <mbed_die+0x52>
        *obj->reg_set = obj->mask;
 8001994:	9b03      	ldr	r3, [sp, #12]
 8001996:	9a01      	ldr	r2, [sp, #4]
 8001998:	601a      	str	r2, [r3, #0]
        }

        for (int i = 0; i < 4; ++i) {
            gpio_write(&led_err, 1);
            wait_ms(400);
 800199a:	25c8      	movs	r5, #200	; 0xc8
 800199c:	006d      	lsls	r5, r5, #1
 800199e:	0028      	movs	r0, r5
 80019a0:	f000 fce2 	bl	8002368 <wait_ms>
        *obj->reg_clr = obj->mask;
 80019a4:	9b04      	ldr	r3, [sp, #16]
 80019a6:	9a01      	ldr	r2, [sp, #4]
 80019a8:	601a      	str	r2, [r3, #0]
            gpio_write(&led_err, 0);
            wait_ms(400);
 80019aa:	0028      	movs	r0, r5
 80019ac:	f000 fcdc 	bl	8002368 <wait_ms>
        for (int i = 0; i < 4; ++i) {
 80019b0:	3401      	adds	r4, #1
 80019b2:	2c03      	cmp	r4, #3
 80019b4:	ddee      	ble.n	8001994 <mbed_die+0x34>
        for (int i = 0; i < 4; ++i) {
 80019b6:	2400      	movs	r4, #0
 80019b8:	e7e8      	b.n	800198c <mbed_die+0x2c>

080019ba <core_util_are_interrupts_enabled>:
  __ASM volatile ("MRS %0, primask" : "=r" (result) :: "memory");
 80019ba:	f3ef 8310 	mrs	r3, PRIMASK
bool core_util_are_interrupts_enabled(void)
{
#if defined(__CORTEX_A9)
    return ((__get_CPSR() & 0x80) == 0);
#else
    return ((__get_PRIMASK() & 0x1) == 0);
 80019be:	2001      	movs	r0, #1
 80019c0:	4018      	ands	r0, r3
 80019c2:	4243      	negs	r3, r0
 80019c4:	4158      	adcs	r0, r3
 80019c6:	b2c0      	uxtb	r0, r0
#endif
}
 80019c8:	4770      	bx	lr

080019ca <core_util_is_isr_active>:
  __ASM volatile ("MRS %0, ipsr" : "=r" (result) );
 80019ca:	f3ef 8005 	mrs	r0, IPSR
        case CPSR_M_SVC:
        default:
            return true;
    }
#else
    return (__get_IPSR() != 0U);
 80019ce:	1e43      	subs	r3, r0, #1
 80019d0:	4198      	sbcs	r0, r3
 80019d2:	b2c0      	uxtb	r0, r0
#endif
}
 80019d4:	4770      	bx	lr
	...

080019d8 <core_util_critical_section_enter>:
{
    return hal_in_critical_section();
}

void core_util_critical_section_enter(void)
{
 80019d8:	b510      	push	{r4, lr}
#else
    // If the reentrancy counter overflows something has gone badly wrong.
    MBED_ASSERT(critical_section_reentrancy_counter < UINT32_MAX);
#endif /* FEATURE_UVISOR */

    hal_critical_section_enter();
 80019da:	f7ff fa95 	bl	8000f08 <hal_critical_section_enter>

    ++critical_section_reentrancy_counter;
 80019de:	4a02      	ldr	r2, [pc, #8]	; (80019e8 <core_util_critical_section_enter+0x10>)
 80019e0:	6813      	ldr	r3, [r2, #0]
 80019e2:	3301      	adds	r3, #1
 80019e4:	6013      	str	r3, [r2, #0]
}
 80019e6:	bd10      	pop	{r4, pc}
 80019e8:	20000954 	.word	0x20000954

080019ec <core_util_critical_section_exit>:

void core_util_critical_section_exit(void)
{
 80019ec:	b510      	push	{r4, lr}
#ifdef FEATURE_UVISOR
#warning "core_util_critical_section_exit needs fixing to work from unprivileged code"
#endif /* FEATURE_UVISOR */

    // If critical_section_enter has not previously been called, do nothing
    if (critical_section_reentrancy_counter == 0) {
 80019ee:	4b07      	ldr	r3, [pc, #28]	; (8001a0c <core_util_critical_section_exit+0x20>)
 80019f0:	681b      	ldr	r3, [r3, #0]
 80019f2:	2b00      	cmp	r3, #0
 80019f4:	d006      	beq.n	8001a04 <core_util_critical_section_exit+0x18>
        return;
    }

    --critical_section_reentrancy_counter;
 80019f6:	4b05      	ldr	r3, [pc, #20]	; (8001a0c <core_util_critical_section_exit+0x20>)
 80019f8:	681a      	ldr	r2, [r3, #0]
 80019fa:	3a01      	subs	r2, #1
 80019fc:	601a      	str	r2, [r3, #0]

    if (critical_section_reentrancy_counter == 0) {
 80019fe:	681b      	ldr	r3, [r3, #0]
 8001a00:	2b00      	cmp	r3, #0
 8001a02:	d000      	beq.n	8001a06 <core_util_critical_section_exit+0x1a>
        hal_critical_section_exit();
    }
}
 8001a04:	bd10      	pop	{r4, pc}
        hal_critical_section_exit();
 8001a06:	f7ff fa91 	bl	8000f2c <hal_critical_section_exit>
 8001a0a:	e7fb      	b.n	8001a04 <core_util_critical_section_exit+0x18>
 8001a0c:	20000954 	.word	0x20000954

08001a10 <core_util_atomic_incr_u16>:
    core_util_critical_section_exit();
    return newValue;
}

uint16_t core_util_atomic_incr_u16(volatile uint16_t *valuePtr, uint16_t delta)
{
 8001a10:	b570      	push	{r4, r5, r6, lr}
 8001a12:	0005      	movs	r5, r0
 8001a14:	000c      	movs	r4, r1
    uint16_t newValue;
    core_util_critical_section_enter();
 8001a16:	f7ff ffdf 	bl	80019d8 <core_util_critical_section_enter>
    newValue = *valuePtr + delta;
 8001a1a:	8829      	ldrh	r1, [r5, #0]
 8001a1c:	190c      	adds	r4, r1, r4
 8001a1e:	b2a4      	uxth	r4, r4
    *valuePtr = newValue;
 8001a20:	802c      	strh	r4, [r5, #0]
    core_util_critical_section_exit();
 8001a22:	f7ff ffe3 	bl	80019ec <core_util_critical_section_exit>
    return newValue;
}
 8001a26:	0020      	movs	r0, r4
 8001a28:	bd70      	pop	{r4, r5, r6, pc}

08001a2a <core_util_atomic_decr_u16>:
    core_util_critical_section_exit();
    return newValue;
}

uint16_t core_util_atomic_decr_u16(volatile uint16_t *valuePtr, uint16_t delta)
{
 8001a2a:	b570      	push	{r4, r5, r6, lr}
 8001a2c:	0005      	movs	r5, r0
 8001a2e:	000e      	movs	r6, r1
    uint16_t newValue;
    core_util_critical_section_enter();
 8001a30:	f7ff ffd2 	bl	80019d8 <core_util_critical_section_enter>
    newValue = *valuePtr - delta;
 8001a34:	882c      	ldrh	r4, [r5, #0]
 8001a36:	1ba4      	subs	r4, r4, r6
 8001a38:	b2a4      	uxth	r4, r4
    *valuePtr = newValue;
 8001a3a:	802c      	strh	r4, [r5, #0]
    core_util_critical_section_exit();
 8001a3c:	f7ff ffd6 	bl	80019ec <core_util_critical_section_exit>
    return newValue;
}
 8001a40:	0020      	movs	r0, r4
 8001a42:	bd70      	pop	{r4, r5, r6, pc}

08001a44 <handle_error>:
    exit(1);
}

//Set an error status with the error handling system
static mbed_error_status_t handle_error(mbed_error_status_t error_status, unsigned int error_value, const char *filename, int line_number, void *caller)
{
 8001a44:	b530      	push	{r4, r5, lr}
 8001a46:	b08f      	sub	sp, #60	; 0x3c
 8001a48:	0004      	movs	r4, r0
 8001a4a:	000d      	movs	r5, r1
    mbed_error_ctx current_error_ctx;

    //Error status should always be < 0
    if (error_status >= 0) {
 8001a4c:	2800      	cmp	r0, #0
 8001a4e:	db00      	blt.n	8001a52 <handle_error+0xe>
        //This is a weird situation, someone called mbed_error with invalid error code.
        //We will still handle the situation but change the error code to ERROR_INVALID_ARGUMENT, atleast the context will have info on who called it
        error_status = MBED_ERROR_INVALID_ARGUMENT;
 8001a50:	4c16      	ldr	r4, [pc, #88]	; (8001aac <handle_error+0x68>)
    }

    //Prevent corruption by holding out other callers
    //and we also need this until we remove the "error" call completely
    while (error_in_progress == 1);
 8001a52:	4b17      	ldr	r3, [pc, #92]	; (8001ab0 <handle_error+0x6c>)
 8001a54:	781b      	ldrb	r3, [r3, #0]
 8001a56:	2b01      	cmp	r3, #1
 8001a58:	d0fb      	beq.n	8001a52 <handle_error+0xe>

    //Use critsect here, as we don't want inadvertant modification of this global variable
    core_util_critical_section_enter();
 8001a5a:	f7ff ffbd 	bl	80019d8 <core_util_critical_section_enter>
    error_in_progress = 1;
 8001a5e:	2201      	movs	r2, #1
 8001a60:	4b13      	ldr	r3, [pc, #76]	; (8001ab0 <handle_error+0x6c>)
 8001a62:	701a      	strb	r2, [r3, #0]
    core_util_critical_section_exit();
 8001a64:	f7ff ffc2 	bl	80019ec <core_util_critical_section_exit>

    //Increment error count
    error_count++;
 8001a68:	4a12      	ldr	r2, [pc, #72]	; (8001ab4 <handle_error+0x70>)
 8001a6a:	6813      	ldr	r3, [r2, #0]
 8001a6c:	3301      	adds	r3, #1
 8001a6e:	6013      	str	r3, [r2, #0]

    //Clear the context capturing buffer
    memset(&current_error_ctx, sizeof(mbed_error_ctx), 0);
    //Capture error information
    current_error_ctx.error_status = error_status;
 8001a70:	9401      	str	r4, [sp, #4]
    current_error_ctx.error_address = (uint32_t)caller;
 8001a72:	9a12      	ldr	r2, [sp, #72]	; 0x48
 8001a74:	9202      	str	r2, [sp, #8]
    current_error_ctx.error_value = error_value;
 8001a76:	9503      	str	r5, [sp, #12]
    strncpy(current_error_ctx.error_filename, filename, MBED_CONF_PLATFORM_MAX_ERROR_FILENAME_LEN);
    current_error_ctx.error_line_number = line_number;
#endif

    //Capture the fist system error and store it
    if (error_count == 1) { //first error
 8001a78:	2b01      	cmp	r3, #1
 8001a7a:	d010      	beq.n	8001a9e <handle_error+0x5a>
        memcpy(&first_error_ctx, &current_error_ctx, sizeof(mbed_error_ctx));
    }

    //copy this error to last error
    memcpy(&last_error_ctx, &current_error_ctx, sizeof(mbed_error_ctx));
 8001a7c:	2234      	movs	r2, #52	; 0x34
 8001a7e:	a901      	add	r1, sp, #4
 8001a80:	480d      	ldr	r0, [pc, #52]	; (8001ab8 <handle_error+0x74>)
 8001a82:	f003 f91b 	bl	8004cbc <memcpy>
    //Log the error with error log
    mbed_error_hist_put(&current_error_ctx);
#endif

    //Call the error hook if available
    if (error_hook != NULL) {
 8001a86:	4b0d      	ldr	r3, [pc, #52]	; (8001abc <handle_error+0x78>)
 8001a88:	681b      	ldr	r3, [r3, #0]
 8001a8a:	2b00      	cmp	r3, #0
 8001a8c:	d001      	beq.n	8001a92 <handle_error+0x4e>
        error_hook(&last_error_ctx);
 8001a8e:	480a      	ldr	r0, [pc, #40]	; (8001ab8 <handle_error+0x74>)
 8001a90:	4798      	blx	r3
    }

    error_in_progress = 0;
 8001a92:	2200      	movs	r2, #0
 8001a94:	4b06      	ldr	r3, [pc, #24]	; (8001ab0 <handle_error+0x6c>)
 8001a96:	701a      	strb	r2, [r3, #0]

    return MBED_SUCCESS;
}
 8001a98:	2000      	movs	r0, #0
 8001a9a:	b00f      	add	sp, #60	; 0x3c
 8001a9c:	bd30      	pop	{r4, r5, pc}
        memcpy(&first_error_ctx, &current_error_ctx, sizeof(mbed_error_ctx));
 8001a9e:	2234      	movs	r2, #52	; 0x34
 8001aa0:	a901      	add	r1, sp, #4
 8001aa2:	4807      	ldr	r0, [pc, #28]	; (8001ac0 <handle_error+0x7c>)
 8001aa4:	f003 f90a 	bl	8004cbc <memcpy>
 8001aa8:	e7e8      	b.n	8001a7c <handle_error+0x38>
 8001aaa:	46c0      	nop			; (mov r8, r8)
 8001aac:	80ff0101 	.word	0x80ff0101
 8001ab0:	20000960 	.word	0x20000960
 8001ab4:	20000958 	.word	0x20000958
 8001ab8:	20000998 	.word	0x20000998
 8001abc:	2000095c 	.word	0x2000095c
 8001ac0:	20000964 	.word	0x20000964

08001ac4 <mbed_halt_system>:
{
 8001ac4:	b510      	push	{r4, lr}
    if (core_util_is_isr_active() || !core_util_are_interrupts_enabled()) {
 8001ac6:	f7ff ff80 	bl	80019ca <core_util_is_isr_active>
 8001aca:	2800      	cmp	r0, #0
 8001acc:	d103      	bne.n	8001ad6 <mbed_halt_system+0x12>
 8001ace:	f7ff ff74 	bl	80019ba <core_util_are_interrupts_enabled>
 8001ad2:	2800      	cmp	r0, #0
 8001ad4:	d101      	bne.n	8001ada <mbed_halt_system+0x16>
            __WFI();
 8001ad6:	bf30      	wfi
 8001ad8:	e7fd      	b.n	8001ad6 <mbed_halt_system+0x12>
        exit(1);
 8001ada:	2001      	movs	r0, #1
 8001adc:	f002 f818 	bl	8003b10 <exit>

08001ae0 <error>:
{
 8001ae0:	b40f      	push	{r0, r1, r2, r3}
 8001ae2:	b500      	push	{lr}
 8001ae4:	b083      	sub	sp, #12
 8001ae6:	4672      	mov	r2, lr
    if (error_in_progress) {
 8001ae8:	4b09      	ldr	r3, [pc, #36]	; (8001b10 <error+0x30>)
 8001aea:	781b      	ldrb	r3, [r3, #0]
 8001aec:	2b00      	cmp	r3, #0
 8001aee:	d003      	beq.n	8001af8 <error+0x18>
}
 8001af0:	b003      	add	sp, #12
 8001af2:	bc08      	pop	{r3}
 8001af4:	b004      	add	sp, #16
 8001af6:	4718      	bx	r3
    handle_error(MBED_ERROR_UNKNOWN, 0, NULL, 0, MBED_CALLER_ADDR());
 8001af8:	2100      	movs	r1, #0
 8001afa:	9200      	str	r2, [sp, #0]
 8001afc:	000b      	movs	r3, r1
 8001afe:	000a      	movs	r2, r1
 8001b00:	4804      	ldr	r0, [pc, #16]	; (8001b14 <error+0x34>)
 8001b02:	f7ff ff9f 	bl	8001a44 <handle_error>
    error_in_progress = 1;
 8001b06:	2001      	movs	r0, #1
 8001b08:	4b01      	ldr	r3, [pc, #4]	; (8001b10 <error+0x30>)
 8001b0a:	7018      	strb	r0, [r3, #0]
    exit(1);
 8001b0c:	f002 f800 	bl	8003b10 <exit>
 8001b10:	20000960 	.word	0x20000960
 8001b14:	80ff0100 	.word	0x80ff0100

08001b18 <mbed_error>:
    return handle_error(error_status, error_value, filename, line_number, MBED_CALLER_ADDR());
}

//Sets a fatal error, this function is marked WEAK to be able to override this for some tests
WEAK mbed_error_status_t mbed_error(mbed_error_status_t error_status, const char *error_msg, unsigned int error_value, const char *filename, int line_number)
{
 8001b18:	b500      	push	{lr}
 8001b1a:	b083      	sub	sp, #12
 8001b1c:	0011      	movs	r1, r2
 8001b1e:	001a      	movs	r2, r3
    //set the error reported and then halt the system
    if (MBED_SUCCESS != handle_error(error_status, error_value, filename, line_number, MBED_CALLER_ADDR())) {
 8001b20:	4673      	mov	r3, lr
 8001b22:	9300      	str	r3, [sp, #0]
 8001b24:	9b04      	ldr	r3, [sp, #16]
 8001b26:	f7ff ff8d 	bl	8001a44 <handle_error>
 8001b2a:	2800      	cmp	r0, #0
 8001b2c:	d002      	beq.n	8001b34 <mbed_error+0x1c>
    //On fatal errors print the error context/report
    ERROR_REPORT(&last_error_ctx, error_msg);
    mbed_halt_system();

    return MBED_ERROR_FAILED_OPERATION;
}
 8001b2e:	4802      	ldr	r0, [pc, #8]	; (8001b38 <mbed_error+0x20>)
 8001b30:	b003      	add	sp, #12
 8001b32:	bd00      	pop	{pc}
    mbed_halt_system();
 8001b34:	f7ff ffc6 	bl	8001ac4 <mbed_halt_system>
 8001b38:	80ff010f 	.word	0x80ff010f

08001b3c <_ZN12DirectSerial4seekEli>:
    virtual ssize_t write(const void *buffer, size_t size);
    virtual ssize_t read(void *buffer, size_t size);
    virtual off_t seek(off_t offset, int whence = SEEK_SET)
    {
        return -ESPIPE;
    }
 8001b3c:	201d      	movs	r0, #29
 8001b3e:	4240      	negs	r0, r0
 8001b40:	4770      	bx	lr

08001b42 <_ZN12DirectSerial4sizeEv>:
    virtual off_t size()
    {
        return -EINVAL;
    }
 8001b42:	2016      	movs	r0, #22
 8001b44:	4240      	negs	r0, r0
 8001b46:	4770      	bx	lr

08001b48 <_ZN12DirectSerial6isattyEv>:
    virtual int isatty()
    {
        return true;
    }
 8001b48:	2001      	movs	r0, #1
 8001b4a:	4770      	bx	lr

08001b4c <_ZN12DirectSerial5closeEv>:
    virtual int close()
    {
        return 0;
    }
 8001b4c:	2000      	movs	r0, #0
 8001b4e:	4770      	bx	lr

08001b50 <_ZL12convert_crlfi>:
#elif MBED_CONF_PLATFORM_STDIO_CONVERT_NEWLINES
    return fd < 3 && isatty(fd);
#else
    return false;
#endif
}
 8001b50:	2000      	movs	r0, #0
 8001b52:	4770      	bx	lr

08001b54 <_ZN12DirectSerialD1Ev>:
class DirectSerial : public FileHandle {
 8001b54:	4770      	bx	lr
	...

08001b58 <_ZN12DirectSerial5writeEPKvj>:
{
 8001b58:	b570      	push	{r4, r5, r6, lr}
 8001b5a:	000e      	movs	r6, r1
 8001b5c:	0015      	movs	r5, r2
    for (size_t i = 0; i < size; i++) {
 8001b5e:	2400      	movs	r4, #0
 8001b60:	42ac      	cmp	r4, r5
 8001b62:	d205      	bcs.n	8001b70 <_ZN12DirectSerial5writeEPKvj+0x18>
        serial_putc(&stdio_uart, buf[i]);
 8001b64:	5d31      	ldrb	r1, [r6, r4]
 8001b66:	4803      	ldr	r0, [pc, #12]	; (8001b74 <_ZN12DirectSerial5writeEPKvj+0x1c>)
 8001b68:	f001 fbf6 	bl	8003358 <serial_putc>
    for (size_t i = 0; i < size; i++) {
 8001b6c:	3401      	adds	r4, #1
 8001b6e:	e7f7      	b.n	8001b60 <_ZN12DirectSerial5writeEPKvj+0x8>
}
 8001b70:	0028      	movs	r0, r5
 8001b72:	bd70      	pop	{r4, r5, r6, pc}
 8001b74:	20000c7c 	.word	0x20000c7c

08001b78 <_ZN12DirectSerial4readEPvj>:
{
 8001b78:	b510      	push	{r4, lr}
 8001b7a:	000c      	movs	r4, r1
    if (size == 0) {
 8001b7c:	2a00      	cmp	r2, #0
 8001b7e:	d101      	bne.n	8001b84 <_ZN12DirectSerial4readEPvj+0xc>
        return 0;
 8001b80:	2000      	movs	r0, #0
}
 8001b82:	bd10      	pop	{r4, pc}
    buf[0] = serial_getc(&stdio_uart);
 8001b84:	4802      	ldr	r0, [pc, #8]	; (8001b90 <_ZN12DirectSerial4readEPvj+0x18>)
 8001b86:	f001 fbd3 	bl	8003330 <serial_getc>
 8001b8a:	7020      	strb	r0, [r4, #0]
    return 1;
 8001b8c:	2001      	movs	r0, #1
 8001b8e:	e7f8      	b.n	8001b82 <_ZN12DirectSerial4readEPvj+0xa>
 8001b90:	20000c7c 	.word	0x20000c7c

08001b94 <_ZNK12DirectSerial4pollEs>:
{
 8001b94:	b570      	push	{r4, r5, r6, lr}
    if ((events & POLLIN) && serial_readable(&stdio_uart)) {
 8001b96:	b28c      	uxth	r4, r1
 8001b98:	07e3      	lsls	r3, r4, #31
 8001b9a:	d40d      	bmi.n	8001bb8 <_ZNK12DirectSerial4pollEs+0x24>
 8001b9c:	2300      	movs	r3, #0
 8001b9e:	2b00      	cmp	r3, #0
 8001ba0:	d113      	bne.n	8001bca <_ZNK12DirectSerial4pollEs+0x36>
    short revents = 0;
 8001ba2:	2500      	movs	r5, #0
    if ((events & POLLOUT) && serial_writable(&stdio_uart)) {
 8001ba4:	06e3      	lsls	r3, r4, #27
 8001ba6:	d412      	bmi.n	8001bce <_ZNK12DirectSerial4pollEs+0x3a>
 8001ba8:	2300      	movs	r3, #0
 8001baa:	2b00      	cmp	r3, #0
 8001bac:	d002      	beq.n	8001bb4 <_ZNK12DirectSerial4pollEs+0x20>
        revents |= POLLOUT;
 8001bae:	2310      	movs	r3, #16
 8001bb0:	431d      	orrs	r5, r3
 8001bb2:	b22d      	sxth	r5, r5
}
 8001bb4:	0028      	movs	r0, r5
 8001bb6:	bd70      	pop	{r4, r5, r6, pc}
    if ((events & POLLIN) && serial_readable(&stdio_uart)) {
 8001bb8:	4809      	ldr	r0, [pc, #36]	; (8001be0 <_ZNK12DirectSerial4pollEs+0x4c>)
 8001bba:	f001 fd95 	bl	80036e8 <serial_readable>
 8001bbe:	2800      	cmp	r0, #0
 8001bc0:	d001      	beq.n	8001bc6 <_ZNK12DirectSerial4pollEs+0x32>
 8001bc2:	2301      	movs	r3, #1
 8001bc4:	e7eb      	b.n	8001b9e <_ZNK12DirectSerial4pollEs+0xa>
 8001bc6:	2300      	movs	r3, #0
 8001bc8:	e7e9      	b.n	8001b9e <_ZNK12DirectSerial4pollEs+0xa>
        revents |= POLLIN;
 8001bca:	2501      	movs	r5, #1
 8001bcc:	e7ea      	b.n	8001ba4 <_ZNK12DirectSerial4pollEs+0x10>
    if ((events & POLLOUT) && serial_writable(&stdio_uart)) {
 8001bce:	4804      	ldr	r0, [pc, #16]	; (8001be0 <_ZNK12DirectSerial4pollEs+0x4c>)
 8001bd0:	f001 fda2 	bl	8003718 <serial_writable>
 8001bd4:	2800      	cmp	r0, #0
 8001bd6:	d001      	beq.n	8001bdc <_ZNK12DirectSerial4pollEs+0x48>
 8001bd8:	2301      	movs	r3, #1
 8001bda:	e7e6      	b.n	8001baa <_ZNK12DirectSerial4pollEs+0x16>
 8001bdc:	2300      	movs	r3, #0
 8001bde:	e7e4      	b.n	8001baa <_ZNK12DirectSerial4pollEs+0x16>
 8001be0:	20000c7c 	.word	0x20000c7c

08001be4 <_ZL14unbind_from_fdiPN4mbed10FileHandleE>:
{
 8001be4:	b510      	push	{r4, lr}
    if (filehandles[fd] == fh) {
 8001be6:	0082      	lsls	r2, r0, #2
 8001be8:	4b08      	ldr	r3, [pc, #32]	; (8001c0c <_ZL14unbind_from_fdiPN4mbed10FileHandleE+0x28>)
 8001bea:	58d3      	ldr	r3, [r2, r3]
 8001bec:	428b      	cmp	r3, r1
 8001bee:	d105      	bne.n	8001bfc <_ZL14unbind_from_fdiPN4mbed10FileHandleE+0x18>
        filehandles[fd] = NULL;
 8001bf0:	0010      	movs	r0, r2
 8001bf2:	2200      	movs	r2, #0
 8001bf4:	4b05      	ldr	r3, [pc, #20]	; (8001c0c <_ZL14unbind_from_fdiPN4mbed10FileHandleE+0x28>)
 8001bf6:	50c2      	str	r2, [r0, r3]
        return 0;
 8001bf8:	2000      	movs	r0, #0
}
 8001bfa:	bd10      	pop	{r4, pc}
        errno = EBADF;
 8001bfc:	f001 ff82 	bl	8003b04 <__errno>
 8001c00:	2309      	movs	r3, #9
 8001c02:	6003      	str	r3, [r0, #0]
        return -1;
 8001c04:	2001      	movs	r0, #1
 8001c06:	4240      	negs	r0, r0
 8001c08:	e7f7      	b.n	8001bfa <_ZL14unbind_from_fdiPN4mbed10FileHandleE+0x16>
 8001c0a:	46c0      	nop			; (mov r8, r8)
 8001c0c:	200000c8 	.word	0x200000c8

08001c10 <_ZL18handle_open_errorsij>:
{
 8001c10:	b570      	push	{r4, r5, r6, lr}
 8001c12:	0005      	movs	r5, r0
 8001c14:	000c      	movs	r4, r1
    errno = -error;
 8001c16:	f001 ff75 	bl	8003b04 <__errno>
 8001c1a:	426d      	negs	r5, r5
 8001c1c:	6005      	str	r5, [r0, #0]
    filehandles[filehandle_idx] = NULL;
 8001c1e:	00a4      	lsls	r4, r4, #2
 8001c20:	2200      	movs	r2, #0
 8001c22:	4b02      	ldr	r3, [pc, #8]	; (8001c2c <_ZL18handle_open_errorsij+0x1c>)
 8001c24:	50e2      	str	r2, [r4, r3]
}
 8001c26:	2001      	movs	r0, #1
 8001c28:	4240      	negs	r0, r0
 8001c2a:	bd70      	pop	{r4, r5, r6, pc}
 8001c2c:	200000c8 	.word	0x200000c8

08001c30 <_ZL18reserve_filehandlev>:
{
 8001c30:	b510      	push	{r4, lr}
        if (NULL == _ptr) {
 8001c32:	4b18      	ldr	r3, [pc, #96]	; (8001c94 <_ZL18reserve_filehandlev+0x64>)
 8001c34:	681b      	ldr	r3, [r3, #0]
 8001c36:	2b00      	cmp	r3, #0
 8001c38:	d00b      	beq.n	8001c52 <_ZL18reserve_filehandlev+0x22>
        return _ptr;
 8001c3a:	4b16      	ldr	r3, [pc, #88]	; (8001c94 <_ZL18reserve_filehandlev+0x64>)
 8001c3c:	6819      	ldr	r1, [r3, #0]
    for (fh_i = 3; fh_i < OPEN_MAX; fh_i++) {
 8001c3e:	2003      	movs	r0, #3
 8001c40:	283f      	cmp	r0, #63	; 0x3f
 8001c42:	dc0a      	bgt.n	8001c5a <_ZL18reserve_filehandlev+0x2a>
        if (filehandles[fh_i] == NULL) {
 8001c44:	0083      	lsls	r3, r0, #2
 8001c46:	4a14      	ldr	r2, [pc, #80]	; (8001c98 <_ZL18reserve_filehandlev+0x68>)
 8001c48:	589b      	ldr	r3, [r3, r2]
 8001c4a:	2b00      	cmp	r3, #0
 8001c4c:	d005      	beq.n	8001c5a <_ZL18reserve_filehandlev+0x2a>
    for (fh_i = 3; fh_i < OPEN_MAX; fh_i++) {
 8001c4e:	3001      	adds	r0, #1
 8001c50:	e7f6      	b.n	8001c40 <_ZL18reserve_filehandlev+0x10>
                _ptr = new (_data) T();
 8001c52:	4b10      	ldr	r3, [pc, #64]	; (8001c94 <_ZL18reserve_filehandlev+0x64>)
 8001c54:	1d1a      	adds	r2, r3, #4
 8001c56:	601a      	str	r2, [r3, #0]
 8001c58:	e7ef      	b.n	8001c3a <_ZL18reserve_filehandlev+0xa>
    if (fh_i >= OPEN_MAX) {
 8001c5a:	283f      	cmp	r0, #63	; 0x3f
 8001c5c:	dc07      	bgt.n	8001c6e <_ZL18reserve_filehandlev+0x3e>
    filehandles[fh_i] = FILE_HANDLE_RESERVED;
 8001c5e:	0083      	lsls	r3, r0, #2
 8001c60:	2401      	movs	r4, #1
 8001c62:	4264      	negs	r4, r4
 8001c64:	4a0c      	ldr	r2, [pc, #48]	; (8001c98 <_ZL18reserve_filehandlev+0x68>)
 8001c66:	509c      	str	r4, [r3, r2]
        if (NULL == _ptr) {
 8001c68:	2900      	cmp	r1, #0
 8001c6a:	d00f      	beq.n	8001c8c <_ZL18reserve_filehandlev+0x5c>
}
 8001c6c:	bd10      	pop	{r4, pc}
        errno = EMFILE;
 8001c6e:	f001 ff49 	bl	8003b04 <__errno>
 8001c72:	2318      	movs	r3, #24
 8001c74:	6003      	str	r3, [r0, #0]
 8001c76:	4b07      	ldr	r3, [pc, #28]	; (8001c94 <_ZL18reserve_filehandlev+0x64>)
 8001c78:	681b      	ldr	r3, [r3, #0]
 8001c7a:	2b00      	cmp	r3, #0
 8001c7c:	d002      	beq.n	8001c84 <_ZL18reserve_filehandlev+0x54>
        return -1;
 8001c7e:	2001      	movs	r0, #1
 8001c80:	4240      	negs	r0, r0
 8001c82:	e7f3      	b.n	8001c6c <_ZL18reserve_filehandlev+0x3c>
                _ptr = new (_data) T();
 8001c84:	4b03      	ldr	r3, [pc, #12]	; (8001c94 <_ZL18reserve_filehandlev+0x64>)
 8001c86:	1d1a      	adds	r2, r3, #4
 8001c88:	601a      	str	r2, [r3, #0]
 8001c8a:	e7f8      	b.n	8001c7e <_ZL18reserve_filehandlev+0x4e>
 8001c8c:	4b01      	ldr	r3, [pc, #4]	; (8001c94 <_ZL18reserve_filehandlev+0x64>)
 8001c8e:	1d1a      	adds	r2, r3, #4
 8001c90:	601a      	str	r2, [r3, #0]
    return fh_i;
 8001c92:	e7eb      	b.n	8001c6c <_ZL18reserve_filehandlev+0x3c>
 8001c94:	20000a50 	.word	0x20000a50
 8001c98:	200000c8 	.word	0x200000c8

08001c9c <_ZN4mbed17remove_filehandleEPNS_10FileHandleE>:
{
 8001c9c:	b530      	push	{r4, r5, lr}
        if (NULL == _ptr) {
 8001c9e:	4b0f      	ldr	r3, [pc, #60]	; (8001cdc <_ZN4mbed17remove_filehandleEPNS_10FileHandleE+0x40>)
 8001ca0:	681b      	ldr	r3, [r3, #0]
 8001ca2:	2b00      	cmp	r3, #0
 8001ca4:	d003      	beq.n	8001cae <_ZN4mbed17remove_filehandleEPNS_10FileHandleE+0x12>
        return _ptr;
 8001ca6:	4b0d      	ldr	r3, [pc, #52]	; (8001cdc <_ZN4mbed17remove_filehandleEPNS_10FileHandleE+0x40>)
 8001ca8:	681d      	ldr	r5, [r3, #0]
    for (unsigned int fh_i = 0; fh_i < sizeof(filehandles) / sizeof(*filehandles); fh_i++) {
 8001caa:	2300      	movs	r3, #0
 8001cac:	e004      	b.n	8001cb8 <_ZN4mbed17remove_filehandleEPNS_10FileHandleE+0x1c>
                _ptr = new (_data) T();
 8001cae:	4b0b      	ldr	r3, [pc, #44]	; (8001cdc <_ZN4mbed17remove_filehandleEPNS_10FileHandleE+0x40>)
 8001cb0:	1d1a      	adds	r2, r3, #4
 8001cb2:	601a      	str	r2, [r3, #0]
 8001cb4:	e7f7      	b.n	8001ca6 <_ZN4mbed17remove_filehandleEPNS_10FileHandleE+0xa>
 8001cb6:	3301      	adds	r3, #1
 8001cb8:	2b3f      	cmp	r3, #63	; 0x3f
 8001cba:	d808      	bhi.n	8001cce <_ZN4mbed17remove_filehandleEPNS_10FileHandleE+0x32>
        if (filehandles[fh_i] == file) {
 8001cbc:	009a      	lsls	r2, r3, #2
 8001cbe:	4908      	ldr	r1, [pc, #32]	; (8001ce0 <_ZN4mbed17remove_filehandleEPNS_10FileHandleE+0x44>)
 8001cc0:	5852      	ldr	r2, [r2, r1]
 8001cc2:	4282      	cmp	r2, r0
 8001cc4:	d1f7      	bne.n	8001cb6 <_ZN4mbed17remove_filehandleEPNS_10FileHandleE+0x1a>
            filehandles[fh_i] = NULL;
 8001cc6:	009a      	lsls	r2, r3, #2
 8001cc8:	2400      	movs	r4, #0
 8001cca:	5054      	str	r4, [r2, r1]
 8001ccc:	e7f3      	b.n	8001cb6 <_ZN4mbed17remove_filehandleEPNS_10FileHandleE+0x1a>
        if (NULL == _ptr) {
 8001cce:	2d00      	cmp	r5, #0
 8001cd0:	d000      	beq.n	8001cd4 <_ZN4mbed17remove_filehandleEPNS_10FileHandleE+0x38>
}
 8001cd2:	bd30      	pop	{r4, r5, pc}
                _ptr = new (_data) T();
 8001cd4:	4b01      	ldr	r3, [pc, #4]	; (8001cdc <_ZN4mbed17remove_filehandleEPNS_10FileHandleE+0x40>)
 8001cd6:	1d1a      	adds	r2, r3, #4
 8001cd8:	601a      	str	r2, [r3, #0]
 8001cda:	e7fa      	b.n	8001cd2 <_ZN4mbed17remove_filehandleEPNS_10FileHandleE+0x36>
 8001cdc:	20000a50 	.word	0x20000a50
 8001ce0:	200000c8 	.word	0x200000c8

08001ce4 <_ZN12DirectSerialC1E7PinNameS0_i>:
DirectSerial::DirectSerial(PinName tx, PinName rx, int baud)
 8001ce4:	b570      	push	{r4, r5, r6, lr}
 8001ce6:	0004      	movs	r4, r0
 8001ce8:	001d      	movs	r5, r3
 8001cea:	4b09      	ldr	r3, [pc, #36]	; (8001d10 <_ZN12DirectSerialC1E7PinNameS0_i+0x2c>)
 8001cec:	3308      	adds	r3, #8
 8001cee:	6003      	str	r3, [r0, #0]
    if (stdio_uart_inited) {
 8001cf0:	4b08      	ldr	r3, [pc, #32]	; (8001d14 <_ZN12DirectSerialC1E7PinNameS0_i+0x30>)
 8001cf2:	681b      	ldr	r3, [r3, #0]
 8001cf4:	2b00      	cmp	r3, #0
 8001cf6:	d001      	beq.n	8001cfc <_ZN12DirectSerialC1E7PinNameS0_i+0x18>
}
 8001cf8:	0020      	movs	r0, r4
 8001cfa:	bd70      	pop	{r4, r5, r6, pc}
    serial_init(&stdio_uart, tx, rx);
 8001cfc:	4e06      	ldr	r6, [pc, #24]	; (8001d18 <_ZN12DirectSerialC1E7PinNameS0_i+0x34>)
 8001cfe:	0030      	movs	r0, r6
 8001d00:	f001 fd7e 	bl	8003800 <serial_init>
    serial_baud(&stdio_uart, baud);
 8001d04:	0029      	movs	r1, r5
 8001d06:	0030      	movs	r0, r6
 8001d08:	f001 fd54 	bl	80037b4 <serial_baud>
 8001d0c:	e7f4      	b.n	8001cf8 <_ZN12DirectSerialC1E7PinNameS0_i+0x14>
 8001d0e:	46c0      	nop			; (mov r8, r8)
 8001d10:	08005844 	.word	0x08005844
 8001d14:	20000a84 	.word	0x20000a84
 8001d18:	20000c7c 	.word	0x20000c7c

08001d1c <_ZL15default_consolev>:
{
 8001d1c:	b510      	push	{r4, lr}
    static DirectSerial console(STDIO_UART_TX, STDIO_UART_RX, MBED_CONF_PLATFORM_STDIO_BAUD_RATE);
 8001d1e:	4b0b      	ldr	r3, [pc, #44]	; (8001d4c <_ZL15default_consolev+0x30>)
 8001d20:	681b      	ldr	r3, [r3, #0]
 8001d22:	07db      	lsls	r3, r3, #31
 8001d24:	d501      	bpl.n	8001d2a <_ZL15default_consolev+0xe>
}
 8001d26:	480a      	ldr	r0, [pc, #40]	; (8001d50 <_ZL15default_consolev+0x34>)
 8001d28:	bd10      	pop	{r4, pc}
    static DirectSerial console(STDIO_UART_TX, STDIO_UART_RX, MBED_CONF_PLATFORM_STDIO_BAUD_RATE);
 8001d2a:	4c09      	ldr	r4, [pc, #36]	; (8001d50 <_ZL15default_consolev+0x34>)
 8001d2c:	2396      	movs	r3, #150	; 0x96
 8001d2e:	019b      	lsls	r3, r3, #6
 8001d30:	2203      	movs	r2, #3
 8001d32:	2102      	movs	r1, #2
 8001d34:	0020      	movs	r0, r4
 8001d36:	f7ff ffd5 	bl	8001ce4 <_ZN12DirectSerialC1E7PinNameS0_i>
 8001d3a:	2201      	movs	r2, #1
 8001d3c:	4b03      	ldr	r3, [pc, #12]	; (8001d4c <_ZL15default_consolev+0x30>)
 8001d3e:	601a      	str	r2, [r3, #0]
 8001d40:	4a04      	ldr	r2, [pc, #16]	; (8001d54 <_ZL15default_consolev+0x38>)
 8001d42:	4905      	ldr	r1, [pc, #20]	; (8001d58 <_ZL15default_consolev+0x3c>)
 8001d44:	0020      	movs	r0, r4
 8001d46:	f000 fa9f 	bl	8002288 <__aeabi_atexit>
 8001d4a:	e7ec      	b.n	8001d26 <_ZL15default_consolev+0xa>
 8001d4c:	200009cc 	.word	0x200009cc
 8001d50:	20000a58 	.word	0x20000a58
 8001d54:	200000c0 	.word	0x200000c0
 8001d58:	08001b55 	.word	0x08001b55

08001d5c <_ZN4mbed28mbed_target_override_consoleEi>:
}
 8001d5c:	2000      	movs	r0, #0
 8001d5e:	4770      	bx	lr

08001d60 <_ZN4mbed21mbed_override_consoleEi>:
}
 8001d60:	2000      	movs	r0, #0
 8001d62:	4770      	bx	lr

08001d64 <_ZL11get_consolei>:
{
 8001d64:	b510      	push	{r4, lr}
 8001d66:	0004      	movs	r4, r0
    FileHandle *fh = mbed_override_console(fd);
 8001d68:	f7ff fffa 	bl	8001d60 <_ZN4mbed21mbed_override_consoleEi>
    if (fh) {
 8001d6c:	2800      	cmp	r0, #0
 8001d6e:	d000      	beq.n	8001d72 <_ZL11get_consolei+0xe>
}
 8001d70:	bd10      	pop	{r4, pc}
    fh = mbed_target_override_console(fd);
 8001d72:	0020      	movs	r0, r4
 8001d74:	f7ff fff2 	bl	8001d5c <_ZN4mbed28mbed_target_override_consoleEi>
    if (fh) {
 8001d78:	2800      	cmp	r0, #0
 8001d7a:	d1f9      	bne.n	8001d70 <_ZL11get_consolei+0xc>
    return default_console();
 8001d7c:	f7ff ffce 	bl	8001d1c <_ZL15default_consolev>
 8001d80:	e7f6      	b.n	8001d70 <_ZL11get_consolei+0xc>
	...

08001d84 <_ZL7get_fhci>:
{
 8001d84:	b510      	push	{r4, lr}
 8001d86:	0004      	movs	r4, r0
    if (fd >= OPEN_MAX) {
 8001d88:	283f      	cmp	r0, #63	; 0x3f
 8001d8a:	dc0e      	bgt.n	8001daa <_ZL7get_fhci+0x26>
    FileHandle *fh = filehandles[fd];
 8001d8c:	0083      	lsls	r3, r0, #2
 8001d8e:	4a08      	ldr	r2, [pc, #32]	; (8001db0 <_ZL7get_fhci+0x2c>)
 8001d90:	5898      	ldr	r0, [r3, r2]
    if (fh == FILE_HANDLE_RESERVED && fd < 3) {
 8001d92:	1c43      	adds	r3, r0, #1
 8001d94:	d000      	beq.n	8001d98 <_ZL7get_fhci+0x14>
}
 8001d96:	bd10      	pop	{r4, pc}
    if (fh == FILE_HANDLE_RESERVED && fd < 3) {
 8001d98:	2c02      	cmp	r4, #2
 8001d9a:	dcfc      	bgt.n	8001d96 <_ZL7get_fhci+0x12>
        filehandles[fd] = fh = get_console(fd);
 8001d9c:	0020      	movs	r0, r4
 8001d9e:	f7ff ffe1 	bl	8001d64 <_ZL11get_consolei>
 8001da2:	00a4      	lsls	r4, r4, #2
 8001da4:	4b02      	ldr	r3, [pc, #8]	; (8001db0 <_ZL7get_fhci+0x2c>)
 8001da6:	50e0      	str	r0, [r4, r3]
 8001da8:	e7f5      	b.n	8001d96 <_ZL7get_fhci+0x12>
        return NULL;
 8001daa:	2000      	movs	r0, #0
 8001dac:	e7f3      	b.n	8001d96 <_ZL7get_fhci+0x12>
 8001dae:	46c0      	nop			; (mov r8, r8)
 8001db0:	200000c8 	.word	0x200000c8

08001db4 <_ZN4mbed10bind_to_fdEPNS_10FileHandleE>:
{
 8001db4:	b510      	push	{r4, lr}
 8001db6:	0004      	movs	r4, r0
    int fildes = reserve_filehandle();
 8001db8:	f7ff ff3a 	bl	8001c30 <_ZL18reserve_filehandlev>
    if (fildes < 0) {
 8001dbc:	2800      	cmp	r0, #0
 8001dbe:	db07      	blt.n	8001dd0 <_ZN4mbed10bind_to_fdEPNS_10FileHandleE+0x1c>
    filehandles[fildes] = fh;
 8001dc0:	0083      	lsls	r3, r0, #2
 8001dc2:	4a04      	ldr	r2, [pc, #16]	; (8001dd4 <_ZN4mbed10bind_to_fdEPNS_10FileHandleE+0x20>)
 8001dc4:	509c      	str	r4, [r3, r2]
    stdio_in_prev[fildes] = 0;
 8001dc6:	2300      	movs	r3, #0
 8001dc8:	4a03      	ldr	r2, [pc, #12]	; (8001dd8 <_ZN4mbed10bind_to_fdEPNS_10FileHandleE+0x24>)
 8001dca:	5413      	strb	r3, [r2, r0]
    stdio_out_prev[fildes] = 0;
 8001dcc:	4a03      	ldr	r2, [pc, #12]	; (8001ddc <_ZN4mbed10bind_to_fdEPNS_10FileHandleE+0x28>)
 8001dce:	5413      	strb	r3, [r2, r0]
}
 8001dd0:	bd10      	pop	{r4, pc}
 8001dd2:	46c0      	nop			; (mov r8, r8)
 8001dd4:	200000c8 	.word	0x200000c8
 8001dd8:	200009d0 	.word	0x200009d0
 8001ddc:	20000a10 	.word	0x20000a10

08001de0 <open>:
{
 8001de0:	b40e      	push	{r1, r2, r3}
 8001de2:	b570      	push	{r4, r5, r6, lr}
 8001de4:	b085      	sub	sp, #20
 8001de6:	0005      	movs	r5, r0
    int fildes = reserve_filehandle();
 8001de8:	f7ff ff22 	bl	8001c30 <_ZL18reserve_filehandlev>
 8001dec:	1e04      	subs	r4, r0, #0
    if (fildes < 0) {
 8001dee:	db1c      	blt.n	8001e2a <open+0x4a>
    FileHandle *res = NULL;
 8001df0:	2300      	movs	r3, #0
 8001df2:	9303      	str	r3, [sp, #12]
    FilePath path(name);
 8001df4:	0029      	movs	r1, r5
 8001df6:	a801      	add	r0, sp, #4
 8001df8:	f7ff fca0 	bl	800173c <_ZN4mbed8FilePathC1EPKc>
    if (!path.exists()) {
 8001dfc:	a801      	add	r0, sp, #4
 8001dfe:	f7ff fcf6 	bl	80017ee <_ZN4mbed8FilePath6existsEv>
 8001e02:	2800      	cmp	r0, #0
 8001e04:	d017      	beq.n	8001e36 <open+0x56>
    if (path.isFile()) {
 8001e06:	a801      	add	r0, sp, #4
 8001e08:	f7ff fcd6 	bl	80017b8 <_ZN4mbed8FilePath6isFileEv>
 8001e0c:	2800      	cmp	r0, #0
 8001e0e:	d018      	beq.n	8001e42 <open+0x62>
        res = path.file();
 8001e10:	a801      	add	r0, sp, #4
 8001e12:	f7ff fcdd 	bl	80017d0 <_ZN4mbed8FilePath4fileEv>
 8001e16:	9003      	str	r0, [sp, #12]
    filehandles[fildes] = res;
 8001e18:	00a3      	lsls	r3, r4, #2
 8001e1a:	4a18      	ldr	r2, [pc, #96]	; (8001e7c <open+0x9c>)
 8001e1c:	9903      	ldr	r1, [sp, #12]
 8001e1e:	5099      	str	r1, [r3, r2]
    stdio_in_prev[fildes] = 0;
 8001e20:	2300      	movs	r3, #0
 8001e22:	4a17      	ldr	r2, [pc, #92]	; (8001e80 <open+0xa0>)
 8001e24:	5513      	strb	r3, [r2, r4]
    stdio_out_prev[fildes] = 0;
 8001e26:	4a17      	ldr	r2, [pc, #92]	; (8001e84 <open+0xa4>)
 8001e28:	5513      	strb	r3, [r2, r4]
}
 8001e2a:	0020      	movs	r0, r4
 8001e2c:	b005      	add	sp, #20
 8001e2e:	bc70      	pop	{r4, r5, r6}
 8001e30:	bc08      	pop	{r3}
 8001e32:	b003      	add	sp, #12
 8001e34:	4718      	bx	r3
        return handle_open_errors(-ENODEV, fildes);
 8001e36:	0021      	movs	r1, r4
 8001e38:	3813      	subs	r0, #19
 8001e3a:	f7ff fee9 	bl	8001c10 <_ZL18handle_open_errorsij>
 8001e3e:	0004      	movs	r4, r0
 8001e40:	e7f3      	b.n	8001e2a <open+0x4a>
        FileSystemHandle *fs = path.fileSystem();
 8001e42:	a801      	add	r0, sp, #4
 8001e44:	f7ff fca9 	bl	800179a <_ZN4mbed8FilePath10fileSystemEv>
 8001e48:	1e05      	subs	r5, r0, #0
        if (fs == NULL) {
 8001e4a:	d010      	beq.n	8001e6e <open+0x8e>
        int err = fs->open(&res, path.fileName(), oflag);
 8001e4c:	6803      	ldr	r3, [r0, #0]
 8001e4e:	689e      	ldr	r6, [r3, #8]
 8001e50:	a801      	add	r0, sp, #4
 8001e52:	f7ff fc93 	bl	800177c <_ZN4mbed8FilePath8fileNameEv>
 8001e56:	0002      	movs	r2, r0
 8001e58:	9b09      	ldr	r3, [sp, #36]	; 0x24
 8001e5a:	a903      	add	r1, sp, #12
 8001e5c:	0028      	movs	r0, r5
 8001e5e:	47b0      	blx	r6
        if (err) {
 8001e60:	2800      	cmp	r0, #0
 8001e62:	d0d9      	beq.n	8001e18 <open+0x38>
            return handle_open_errors(err, fildes);
 8001e64:	0021      	movs	r1, r4
 8001e66:	f7ff fed3 	bl	8001c10 <_ZL18handle_open_errorsij>
 8001e6a:	0004      	movs	r4, r0
 8001e6c:	e7dd      	b.n	8001e2a <open+0x4a>
            return handle_open_errors(-ENODEV, fildes);
 8001e6e:	0021      	movs	r1, r4
 8001e70:	2013      	movs	r0, #19
 8001e72:	4240      	negs	r0, r0
 8001e74:	f7ff fecc 	bl	8001c10 <_ZL18handle_open_errorsij>
 8001e78:	0004      	movs	r4, r0
 8001e7a:	e7d6      	b.n	8001e2a <open+0x4a>
 8001e7c:	200000c8 	.word	0x200000c8
 8001e80:	200009d0 	.word	0x200009d0
 8001e84:	20000a10 	.word	0x20000a10

08001e88 <_open>:
{
 8001e88:	b570      	push	{r4, r5, r6, lr}
 8001e8a:	b082      	sub	sp, #8
 8001e8c:	0005      	movs	r5, r0
 8001e8e:	000e      	movs	r6, r1
    if (std::strcmp(name, __stdin_name) == 0) {
 8001e90:	4918      	ldr	r1, [pc, #96]	; (8001ef4 <_open+0x6c>)
 8001e92:	f7fe f939 	bl	8000108 <strcmp>
 8001e96:	1e04      	subs	r4, r0, #0
 8001e98:	d015      	beq.n	8001ec6 <_open+0x3e>
    } else if (std::strcmp(name, __stdout_name) == 0) {
 8001e9a:	4917      	ldr	r1, [pc, #92]	; (8001ef8 <_open+0x70>)
 8001e9c:	0028      	movs	r0, r5
 8001e9e:	f7fe f933 	bl	8000108 <strcmp>
 8001ea2:	2800      	cmp	r0, #0
 8001ea4:	d013      	beq.n	8001ece <_open+0x46>
    } else if (std::strcmp(name, __stderr_name) == 0) {
 8001ea6:	4915      	ldr	r1, [pc, #84]	; (8001efc <_open+0x74>)
 8001ea8:	0028      	movs	r0, r5
 8001eaa:	f7fe f92d 	bl	8000108 <strcmp>
 8001eae:	2800      	cmp	r0, #0
 8001eb0:	d012      	beq.n	8001ed8 <_open+0x50>
    if (name[0] == '@') {
 8001eb2:	782b      	ldrb	r3, [r5, #0]
 8001eb4:	2b40      	cmp	r3, #64	; 0x40
 8001eb6:	d016      	beq.n	8001ee6 <_open+0x5e>
    posix &= ~O_BINARY;
 8001eb8:	4911      	ldr	r1, [pc, #68]	; (8001f00 <_open+0x78>)
 8001eba:	4031      	ands	r1, r6
    return open(name, openflags_to_posix(openflags));
 8001ebc:	0028      	movs	r0, r5
 8001ebe:	f7ff ff8f 	bl	8001de0 <open>
 8001ec2:	0004      	movs	r4, r0
 8001ec4:	e00c      	b.n	8001ee0 <_open+0x58>
        get_fhc(STDIN_FILENO);
 8001ec6:	2000      	movs	r0, #0
 8001ec8:	f7ff ff5c 	bl	8001d84 <_ZL7get_fhci>
        return STDIN_FILENO;
 8001ecc:	e008      	b.n	8001ee0 <_open+0x58>
        get_fhc(STDOUT_FILENO);
 8001ece:	3001      	adds	r0, #1
 8001ed0:	f7ff ff58 	bl	8001d84 <_ZL7get_fhci>
        return STDOUT_FILENO;
 8001ed4:	2401      	movs	r4, #1
 8001ed6:	e003      	b.n	8001ee0 <_open+0x58>
        get_fhc(STDERR_FILENO);
 8001ed8:	3002      	adds	r0, #2
 8001eda:	f7ff ff53 	bl	8001d84 <_ZL7get_fhci>
        return STDERR_FILENO;
 8001ede:	2402      	movs	r4, #2
}
 8001ee0:	0020      	movs	r0, r4
 8001ee2:	b002      	add	sp, #8
 8001ee4:	bd70      	pop	{r4, r5, r6, pc}
        memcpy(&fd, name + 1, sizeof fd);
 8001ee6:	1c69      	adds	r1, r5, #1
 8001ee8:	2204      	movs	r2, #4
 8001eea:	a801      	add	r0, sp, #4
 8001eec:	f002 fee6 	bl	8004cbc <memcpy>
        return fd;
 8001ef0:	9c01      	ldr	r4, [sp, #4]
 8001ef2:	e7f5      	b.n	8001ee0 <_open+0x58>
 8001ef4:	0800589c 	.word	0x0800589c
 8001ef8:	080058a4 	.word	0x080058a4
 8001efc:	08005894 	.word	0x08005894
 8001f00:	ffff7fff 	.word	0xffff7fff

08001f04 <close>:
{
 8001f04:	b510      	push	{r4, lr}
 8001f06:	0004      	movs	r4, r0
    FileHandle *fhc = get_fhc(fildes);
 8001f08:	f7ff ff3c 	bl	8001d84 <_ZL7get_fhci>
    filehandles[fildes] = NULL;
 8001f0c:	00a4      	lsls	r4, r4, #2
 8001f0e:	2200      	movs	r2, #0
 8001f10:	4b0c      	ldr	r3, [pc, #48]	; (8001f44 <close+0x40>)
 8001f12:	50e2      	str	r2, [r4, r3]
    if (fhc == NULL) {
 8001f14:	2800      	cmp	r0, #0
 8001f16:	d006      	beq.n	8001f26 <close+0x22>
    int err = fhc->close();
 8001f18:	6803      	ldr	r3, [r0, #0]
 8001f1a:	695b      	ldr	r3, [r3, #20]
 8001f1c:	4798      	blx	r3
 8001f1e:	1e04      	subs	r4, r0, #0
    if (err < 0) {
 8001f20:	db08      	blt.n	8001f34 <close+0x30>
        return 0;
 8001f22:	2000      	movs	r0, #0
}
 8001f24:	bd10      	pop	{r4, pc}
        errno = EBADF;
 8001f26:	f001 fded 	bl	8003b04 <__errno>
 8001f2a:	2309      	movs	r3, #9
 8001f2c:	6003      	str	r3, [r0, #0]
        return -1;
 8001f2e:	2001      	movs	r0, #1
 8001f30:	4240      	negs	r0, r0
 8001f32:	e7f7      	b.n	8001f24 <close+0x20>
        errno = -err;
 8001f34:	f001 fde6 	bl	8003b04 <__errno>
 8001f38:	4264      	negs	r4, r4
 8001f3a:	6004      	str	r4, [r0, #0]
        return -1;
 8001f3c:	2001      	movs	r0, #1
 8001f3e:	4240      	negs	r0, r0
 8001f40:	e7f0      	b.n	8001f24 <close+0x20>
 8001f42:	46c0      	nop			; (mov r8, r8)
 8001f44:	200000c8 	.word	0x200000c8

08001f48 <_close>:
{
 8001f48:	b510      	push	{r4, lr}
    return close(fh);
 8001f4a:	f7ff ffdb 	bl	8001f04 <close>
}
 8001f4e:	bd10      	pop	{r4, pc}

08001f50 <write>:
    return written;
#endif
}

extern "C" ssize_t write(int fildes, const void *buf, size_t length)
{
 8001f50:	b570      	push	{r4, r5, r6, lr}
 8001f52:	000c      	movs	r4, r1
 8001f54:	0015      	movs	r5, r2

    FileHandle *fhc = get_fhc(fildes);
 8001f56:	f7ff ff15 	bl	8001d84 <_ZL7get_fhci>
    if (fhc == NULL) {
 8001f5a:	2800      	cmp	r0, #0
 8001f5c:	d008      	beq.n	8001f70 <write+0x20>
        errno = EBADF;
        return -1;
    }

    ssize_t ret = fhc->write(buf, length);
 8001f5e:	6803      	ldr	r3, [r0, #0]
 8001f60:	68db      	ldr	r3, [r3, #12]
 8001f62:	002a      	movs	r2, r5
 8001f64:	0021      	movs	r1, r4
 8001f66:	4798      	blx	r3
 8001f68:	1e04      	subs	r4, r0, #0
    if (ret < 0) {
 8001f6a:	db08      	blt.n	8001f7e <write+0x2e>
        errno = -ret;
        return -1;
    } else {
        return ret;
    }
}
 8001f6c:	0020      	movs	r0, r4
 8001f6e:	bd70      	pop	{r4, r5, r6, pc}
        errno = EBADF;
 8001f70:	f001 fdc8 	bl	8003b04 <__errno>
 8001f74:	2309      	movs	r3, #9
 8001f76:	6003      	str	r3, [r0, #0]
        return -1;
 8001f78:	2401      	movs	r4, #1
 8001f7a:	4264      	negs	r4, r4
 8001f7c:	e7f6      	b.n	8001f6c <write+0x1c>
        errno = -ret;
 8001f7e:	f001 fdc1 	bl	8003b04 <__errno>
 8001f82:	4264      	negs	r4, r4
 8001f84:	6004      	str	r4, [r0, #0]
        return -1;
 8001f86:	2401      	movs	r4, #1
 8001f88:	4264      	negs	r4, r4
 8001f8a:	e7ef      	b.n	8001f6c <write+0x1c>

08001f8c <_write>:
{
 8001f8c:	b5f0      	push	{r4, r5, r6, r7, lr}
 8001f8e:	46d6      	mov	lr, sl
 8001f90:	4647      	mov	r7, r8
 8001f92:	b580      	push	{r7, lr}
 8001f94:	b083      	sub	sp, #12
 8001f96:	9001      	str	r0, [sp, #4]
 8001f98:	4688      	mov	r8, r1
 8001f9a:	4692      	mov	sl, r2
    if (length > SSIZE_MAX) {
 8001f9c:	2a00      	cmp	r2, #0
 8001f9e:	db0a      	blt.n	8001fb6 <_write+0x2a>
    if (convert_crlf(fh)) {
 8001fa0:	9c01      	ldr	r4, [sp, #4]
 8001fa2:	0020      	movs	r0, r4
 8001fa4:	f7ff fdd4 	bl	8001b50 <_ZL12convert_crlfi>
 8001fa8:	2800      	cmp	r0, #0
 8001faa:	d033      	beq.n	8002014 <_write+0x88>
        char prev = stdio_out_prev[fh];
 8001fac:	4b2c      	ldr	r3, [pc, #176]	; (8002060 <_write+0xd4>)
 8001fae:	5d1f      	ldrb	r7, [r3, r4]
        for (ssize_t cur = 0; cur < slength; cur++) {
 8001fb0:	2400      	movs	r4, #0
    ssize_t written = 0;
 8001fb2:	2600      	movs	r6, #0
 8001fb4:	e014      	b.n	8001fe0 <_write+0x54>
        errno = EINVAL;
 8001fb6:	f001 fda5 	bl	8003b04 <__errno>
 8001fba:	2316      	movs	r3, #22
 8001fbc:	6003      	str	r3, [r0, #0]
        return -1;
 8001fbe:	2601      	movs	r6, #1
 8001fc0:	4276      	negs	r6, r6
 8001fc2:	e02a      	b.n	800201a <_write+0x8e>
                r = write(fh, "\r", 1);
 8001fc4:	2201      	movs	r2, #1
 8001fc6:	4927      	ldr	r1, [pc, #156]	; (8002064 <_write+0xd8>)
 8001fc8:	9f01      	ldr	r7, [sp, #4]
 8001fca:	0038      	movs	r0, r7
 8001fcc:	f7ff ffc0 	bl	8001f50 <write>
                if (r < 0) {
 8001fd0:	2800      	cmp	r0, #0
 8001fd2:	db3f      	blt.n	8002054 <_write+0xc8>
                if (r < 1) {
 8001fd4:	dd21      	ble.n	800201a <_write+0x8e>
                stdio_out_prev[fh] = '\r';
 8001fd6:	220d      	movs	r2, #13
 8001fd8:	4b21      	ldr	r3, [pc, #132]	; (8002060 <_write+0xd4>)
 8001fda:	55da      	strb	r2, [r3, r7]
            prev = buffer[cur];
 8001fdc:	782f      	ldrb	r7, [r5, #0]
        for (ssize_t cur = 0; cur < slength; cur++) {
 8001fde:	3401      	adds	r4, #1
 8001fe0:	4554      	cmp	r4, sl
 8001fe2:	da18      	bge.n	8002016 <_write+0x8a>
            if (buffer[cur] == '\n' && prev != '\r') {
 8001fe4:	4643      	mov	r3, r8
 8001fe6:	191d      	adds	r5, r3, r4
 8001fe8:	782b      	ldrb	r3, [r5, #0]
 8001fea:	2b0a      	cmp	r3, #10
 8001fec:	d1f6      	bne.n	8001fdc <_write+0x50>
 8001fee:	2f0d      	cmp	r7, #13
 8001ff0:	d0f4      	beq.n	8001fdc <_write+0x50>
                if (cur > written) {
 8001ff2:	42a6      	cmp	r6, r4
 8001ff4:	dae6      	bge.n	8001fc4 <_write+0x38>
                    r = write(fh, buffer + written, cur - written);
 8001ff6:	4643      	mov	r3, r8
 8001ff8:	1999      	adds	r1, r3, r6
 8001ffa:	1ba2      	subs	r2, r4, r6
 8001ffc:	9801      	ldr	r0, [sp, #4]
 8001ffe:	f7ff ffa7 	bl	8001f50 <write>
                    if (r < 0) {
 8002002:	2800      	cmp	r0, #0
 8002004:	db23      	blt.n	800204e <_write+0xc2>
                    written += r;
 8002006:	1836      	adds	r6, r6, r0
                    if (written < cur) {
 8002008:	42b4      	cmp	r4, r6
 800200a:	dc06      	bgt.n	800201a <_write+0x8e>
                    stdio_out_prev[fh] = prev;
 800200c:	4b14      	ldr	r3, [pc, #80]	; (8002060 <_write+0xd4>)
 800200e:	9a01      	ldr	r2, [sp, #4]
 8002010:	549f      	strb	r7, [r3, r2]
 8002012:	e7d7      	b.n	8001fc4 <_write+0x38>
    ssize_t written = 0;
 8002014:	2600      	movs	r6, #0
    if (written < slength) {
 8002016:	4556      	cmp	r6, sl
 8002018:	db05      	blt.n	8002026 <_write+0x9a>
}
 800201a:	0030      	movs	r0, r6
 800201c:	b003      	add	sp, #12
 800201e:	bc0c      	pop	{r2, r3}
 8002020:	4690      	mov	r8, r2
 8002022:	469a      	mov	sl, r3
 8002024:	bdf0      	pop	{r4, r5, r6, r7, pc}
        ssize_t r = write(fh, buffer + written, slength - written);
 8002026:	4643      	mov	r3, r8
 8002028:	1999      	adds	r1, r3, r6
 800202a:	4653      	mov	r3, sl
 800202c:	1b9a      	subs	r2, r3, r6
 800202e:	9c01      	ldr	r4, [sp, #4]
 8002030:	0020      	movs	r0, r4
 8002032:	f7ff ff8d 	bl	8001f50 <write>
        if (r < 0) {
 8002036:	2800      	cmp	r0, #0
 8002038:	db0f      	blt.n	800205a <_write+0xce>
        written += r;
 800203a:	1836      	adds	r6, r6, r0
        if (written > 0) {
 800203c:	2e00      	cmp	r6, #0
 800203e:	ddec      	ble.n	800201a <_write+0x8e>
            stdio_out_prev[fh] = buffer[written - 1];
 8002040:	4643      	mov	r3, r8
 8002042:	199b      	adds	r3, r3, r6
 8002044:	3b01      	subs	r3, #1
 8002046:	781a      	ldrb	r2, [r3, #0]
 8002048:	4b05      	ldr	r3, [pc, #20]	; (8002060 <_write+0xd4>)
 800204a:	551a      	strb	r2, [r3, r4]
 800204c:	e7e5      	b.n	800201a <_write+0x8e>
                        return -1;
 800204e:	2601      	movs	r6, #1
 8002050:	4276      	negs	r6, r6
 8002052:	e7e2      	b.n	800201a <_write+0x8e>
                    return -1;
 8002054:	2601      	movs	r6, #1
 8002056:	4276      	negs	r6, r6
 8002058:	e7df      	b.n	800201a <_write+0x8e>
            return -1;
 800205a:	2601      	movs	r6, #1
 800205c:	4276      	negs	r6, r6
 800205e:	e7dc      	b.n	800201a <_write+0x8e>
 8002060:	20000a10 	.word	0x20000a10
 8002064:	080058ac 	.word	0x080058ac

08002068 <read>:
    return bytes_read;
#endif
}

extern "C" ssize_t read(int fildes, void *buf, size_t length)
{
 8002068:	b570      	push	{r4, r5, r6, lr}
 800206a:	000c      	movs	r4, r1
 800206c:	0015      	movs	r5, r2

    FileHandle *fhc = get_fhc(fildes);
 800206e:	f7ff fe89 	bl	8001d84 <_ZL7get_fhci>
    if (fhc == NULL) {
 8002072:	2800      	cmp	r0, #0
 8002074:	d008      	beq.n	8002088 <read+0x20>
        errno = EBADF;
        return -1;
    }

    ssize_t ret = fhc->read(buf, length);
 8002076:	6803      	ldr	r3, [r0, #0]
 8002078:	689b      	ldr	r3, [r3, #8]
 800207a:	002a      	movs	r2, r5
 800207c:	0021      	movs	r1, r4
 800207e:	4798      	blx	r3
 8002080:	1e04      	subs	r4, r0, #0
    if (ret < 0) {
 8002082:	db08      	blt.n	8002096 <read+0x2e>
        errno = -ret;
        return -1;
    } else {
        return ret;
    }
}
 8002084:	0020      	movs	r0, r4
 8002086:	bd70      	pop	{r4, r5, r6, pc}
        errno = EBADF;
 8002088:	f001 fd3c 	bl	8003b04 <__errno>
 800208c:	2309      	movs	r3, #9
 800208e:	6003      	str	r3, [r0, #0]
        return -1;
 8002090:	2401      	movs	r4, #1
 8002092:	4264      	negs	r4, r4
 8002094:	e7f6      	b.n	8002084 <read+0x1c>
        errno = -ret;
 8002096:	f001 fd35 	bl	8003b04 <__errno>
 800209a:	4264      	negs	r4, r4
 800209c:	6004      	str	r4, [r0, #0]
        return -1;
 800209e:	2401      	movs	r4, #1
 80020a0:	4264      	negs	r4, r4
 80020a2:	e7ef      	b.n	8002084 <read+0x1c>

080020a4 <_read>:
{
 80020a4:	b570      	push	{r4, r5, r6, lr}
 80020a6:	b082      	sub	sp, #8
 80020a8:	0004      	movs	r4, r0
 80020aa:	000d      	movs	r5, r1
 80020ac:	1e16      	subs	r6, r2, #0
    if (length > SSIZE_MAX) {
 80020ae:	db09      	blt.n	80020c4 <_read+0x20>
    if (convert_crlf(fh)) {
 80020b0:	f7ff fd4e 	bl	8001b50 <_ZL12convert_crlfi>
 80020b4:	2800      	cmp	r0, #0
 80020b6:	d122      	bne.n	80020fe <_read+0x5a>
        bytes_read = read(fh, buffer, length);
 80020b8:	0032      	movs	r2, r6
 80020ba:	0029      	movs	r1, r5
 80020bc:	0020      	movs	r0, r4
 80020be:	f7ff ffd3 	bl	8002068 <read>
 80020c2:	e037      	b.n	8002134 <_read+0x90>
        errno = EINVAL;
 80020c4:	f001 fd1e 	bl	8003b04 <__errno>
 80020c8:	2316      	movs	r3, #22
 80020ca:	6003      	str	r3, [r0, #0]
        return -1;
 80020cc:	2001      	movs	r0, #1
 80020ce:	4240      	negs	r0, r0
 80020d0:	e030      	b.n	8002134 <_read+0x90>
            if ((c == '\r' && stdio_in_prev[fh] != '\n') ||
 80020d2:	4a1b      	ldr	r2, [pc, #108]	; (8002140 <_read+0x9c>)
 80020d4:	5d12      	ldrb	r2, [r2, r4]
 80020d6:	2a0a      	cmp	r2, #10
 80020d8:	d01f      	beq.n	800211a <_read+0x76>
                stdio_in_prev[fh] = c;
 80020da:	4a19      	ldr	r2, [pc, #100]	; (8002140 <_read+0x9c>)
 80020dc:	5513      	strb	r3, [r2, r4]
                *buffer = '\n';
 80020de:	230a      	movs	r3, #10
 80020e0:	702b      	strb	r3, [r5, #0]
                break;
 80020e2:	e026      	b.n	8002132 <_read+0x8e>
                    (c == '\n' && stdio_in_prev[fh] != '\r')) {
 80020e4:	4a16      	ldr	r2, [pc, #88]	; (8002140 <_read+0x9c>)
 80020e6:	5d12      	ldrb	r2, [r2, r4]
 80020e8:	2a0d      	cmp	r2, #13
 80020ea:	d018      	beq.n	800211e <_read+0x7a>
 80020ec:	e7f5      	b.n	80020da <_read+0x36>
            } else if ((c == '\r' && stdio_in_prev[fh] == '\n') ||
 80020ee:	2b0a      	cmp	r3, #10
 80020f0:	d11c      	bne.n	800212c <_read+0x88>
                       (c == '\n' && stdio_in_prev[fh] == '\r')) {
 80020f2:	4a13      	ldr	r2, [pc, #76]	; (8002140 <_read+0x9c>)
 80020f4:	5d12      	ldrb	r2, [r2, r4]
 80020f6:	2a0d      	cmp	r2, #13
 80020f8:	d118      	bne.n	800212c <_read+0x88>
                stdio_in_prev[fh] = c;
 80020fa:	4a11      	ldr	r2, [pc, #68]	; (8002140 <_read+0x9c>)
 80020fc:	5513      	strb	r3, [r2, r4]
            ssize_t r = read(fh, &c, 1);
 80020fe:	2201      	movs	r2, #1
 8002100:	466b      	mov	r3, sp
 8002102:	1dd9      	adds	r1, r3, #7
 8002104:	0020      	movs	r0, r4
 8002106:	f7ff ffaf 	bl	8002068 <read>
            if (r < 0) {
 800210a:	2800      	cmp	r0, #0
 800210c:	db14      	blt.n	8002138 <_read+0x94>
            if (r == 0) {
 800210e:	d011      	beq.n	8002134 <_read+0x90>
            if ((c == '\r' && stdio_in_prev[fh] != '\n') ||
 8002110:	466b      	mov	r3, sp
 8002112:	3307      	adds	r3, #7
 8002114:	781b      	ldrb	r3, [r3, #0]
 8002116:	2b0d      	cmp	r3, #13
 8002118:	d0db      	beq.n	80020d2 <_read+0x2e>
 800211a:	2b0a      	cmp	r3, #10
 800211c:	d0e2      	beq.n	80020e4 <_read+0x40>
            } else if ((c == '\r' && stdio_in_prev[fh] == '\n') ||
 800211e:	2b0d      	cmp	r3, #13
 8002120:	d1e5      	bne.n	80020ee <_read+0x4a>
 8002122:	4a07      	ldr	r2, [pc, #28]	; (8002140 <_read+0x9c>)
 8002124:	5d12      	ldrb	r2, [r2, r4]
 8002126:	2a0a      	cmp	r2, #10
 8002128:	d1e1      	bne.n	80020ee <_read+0x4a>
 800212a:	e7e6      	b.n	80020fa <_read+0x56>
                stdio_in_prev[fh] = c;
 800212c:	4a04      	ldr	r2, [pc, #16]	; (8002140 <_read+0x9c>)
 800212e:	5513      	strb	r3, [r2, r4]
                *buffer = c;
 8002130:	702b      	strb	r3, [r5, #0]
        bytes_read = 1;
 8002132:	2001      	movs	r0, #1
}
 8002134:	b002      	add	sp, #8
 8002136:	bd70      	pop	{r4, r5, r6, pc}
                return -1;
 8002138:	2001      	movs	r0, #1
 800213a:	4240      	negs	r0, r0
 800213c:	e7fa      	b.n	8002134 <_read+0x90>
 800213e:	46c0      	nop			; (mov r8, r8)
 8002140:	200009d0 	.word	0x200009d0

08002144 <isatty>:
{
    return isatty(fh);
}

extern "C" int isatty(int fildes)
{
 8002144:	b510      	push	{r4, lr}
    FileHandle *fhc = get_fhc(fildes);
 8002146:	f7ff fe1d 	bl	8001d84 <_ZL7get_fhci>
    if (fhc == NULL) {
 800214a:	2800      	cmp	r0, #0
 800214c:	d006      	beq.n	800215c <isatty+0x18>
        errno = EBADF;
        return 0;
    }

    int tty = fhc->isatty();
 800214e:	6803      	ldr	r3, [r0, #0]
 8002150:	69db      	ldr	r3, [r3, #28]
 8002152:	4798      	blx	r3
 8002154:	1e04      	subs	r4, r0, #0
    if (tty < 0) {
 8002156:	db07      	blt.n	8002168 <isatty+0x24>
        errno = -tty;
        return 0;
    } else {
        return tty;
    }
}
 8002158:	0020      	movs	r0, r4
 800215a:	bd10      	pop	{r4, pc}
        errno = EBADF;
 800215c:	f001 fcd2 	bl	8003b04 <__errno>
 8002160:	2309      	movs	r3, #9
 8002162:	6003      	str	r3, [r0, #0]
        return 0;
 8002164:	2400      	movs	r4, #0
 8002166:	e7f7      	b.n	8002158 <isatty+0x14>
        errno = -tty;
 8002168:	f001 fccc 	bl	8003b04 <__errno>
 800216c:	4264      	negs	r4, r4
 800216e:	6004      	str	r4, [r0, #0]
        return 0;
 8002170:	2400      	movs	r4, #0
 8002172:	e7f1      	b.n	8002158 <isatty+0x14>

08002174 <_isatty>:
{
 8002174:	b510      	push	{r4, lr}
    return isatty(fh);
 8002176:	f7ff ffe5 	bl	8002144 <isatty>
}
 800217a:	bd10      	pop	{r4, pc}

0800217c <lseek>:
    }
    return off;
}

extern "C" off_t lseek(int fildes, off_t offset, int whence)
{
 800217c:	b570      	push	{r4, r5, r6, lr}
 800217e:	000c      	movs	r4, r1
 8002180:	0015      	movs	r5, r2
    FileHandle *fhc = get_fhc(fildes);
 8002182:	f7ff fdff 	bl	8001d84 <_ZL7get_fhci>
    if (fhc == NULL) {
 8002186:	2800      	cmp	r0, #0
 8002188:	d008      	beq.n	800219c <lseek+0x20>
        errno = EBADF;
        return -1;
    }

    off_t off = fhc->seek(offset, whence);
 800218a:	6803      	ldr	r3, [r0, #0]
 800218c:	691b      	ldr	r3, [r3, #16]
 800218e:	002a      	movs	r2, r5
 8002190:	0021      	movs	r1, r4
 8002192:	4798      	blx	r3
 8002194:	1e04      	subs	r4, r0, #0
    if (off < 0) {
 8002196:	db08      	blt.n	80021aa <lseek+0x2e>
        errno = -off;
        return -1;
    }
    return off;
}
 8002198:	0020      	movs	r0, r4
 800219a:	bd70      	pop	{r4, r5, r6, pc}
        errno = EBADF;
 800219c:	f001 fcb2 	bl	8003b04 <__errno>
 80021a0:	2309      	movs	r3, #9
 80021a2:	6003      	str	r3, [r0, #0]
        return -1;
 80021a4:	2401      	movs	r4, #1
 80021a6:	4264      	negs	r4, r4
 80021a8:	e7f6      	b.n	8002198 <lseek+0x1c>
        errno = -off;
 80021aa:	f001 fcab 	bl	8003b04 <__errno>
 80021ae:	4264      	negs	r4, r4
 80021b0:	6004      	str	r4, [r0, #0]
        return -1;
 80021b2:	2401      	movs	r4, #1
 80021b4:	4264      	negs	r4, r4
 80021b6:	e7ef      	b.n	8002198 <lseek+0x1c>

080021b8 <_lseek>:
{
 80021b8:	b510      	push	{r4, lr}
    off_t off = lseek(fh, offset, whence);
 80021ba:	f7ff ffdf 	bl	800217c <lseek>
}
 80021be:	bd10      	pop	{r4, pc}

080021c0 <fstat>:
    return fstat(fh, st);
}
#endif

extern "C" int fstat(int fildes, struct stat *st)
{
 80021c0:	b570      	push	{r4, r5, r6, lr}
 80021c2:	000d      	movs	r5, r1
    FileHandle *fhc = get_fhc(fildes);
 80021c4:	f7ff fdde 	bl	8001d84 <_ZL7get_fhci>
 80021c8:	1e04      	subs	r4, r0, #0
    if (fhc == NULL) {
 80021ca:	d00e      	beq.n	80021ea <fstat+0x2a>
        errno = EBADF;
        return -1;
    }

    st->st_mode = fhc->isatty() ? S_IFCHR : S_IFREG;
 80021cc:	6803      	ldr	r3, [r0, #0]
 80021ce:	69db      	ldr	r3, [r3, #28]
 80021d0:	4798      	blx	r3
 80021d2:	2800      	cmp	r0, #0
 80021d4:	d010      	beq.n	80021f8 <fstat+0x38>
 80021d6:	2380      	movs	r3, #128	; 0x80
 80021d8:	019b      	lsls	r3, r3, #6
 80021da:	606b      	str	r3, [r5, #4]
    st->st_size = fhc->size();
 80021dc:	6823      	ldr	r3, [r4, #0]
 80021de:	6a9b      	ldr	r3, [r3, #40]	; 0x28
 80021e0:	0020      	movs	r0, r4
 80021e2:	4798      	blx	r3
 80021e4:	6128      	str	r0, [r5, #16]
    return 0;
 80021e6:	2000      	movs	r0, #0
}
 80021e8:	bd70      	pop	{r4, r5, r6, pc}
        errno = EBADF;
 80021ea:	f001 fc8b 	bl	8003b04 <__errno>
 80021ee:	2309      	movs	r3, #9
 80021f0:	6003      	str	r3, [r0, #0]
        return -1;
 80021f2:	2001      	movs	r0, #1
 80021f4:	4240      	negs	r0, r0
 80021f6:	e7f7      	b.n	80021e8 <fstat+0x28>
    st->st_mode = fhc->isatty() ? S_IFCHR : S_IFREG;
 80021f8:	2380      	movs	r3, #128	; 0x80
 80021fa:	021b      	lsls	r3, r3, #8
 80021fc:	e7ed      	b.n	80021da <fstat+0x1a>

080021fe <_fstat>:
{
 80021fe:	b510      	push	{r4, lr}
    return fstat(fh, st);
 8002200:	f7ff ffde 	bl	80021c0 <fstat>
}
 8002204:	bd10      	pop	{r4, pc}

08002206 <__cxa_pure_virtual>:
    MBED_ERROR1(MBED_MAKE_ERROR(MBED_MODULE_PLATFORM, MBED_ERROR_CODE_CLIB_EXCEPTION), "Exception", 0);
}
}
extern "C" WEAK void __cxa_pure_virtual(void);
extern "C" WEAK void __cxa_pure_virtual(void)
{
 8002206:	b510      	push	{r4, lr}
    exit(1);
 8002208:	2001      	movs	r0, #1
 800220a:	f001 fc81 	bl	8003b10 <exit>
	...

08002210 <_sbrk>:
extern "C" uint32_t __end__;
// Weak attribute allows user to override, e.g. to use external RAM for dynamic memory.
extern "C" WEAK caddr_t _sbrk(int incr)
{
    static unsigned char *heap = (unsigned char *)&__end__;
    unsigned char        *prev_heap = heap;
 8002210:	4b0f      	ldr	r3, [pc, #60]	; (8002250 <_sbrk+0x40>)
 8002212:	681b      	ldr	r3, [r3, #0]
    unsigned char        *new_heap = heap + incr;
 8002214:	1818      	adds	r0, r3, r0
  __ASM volatile ("MRS %0, msp" : "=r" (result) );
 8002216:	f3ef 8208 	mrs	r2, MSP

#if defined(TARGET_CORTEX_A)
    if (new_heap >= (unsigned char *)&__HeapLimit) {    /* __HeapLimit is end of heap section */
#else
    if (new_heap >= (unsigned char *)__get_MSP()) {
 800221a:	4290      	cmp	r0, r2
 800221c:	d20c      	bcs.n	8002238 <_sbrk+0x28>
        errno = ENOMEM;
        return (caddr_t) -1;
    }

    // Additional heap checking if set
    if (mbed_heap_size && (new_heap >= mbed_heap_start + mbed_heap_size)) {
 800221e:	4a0d      	ldr	r2, [pc, #52]	; (8002254 <_sbrk+0x44>)
 8002220:	6812      	ldr	r2, [r2, #0]
 8002222:	2a00      	cmp	r2, #0
 8002224:	d004      	beq.n	8002230 <_sbrk+0x20>
 8002226:	490c      	ldr	r1, [pc, #48]	; (8002258 <_sbrk+0x48>)
 8002228:	6809      	ldr	r1, [r1, #0]
 800222a:	188a      	adds	r2, r1, r2
 800222c:	4290      	cmp	r0, r2
 800222e:	d209      	bcs.n	8002244 <_sbrk+0x34>
        errno = ENOMEM;
        return (caddr_t) -1;
    }

    heap = new_heap;
 8002230:	4a07      	ldr	r2, [pc, #28]	; (8002250 <_sbrk+0x40>)
 8002232:	6010      	str	r0, [r2, #0]
    return (caddr_t) prev_heap;
 8002234:	0018      	movs	r0, r3
}
 8002236:	4770      	bx	lr
        errno = ENOMEM;
 8002238:	220c      	movs	r2, #12
 800223a:	4b08      	ldr	r3, [pc, #32]	; (800225c <_sbrk+0x4c>)
 800223c:	601a      	str	r2, [r3, #0]
        return (caddr_t) -1;
 800223e:	2001      	movs	r0, #1
 8002240:	4240      	negs	r0, r0
 8002242:	e7f8      	b.n	8002236 <_sbrk+0x26>
        errno = ENOMEM;
 8002244:	220c      	movs	r2, #12
 8002246:	4b05      	ldr	r3, [pc, #20]	; (800225c <_sbrk+0x4c>)
 8002248:	601a      	str	r2, [r3, #0]
        return (caddr_t) -1;
 800224a:	2001      	movs	r0, #1
 800224c:	4240      	negs	r0, r0
 800224e:	e7f2      	b.n	8002236 <_sbrk+0x26>
 8002250:	200001c8 	.word	0x200001c8
 8002254:	20000a5c 	.word	0x20000a5c
 8002258:	20000a60 	.word	0x20000a60
 800225c:	20000d20 	.word	0x20000d20

08002260 <_exit>:
#endif
#endif

#if defined(TOOLCHAIN_GCC_ARM) || defined(TOOLCHAIN_GCC_CR)
extern "C" void _exit(int return_code)
{
 8002260:	b570      	push	{r4, r5, r6, lr}
 8002262:	0005      	movs	r5, r0
{
#endif

#if DEVICE_STDIO_MESSAGES
#if MBED_CONF_PLATFORM_STDIO_FLUSH_AT_EXIT
    fflush(stdout);
 8002264:	4c07      	ldr	r4, [pc, #28]	; (8002284 <_exit+0x24>)
 8002266:	6823      	ldr	r3, [r4, #0]
 8002268:	6898      	ldr	r0, [r3, #8]
 800226a:	f001 fdb5 	bl	8003dd8 <fflush>
    fflush(stderr);
 800226e:	6823      	ldr	r3, [r4, #0]
 8002270:	68d8      	ldr	r0, [r3, #12]
 8002272:	f001 fdb1 	bl	8003dd8 <fflush>
#if DEVICE_SEMIHOST
    if (mbed_interface_connected()) {
        semihost_exit();
    }
#endif
    if (return_code) {
 8002276:	2d00      	cmp	r5, #0
 8002278:	d100      	bne.n	800227c <_exit+0x1c>
 800227a:	e7fe      	b.n	800227a <_exit+0x1a>
        mbed_die();
 800227c:	f7ff fb70 	bl	8001960 <mbed_die>
 8002280:	e7fb      	b.n	800227a <_exit+0x1a>
 8002282:	46c0      	nop			; (mov r8, r8)
 8002284:	200001d0 	.word	0x200001d0

08002288 <__aeabi_atexit>:
// http://infocenter.arm.com/help/index.jsp?topic=/com.arm.doc.faqs/6449.html
extern "C" {
    int __aeabi_atexit(void *object, void (*dtor)(void * /*this*/), void *handle)
    {
        return 1;
    }
 8002288:	2001      	movs	r0, #1
 800228a:	4770      	bx	lr

0800228c <_ZN4mbed26mbed_set_unbuffered_streamEP7__sFILE>:


namespace mbed {

void mbed_set_unbuffered_stream(std::FILE *_file)
{
 800228c:	b510      	push	{r4, lr}
#if defined (__ICCARM__)
    char buf[2];
    std::setvbuf(_file, buf, _IONBF, NULL);
#else
    setbuf(_file, NULL);
 800228e:	2100      	movs	r1, #0
 8002290:	f002 fe70 	bl	8004f74 <setbuf>
#endif
}
 8002294:	bd10      	pop	{r4, pc}

08002296 <fdopen>:
{
 8002296:	b530      	push	{r4, r5, lr}
 8002298:	b085      	sub	sp, #20
 800229a:	9001      	str	r0, [sp, #4]
 800229c:	000d      	movs	r5, r1
    buf[0] = '@';
 800229e:	ac02      	add	r4, sp, #8
 80022a0:	2340      	movs	r3, #64	; 0x40
 80022a2:	7023      	strb	r3, [r4, #0]
    memcpy(buf + 1, &fildes, sizeof fildes);
 80022a4:	2204      	movs	r2, #4
 80022a6:	a901      	add	r1, sp, #4
 80022a8:	2009      	movs	r0, #9
 80022aa:	4468      	add	r0, sp
 80022ac:	f002 fd06 	bl	8004cbc <memcpy>
    std::FILE *stream = std::fopen(buf, mode);
 80022b0:	0029      	movs	r1, r5
 80022b2:	0020      	movs	r0, r4
 80022b4:	f001 ff26 	bl	8004104 <fopen>
 80022b8:	1e04      	subs	r4, r0, #0
    if (stream && isatty(fildes)) {
 80022ba:	d00a      	beq.n	80022d2 <fdopen+0x3c>
 80022bc:	9801      	ldr	r0, [sp, #4]
 80022be:	f7ff ff41 	bl	8002144 <isatty>
 80022c2:	2800      	cmp	r0, #0
 80022c4:	d007      	beq.n	80022d6 <fdopen+0x40>
 80022c6:	2301      	movs	r3, #1
 80022c8:	2b00      	cmp	r3, #0
 80022ca:	d106      	bne.n	80022da <fdopen+0x44>
}
 80022cc:	0020      	movs	r0, r4
 80022ce:	b005      	add	sp, #20
 80022d0:	bd30      	pop	{r4, r5, pc}
    if (stream && isatty(fildes)) {
 80022d2:	2300      	movs	r3, #0
 80022d4:	e7f8      	b.n	80022c8 <fdopen+0x32>
 80022d6:	2300      	movs	r3, #0
 80022d8:	e7f6      	b.n	80022c8 <fdopen+0x32>
        mbed_set_unbuffered_stream(stream);
 80022da:	0020      	movs	r0, r4
 80022dc:	f7ff ffd6 	bl	800228c <_ZN4mbed26mbed_set_unbuffered_streamEP7__sFILE>
    return stream;
 80022e0:	e7f4      	b.n	80022cc <fdopen+0x36>

080022e2 <_ZN4mbed6fdopenEPNS_10FileHandleEPKc>:
{
 80022e2:	b570      	push	{r4, r5, r6, lr}
 80022e4:	0006      	movs	r6, r0
 80022e6:	000d      	movs	r5, r1
    int fd = bind_to_fd(fh);
 80022e8:	f7ff fd64 	bl	8001db4 <_ZN4mbed10bind_to_fdEPNS_10FileHandleE>
 80022ec:	1e04      	subs	r4, r0, #0
    if (!fd) {
 80022ee:	d00b      	beq.n	8002308 <_ZN4mbed6fdopenEPNS_10FileHandleEPKc+0x26>
    std::FILE *stream = ::fdopen(fd, mode);
 80022f0:	0029      	movs	r1, r5
 80022f2:	f7ff ffd0 	bl	8002296 <fdopen>
 80022f6:	1e05      	subs	r5, r0, #0
    if (!stream) {
 80022f8:	d001      	beq.n	80022fe <_ZN4mbed6fdopenEPNS_10FileHandleEPKc+0x1c>
}
 80022fa:	0028      	movs	r0, r5
 80022fc:	bd70      	pop	{r4, r5, r6, pc}
        unbind_from_fd(fd, fh);
 80022fe:	0031      	movs	r1, r6
 8002300:	0020      	movs	r0, r4
 8002302:	f7ff fc6f 	bl	8001be4 <_ZL14unbind_from_fdiPN4mbed10FileHandleE>
 8002306:	e7f8      	b.n	80022fa <_ZN4mbed6fdopenEPNS_10FileHandleEPKc+0x18>
        return NULL;
 8002308:	2500      	movs	r5, #0
 800230a:	e7f6      	b.n	80022fa <_ZN4mbed6fdopenEPNS_10FileHandleEPKc+0x18>

0800230c <_ZN4mbed9mbed_getcEP7__sFILE>:

int mbed_getc(std::FILE *_file)
{
 800230c:	b510      	push	{r4, lr}
        _file->_Rend = _file->_Wend;
        _file->_Next = _file->_Wend;
    }
    return res;
#else
    return std::fgetc(_file);
 800230e:	f001 fdb9 	bl	8003e84 <fgetc>
#endif
}
 8002312:	bd10      	pop	{r4, pc}

08002314 <__rtos_malloc_lock>:
#elif defined(__CC_ARM)
// Do nothing
#elif defined (__GNUC__)
struct _reent;
// Stub out locks when an rtos is not present
extern "C" WEAK void __rtos_malloc_lock(struct _reent *_r) {}
 8002314:	4770      	bx	lr

08002316 <__rtos_malloc_unlock>:
extern "C" WEAK void __rtos_malloc_unlock(struct _reent *_r) {}
 8002316:	4770      	bx	lr

08002318 <__malloc_lock>:
extern "C" WEAK void __rtos_env_lock(struct _reent *_r) {}
extern "C" WEAK void __rtos_env_unlock(struct _reent *_r) {}

extern "C" void __malloc_lock(struct _reent *_r)
{
 8002318:	b510      	push	{r4, lr}
    __rtos_malloc_lock(_r);
 800231a:	f7ff fffb 	bl	8002314 <__rtos_malloc_lock>
}
 800231e:	bd10      	pop	{r4, pc}

08002320 <__malloc_unlock>:

extern "C" void __malloc_unlock(struct _reent *_r)
{
 8002320:	b510      	push	{r4, lr}
    __rtos_malloc_unlock(_r);
 8002322:	f7ff fff8 	bl	8002316 <__rtos_malloc_unlock>
}
 8002326:	bd10      	pop	{r4, pc}

08002328 <_ZdlPv>:
{
    return malloc(count);
}

void operator delete (void *ptr)
{
 8002328:	b510      	push	{r4, lr}
    free(ptr);
 800232a:	f002 fab9 	bl	80048a0 <free>
}
 800232e:	bd10      	pop	{r4, pc}

08002330 <_ZN12DirectSerialD0Ev>:
class DirectSerial : public FileHandle {
 8002330:	b510      	push	{r4, lr}
 8002332:	0004      	movs	r4, r0
 8002334:	f7ff fff8 	bl	8002328 <_ZdlPv>
 8002338:	0020      	movs	r0, r4
 800233a:	bd10      	pop	{r4, pc}

0800233c <software_init_hook_rtos>:
}

MBED_WEAK void software_init_hook_rtos()
{
    // Nothing by default
}
 800233c:	4770      	bx	lr

0800233e <software_init_hook>:
#elif defined (__GNUC__)

extern int __real_main(void);

void software_init_hook(void)
{
 800233e:	b510      	push	{r4, lr}
    mbed_copy_nvic();
    mbed_sdk_init();
 8002340:	f001 f8f2 	bl	8003528 <mbed_sdk_init>
    software_init_hook_rtos();
 8002344:	f7ff fffa 	bl	800233c <software_init_hook_rtos>
}
 8002348:	bd10      	pop	{r4, pc}

0800234a <wait_us>:
{
    wait_us(ms * 1000);
}

void wait_us(int us)
{
 800234a:	b570      	push	{r4, r5, r6, lr}
 800234c:	0006      	movs	r6, r0
    const ticker_data_t *const ticker = get_us_ticker_data();
 800234e:	f7ff f927 	bl	80015a0 <get_us_ticker_data>
 8002352:	0004      	movs	r4, r0
    uint32_t start = ticker_read(ticker);
 8002354:	f7ff f920 	bl	8001598 <ticker_read>
 8002358:	0005      	movs	r5, r0
    while ((ticker_read(ticker) - start) < (uint32_t)us);
 800235a:	0020      	movs	r0, r4
 800235c:	f7ff f91c 	bl	8001598 <ticker_read>
 8002360:	1b40      	subs	r0, r0, r5
 8002362:	42b0      	cmp	r0, r6
 8002364:	d3f9      	bcc.n	800235a <wait_us+0x10>
}
 8002366:	bd70      	pop	{r4, r5, r6, pc}

08002368 <wait_ms>:
{
 8002368:	b510      	push	{r4, lr}
    wait_us(ms * 1000);
 800236a:	23fa      	movs	r3, #250	; 0xfa
 800236c:	009b      	lsls	r3, r3, #2
 800236e:	4358      	muls	r0, r3
 8002370:	f7ff ffeb 	bl	800234a <wait_us>
}
 8002374:	bd10      	pop	{r4, pc}
	...

08002378 <Reset_Handler>:

  .section .text.Reset_Handler
  .weak Reset_Handler
  .type Reset_Handler, %function
Reset_Handler:
  ldr   r0, =_estack
 8002378:	480e      	ldr	r0, [pc, #56]	; (80023b4 <LoopForever+0x2>)
  mov   sp, r0          /* set stack pointer */
 800237a:	4685      	mov	sp, r0

/* Copy the data segment initializers from flash to SRAM */
  ldr r0, =_sdata
 800237c:	480e      	ldr	r0, [pc, #56]	; (80023b8 <LoopForever+0x6>)
  ldr r1, =_edata
 800237e:	490f      	ldr	r1, [pc, #60]	; (80023bc <LoopForever+0xa>)
  ldr r2, =_sidata
 8002380:	4a0f      	ldr	r2, [pc, #60]	; (80023c0 <LoopForever+0xe>)
  movs r3, #0
 8002382:	2300      	movs	r3, #0
  b LoopCopyDataInit
 8002384:	e002      	b.n	800238c <LoopCopyDataInit>

08002386 <CopyDataInit>:

CopyDataInit:
  ldr r4, [r2, r3]
 8002386:	58d4      	ldr	r4, [r2, r3]
  str r4, [r0, r3]
 8002388:	50c4      	str	r4, [r0, r3]
  adds r3, r3, #4
 800238a:	3304      	adds	r3, #4

0800238c <LoopCopyDataInit>:

LoopCopyDataInit:
  adds r4, r0, r3
 800238c:	18c4      	adds	r4, r0, r3
  cmp r4, r1
 800238e:	428c      	cmp	r4, r1
  bcc CopyDataInit
 8002390:	d3f9      	bcc.n	8002386 <CopyDataInit>
  
/* Zero fill the bss segment. */
  ldr r2, =_sbss
 8002392:	4a0c      	ldr	r2, [pc, #48]	; (80023c4 <LoopForever+0x12>)
  ldr r4, =_ebss
 8002394:	4c0c      	ldr	r4, [pc, #48]	; (80023c8 <LoopForever+0x16>)
  movs r3, #0
 8002396:	2300      	movs	r3, #0
  b LoopFillZerobss
 8002398:	e001      	b.n	800239e <LoopFillZerobss>

0800239a <FillZerobss>:

FillZerobss:
  str  r3, [r2]
 800239a:	6013      	str	r3, [r2, #0]
  adds r2, r2, #4
 800239c:	3204      	adds	r2, #4

0800239e <LoopFillZerobss>:

LoopFillZerobss:
  cmp r2, r4
 800239e:	42a2      	cmp	r2, r4
  bcc FillZerobss
 80023a0:	d3fb      	bcc.n	800239a <FillZerobss>

/* Call the clock system intitialization function.*/
bl SystemInit
 80023a2:	f000 f83b 	bl	800241c <SystemInit>
bl software_init_hook
 80023a6:	f7ff ffca 	bl	800233e <software_init_hook>
/* Call static constructors */
bl __libc_init_array
 80023aa:	f002 f9d3 	bl	8004754 <__libc_init_array>
/* Call the application's entry point.*/
bl main
 80023ae:	f7fe f995 	bl	80006dc <main>

080023b2 <LoopForever>:
//bl _start

LoopForever:
    b LoopForever
 80023b2:	e7fe      	b.n	80023b2 <LoopForever>
  ldr   r0, =_estack
 80023b4:	20004000 	.word	0x20004000
  ldr r0, =_sdata
 80023b8:	200000c0 	.word	0x200000c0
  ldr r1, =_edata
 80023bc:	200006e8 	.word	0x200006e8
  ldr r2, =_sidata
 80023c0:	08005b14 	.word	0x08005b14
  ldr r2, =_sbss
 80023c4:	200006e8 	.word	0x200006e8
  ldr r4, =_ebss
 80023c8:	20000d24 	.word	0x20000d24

080023cc <ADC1_IRQHandler>:
 * @retval : None
*/
    .section .text.Default_Handler,"ax",%progbits
Default_Handler:
Infinite_Loop:
  b Infinite_Loop
 80023cc:	e7fe      	b.n	80023cc <ADC1_IRQHandler>
	...

080023d0 <NVIC_SetVector>:

#define NVIC_RAM_VECTOR_ADDRESS   (0x20000000)  // Vectors positioned at start of RAM
#define NVIC_FLASH_VECTOR_ADDRESS (0x08000000)  // Initial vector position in flash


void NVIC_SetVector(IRQn_Type IRQn, uint32_t vector) {
 80023d0:	b530      	push	{r4, r5, lr}
    int i;
    
    // Copy and switch to dynamic vectors if first time called
    if ((SYSCFG->CFGR1 & SYSCFG_CFGR1_MEM_MODE) != SYSCFG_CFGR1_MEM_MODE) {
 80023d2:	4b10      	ldr	r3, [pc, #64]	; (8002414 <NVIC_SetVector+0x44>)
 80023d4:	681a      	ldr	r2, [r3, #0]
 80023d6:	2303      	movs	r3, #3
 80023d8:	4013      	ands	r3, r2
 80023da:	2b03      	cmp	r3, #3
 80023dc:	d014      	beq.n	8002408 <NVIC_SetVector+0x38>
 80023de:	2300      	movs	r3, #0
 80023e0:	e00b      	b.n	80023fa <NVIC_SetVector+0x2a>
        uint32_t *old_vectors = (uint32_t *)NVIC_FLASH_VECTOR_ADDRESS;
        for (i = 0; i < NVIC_NUM_VECTORS; i++) {
            *((uint32_t *)(NVIC_RAM_VECTOR_ADDRESS + (i*4))) = old_vectors[i];
 80023e2:	2280      	movs	r2, #128	; 0x80
 80023e4:	0512      	lsls	r2, r2, #20
 80023e6:	189a      	adds	r2, r3, r2
 80023e8:	0092      	lsls	r2, r2, #2
 80023ea:	009c      	lsls	r4, r3, #2
 80023ec:	2580      	movs	r5, #128	; 0x80
 80023ee:	052d      	lsls	r5, r5, #20
 80023f0:	46ac      	mov	ip, r5
 80023f2:	4464      	add	r4, ip
 80023f4:	6824      	ldr	r4, [r4, #0]
 80023f6:	6014      	str	r4, [r2, #0]
        for (i = 0; i < NVIC_NUM_VECTORS; i++) {
 80023f8:	3301      	adds	r3, #1
 80023fa:	2b2f      	cmp	r3, #47	; 0x2f
 80023fc:	ddf1      	ble.n	80023e2 <NVIC_SetVector+0x12>
        }
        SYSCFG->CFGR1 |= SYSCFG_CFGR1_MEM_MODE; // Embedded SRAM mapped at 0x00000000
 80023fe:	4a05      	ldr	r2, [pc, #20]	; (8002414 <NVIC_SetVector+0x44>)
 8002400:	6813      	ldr	r3, [r2, #0]
 8002402:	2403      	movs	r4, #3
 8002404:	4323      	orrs	r3, r4
 8002406:	6013      	str	r3, [r2, #0]
    }

    // Set the vector
    *((uint32_t *)(NVIC_RAM_VECTOR_ADDRESS + (IRQn*4) + (NVIC_USER_IRQ_OFFSET*4))) = vector;
 8002408:	4b03      	ldr	r3, [pc, #12]	; (8002418 <NVIC_SetVector+0x48>)
 800240a:	469c      	mov	ip, r3
 800240c:	4460      	add	r0, ip
 800240e:	0080      	lsls	r0, r0, #2
 8002410:	6001      	str	r1, [r0, #0]
}
 8002412:	bd30      	pop	{r4, r5, pc}
 8002414:	40010000 	.word	0x40010000
 8002418:	08000010 	.word	0x08000010

0800241c <SystemInit>:
  */
void SystemInit(void)
{
    /* Reset the RCC clock configuration to the default reset state ------------*/
    /* Set HSION bit */
    RCC->CR |= (uint32_t)0x00000001U;
 800241c:	4b14      	ldr	r3, [pc, #80]	; (8002470 <SystemInit+0x54>)
 800241e:	681a      	ldr	r2, [r3, #0]
 8002420:	2101      	movs	r1, #1
 8002422:	430a      	orrs	r2, r1
 8002424:	601a      	str	r2, [r3, #0]
#if defined (STM32F051x8) || defined (STM32F058x8)
    /* Reset SW[1:0], HPRE[3:0], PPRE[2:0], ADCPRE and MCOSEL[2:0] bits */
    RCC->CFGR &= (uint32_t)0xF8FFB80CU;
#else
    /* Reset SW[1:0], HPRE[3:0], PPRE[2:0], ADCPRE, MCOSEL[2:0], MCOPRE[2:0] and PLLNODIV bits */
    RCC->CFGR &= (uint32_t)0x08FFB80CU;
 8002426:	685a      	ldr	r2, [r3, #4]
 8002428:	4812      	ldr	r0, [pc, #72]	; (8002474 <SystemInit+0x58>)
 800242a:	4002      	ands	r2, r0
 800242c:	605a      	str	r2, [r3, #4]
#endif /* STM32F051x8 or STM32F058x8 */

    /* Reset HSEON, CSSON and PLLON bits */
    RCC->CR &= (uint32_t)0xFEF6FFFFU;
 800242e:	681a      	ldr	r2, [r3, #0]
 8002430:	4811      	ldr	r0, [pc, #68]	; (8002478 <SystemInit+0x5c>)
 8002432:	4002      	ands	r2, r0
 8002434:	601a      	str	r2, [r3, #0]

    /* Reset HSEBYP bit */
    RCC->CR &= (uint32_t)0xFFFBFFFFU;
 8002436:	681a      	ldr	r2, [r3, #0]
 8002438:	4810      	ldr	r0, [pc, #64]	; (800247c <SystemInit+0x60>)
 800243a:	4002      	ands	r2, r0
 800243c:	601a      	str	r2, [r3, #0]

    /* Reset PLLSRC, PLLXTPRE and PLLMUL[3:0] bits */
    RCC->CFGR &= (uint32_t)0xFFC0FFFFU;
 800243e:	685a      	ldr	r2, [r3, #4]
 8002440:	480f      	ldr	r0, [pc, #60]	; (8002480 <SystemInit+0x64>)
 8002442:	4002      	ands	r2, r0
 8002444:	605a      	str	r2, [r3, #4]

    /* Reset PREDIV[3:0] bits */
    RCC->CFGR2 &= (uint32_t)0xFFFFFFF0U;
 8002446:	6ada      	ldr	r2, [r3, #44]	; 0x2c
 8002448:	200f      	movs	r0, #15
 800244a:	4382      	bics	r2, r0
 800244c:	62da      	str	r2, [r3, #44]	; 0x2c
#elif defined (STM32F042x6) || defined (STM32F048xx)
    /* Reset USART1SW[1:0], I2C1SW, CECSW, USBSW and ADCSW bits */
    RCC->CFGR3 &= (uint32_t)0xFFFFFE2CU;
#elif defined (STM32F070x6) || defined (STM32F070xB)
    /* Reset USART1SW[1:0], I2C1SW, USBSW and ADCSW bits */
    RCC->CFGR3 &= (uint32_t)0xFFFFFE6CU;
 800244e:	6b1a      	ldr	r2, [r3, #48]	; 0x30
 8002450:	480c      	ldr	r0, [pc, #48]	; (8002484 <SystemInit+0x68>)
 8002452:	4002      	ands	r2, r0
 8002454:	631a      	str	r2, [r3, #48]	; 0x30
    /* Set default USB clock to PLLCLK, since there is no HSI48 */
    RCC->CFGR3 |= (uint32_t)0x00000080U;
 8002456:	6b1a      	ldr	r2, [r3, #48]	; 0x30
 8002458:	2080      	movs	r0, #128	; 0x80
 800245a:	4302      	orrs	r2, r0
 800245c:	631a      	str	r2, [r3, #48]	; 0x30
#else
#warning "No target selected"
#endif

    /* Reset HSI14 bit */
    RCC->CR2 &= (uint32_t)0xFFFFFFFEU;
 800245e:	6b5a      	ldr	r2, [r3, #52]	; 0x34
 8002460:	438a      	bics	r2, r1
 8002462:	635a      	str	r2, [r3, #52]	; 0x34

    /* Disable all interrupts */
    RCC->CIR = 0x00000000U;
 8002464:	2200      	movs	r2, #0
 8002466:	609a      	str	r2, [r3, #8]

    /* Enable SYSCFGENR in APB2EN, needed for 1st call of NVIC_SetVector, to copy vectors from flash to ram */
    RCC->APB2ENR |= RCC_APB2ENR_SYSCFGEN;
 8002468:	699a      	ldr	r2, [r3, #24]
 800246a:	430a      	orrs	r2, r1
 800246c:	619a      	str	r2, [r3, #24]
}
 800246e:	4770      	bx	lr
 8002470:	40021000 	.word	0x40021000
 8002474:	08ffb80c 	.word	0x08ffb80c
 8002478:	fef6ffff 	.word	0xfef6ffff
 800247c:	fffbffff 	.word	0xfffbffff
 8002480:	ffc0ffff 	.word	0xffc0ffff
 8002484:	fffffe6c 	.word	0xfffffe6c

08002488 <SetSysClock_PLL_HSE>:
#if ( ((CLOCK_SOURCE) & USE_PLL_HSE_XTAL) || ((CLOCK_SOURCE) & USE_PLL_HSE_EXTC) )
/******************************************************************************/
/*            PLL (clocked by HSE) used as System clock source                */
/******************************************************************************/
uint8_t SetSysClock_PLL_HSE(uint8_t bypass)
{
 8002488:	b510      	push	{r4, lr}
 800248a:	b090      	sub	sp, #64	; 0x40
 800248c:	0004      	movs	r4, r0
    RCC_OscInitTypeDef RCC_OscInitStruct = {0};
 800248e:	2230      	movs	r2, #48	; 0x30
 8002490:	2100      	movs	r1, #0
 8002492:	a804      	add	r0, sp, #16
 8002494:	f002 fc1b 	bl	8004cce <memset>
    RCC_ClkInitTypeDef RCC_ClkInitStruct = {0};
 8002498:	2210      	movs	r2, #16
 800249a:	2100      	movs	r1, #0
 800249c:	4668      	mov	r0, sp
 800249e:	f002 fc16 	bl	8004cce <memset>

    //Select HSI as system clock source to allow modification of the PLL configuration
    RCC_ClkInitStruct.ClockType = RCC_CLOCKTYPE_SYSCLK;
 80024a2:	2301      	movs	r3, #1
 80024a4:	9300      	str	r3, [sp, #0]
    RCC_ClkInitStruct.SYSCLKSource = RCC_SYSCLKSOURCE_HSI;
    if(HAL_RCC_ClockConfig(&RCC_ClkInitStruct, FLASH_LATENCY_1) != HAL_OK) {
 80024a6:	2101      	movs	r1, #1
 80024a8:	4668      	mov	r0, sp
 80024aa:	f000 faed 	bl	8002a88 <HAL_RCC_ClockConfig>
 80024ae:	2800      	cmp	r0, #0
 80024b0:	d129      	bne.n	8002506 <SetSysClock_PLL_HSE+0x7e>
        return 0; // FAIL
    }

    // Select HSE oscillator as PLL source
    RCC_OscInitStruct.OscillatorType = RCC_OSCILLATORTYPE_HSE;
 80024b2:	2301      	movs	r3, #1
 80024b4:	9304      	str	r3, [sp, #16]
    if (bypass == 0) {
 80024b6:	2c00      	cmp	r4, #0
 80024b8:	d111      	bne.n	80024de <SetSysClock_PLL_HSE+0x56>
        RCC_OscInitStruct.HSEState   = RCC_HSE_ON; // External 8 MHz xtal on OSC_IN/OSC_OUT
 80024ba:	9305      	str	r3, [sp, #20]
    } else {
        RCC_OscInitStruct.HSEState   = RCC_HSE_BYPASS; // External 8 MHz clock on OSC_IN only
    }
    RCC_OscInitStruct.PLL.PLLState   = RCC_PLL_ON;
 80024bc:	2302      	movs	r3, #2
 80024be:	930c      	str	r3, [sp, #48]	; 0x30
    RCC_OscInitStruct.PLL.PLLSource  = RCC_PLLSOURCE_HSE;
 80024c0:	2380      	movs	r3, #128	; 0x80
 80024c2:	025b      	lsls	r3, r3, #9
 80024c4:	930d      	str	r3, [sp, #52]	; 0x34
    RCC_OscInitStruct.PLL.PREDIV     = RCC_PREDIV_DIV2;
 80024c6:	2301      	movs	r3, #1
 80024c8:	930f      	str	r3, [sp, #60]	; 0x3c
    RCC_OscInitStruct.PLL.PLLMUL     = RCC_PLL_MUL12;
 80024ca:	23a0      	movs	r3, #160	; 0xa0
 80024cc:	039b      	lsls	r3, r3, #14
 80024ce:	930e      	str	r3, [sp, #56]	; 0x38
    if (HAL_RCC_OscConfig(&RCC_OscInitStruct) != HAL_OK) {
 80024d0:	a804      	add	r0, sp, #16
 80024d2:	f000 f86f 	bl	80025b4 <HAL_RCC_OscConfig>
 80024d6:	2800      	cmp	r0, #0
 80024d8:	d004      	beq.n	80024e4 <SetSysClock_PLL_HSE+0x5c>
        return 0; // FAIL
 80024da:	2000      	movs	r0, #0
 80024dc:	e014      	b.n	8002508 <SetSysClock_PLL_HSE+0x80>
        RCC_OscInitStruct.HSEState   = RCC_HSE_BYPASS; // External 8 MHz clock on OSC_IN only
 80024de:	2305      	movs	r3, #5
 80024e0:	9305      	str	r3, [sp, #20]
 80024e2:	e7eb      	b.n	80024bc <SetSysClock_PLL_HSE+0x34>
    }

    // Select PLL as system clock source and configure the HCLK and PCLK1 clocks dividers
    RCC_ClkInitStruct.ClockType      = (RCC_CLOCKTYPE_SYSCLK | RCC_CLOCKTYPE_HCLK | RCC_CLOCKTYPE_PCLK1);
 80024e4:	2307      	movs	r3, #7
 80024e6:	9300      	str	r3, [sp, #0]
    RCC_ClkInitStruct.SYSCLKSource   = RCC_SYSCLKSOURCE_PLLCLK; // 48 MHz
 80024e8:	3b05      	subs	r3, #5
 80024ea:	9301      	str	r3, [sp, #4]
    RCC_ClkInitStruct.AHBCLKDivider  = RCC_SYSCLK_DIV1;         // 48 MHz
 80024ec:	2300      	movs	r3, #0
 80024ee:	9302      	str	r3, [sp, #8]
    RCC_ClkInitStruct.APB1CLKDivider = RCC_HCLK_DIV1;           // 48 MHz
 80024f0:	9303      	str	r3, [sp, #12]
    if (HAL_RCC_ClockConfig(&RCC_ClkInitStruct, FLASH_LATENCY_1) != HAL_OK) {
 80024f2:	2101      	movs	r1, #1
 80024f4:	4668      	mov	r0, sp
 80024f6:	f000 fac7 	bl	8002a88 <HAL_RCC_ClockConfig>
 80024fa:	2800      	cmp	r0, #0
 80024fc:	d101      	bne.n	8002502 <SetSysClock_PLL_HSE+0x7a>
    //if (bypass == 0)
    //  HAL_RCC_MCOConfig(RCC_MCO, RCC_MCOSOURCE_HSE, RCC_MCO_DIV2); // 4 MHz with xtal
    //else
    //  HAL_RCC_MCOConfig(RCC_MCO, RCC_MCOSOURCE_HSE, RCC_MCO_DIV4); // 2 MHz with ST-Link MCO

    return 1; // OK
 80024fe:	2001      	movs	r0, #1
 8002500:	e002      	b.n	8002508 <SetSysClock_PLL_HSE+0x80>
        return 0; // FAIL
 8002502:	2000      	movs	r0, #0
 8002504:	e000      	b.n	8002508 <SetSysClock_PLL_HSE+0x80>
        return 0; // FAIL
 8002506:	2000      	movs	r0, #0
}
 8002508:	b010      	add	sp, #64	; 0x40
 800250a:	bd10      	pop	{r4, pc}

0800250c <SetSysClock_PLL_HSI>:
#if ((CLOCK_SOURCE) & USE_PLL_HSI)
/******************************************************************************/
/*            PLL (clocked by HSI) used as System clock source                */
/******************************************************************************/
uint8_t SetSysClock_PLL_HSI(void)
{
 800250c:	b500      	push	{lr}
 800250e:	b091      	sub	sp, #68	; 0x44
    RCC_OscInitTypeDef RCC_OscInitStruct;
    RCC_ClkInitTypeDef RCC_ClkInitStruct;

    // Select PLLCLK = 48 MHz ((HSI 8 MHz / 2) * 12)
    RCC_OscInitStruct.OscillatorType          = RCC_OSCILLATORTYPE_HSI;
 8002510:	2102      	movs	r1, #2
 8002512:	9104      	str	r1, [sp, #16]
    RCC_OscInitStruct.HSEState                = RCC_HSE_OFF;
 8002514:	2300      	movs	r3, #0
 8002516:	9305      	str	r3, [sp, #20]
    RCC_OscInitStruct.LSEState                = RCC_LSE_OFF;
 8002518:	9306      	str	r3, [sp, #24]
    RCC_OscInitStruct.HSIState                = RCC_HSI_ON;
 800251a:	2201      	movs	r2, #1
 800251c:	9207      	str	r2, [sp, #28]
    RCC_OscInitStruct.HSICalibrationValue     = RCC_HSICALIBRATION_DEFAULT;
 800251e:	2010      	movs	r0, #16
 8002520:	9008      	str	r0, [sp, #32]
    RCC_OscInitStruct.HSI14State              = RCC_HSI_OFF;
 8002522:	9309      	str	r3, [sp, #36]	; 0x24
    RCC_OscInitStruct.HSI14CalibrationValue   = RCC_HSI14CALIBRATION_DEFAULT;
 8002524:	900a      	str	r0, [sp, #40]	; 0x28
    RCC_OscInitStruct.LSIState                = RCC_LSI_OFF;
 8002526:	930b      	str	r3, [sp, #44]	; 0x2c
    RCC_OscInitStruct.PLL.PLLState            = RCC_PLL_ON;
 8002528:	910c      	str	r1, [sp, #48]	; 0x30
    RCC_OscInitStruct.PLL.PLLSource           = RCC_PLLSOURCE_HSI;
 800252a:	2380      	movs	r3, #128	; 0x80
 800252c:	021b      	lsls	r3, r3, #8
 800252e:	930d      	str	r3, [sp, #52]	; 0x34
    RCC_OscInitStruct.PLL.PREDIV              = RCC_PREDIV_DIV2; // HSI div 2
 8002530:	920f      	str	r2, [sp, #60]	; 0x3c
    RCC_OscInitStruct.PLL.PLLMUL              = RCC_PLL_MUL12;
 8002532:	23a0      	movs	r3, #160	; 0xa0
 8002534:	039b      	lsls	r3, r3, #14
 8002536:	930e      	str	r3, [sp, #56]	; 0x38
    if (HAL_RCC_OscConfig(&RCC_OscInitStruct) != HAL_OK) {
 8002538:	a804      	add	r0, sp, #16
 800253a:	f000 f83b 	bl	80025b4 <HAL_RCC_OscConfig>
 800253e:	2800      	cmp	r0, #0
 8002540:	d002      	beq.n	8002548 <SetSysClock_PLL_HSI+0x3c>
        return 0; // FAIL
 8002542:	2000      	movs	r0, #0

    // Output clock on MCO1 pin(PA8) for debugging purpose
    //HAL_RCC_MCOConfig(RCC_MCO, RCC_MCOSOURCE_HSI48, RCC_MCO_DIV1); // 48 MHz

    return 1; // OK
}
 8002544:	b011      	add	sp, #68	; 0x44
 8002546:	bd00      	pop	{pc}
    RCC_ClkInitStruct.ClockType      = (RCC_CLOCKTYPE_SYSCLK | RCC_CLOCKTYPE_HCLK | RCC_CLOCKTYPE_PCLK1);
 8002548:	2307      	movs	r3, #7
 800254a:	9300      	str	r3, [sp, #0]
    RCC_ClkInitStruct.SYSCLKSource   = RCC_SYSCLKSOURCE_PLLCLK; // 48 MHz
 800254c:	3b05      	subs	r3, #5
 800254e:	9301      	str	r3, [sp, #4]
    RCC_ClkInitStruct.AHBCLKDivider  = RCC_SYSCLK_DIV1;         // 48 MHz
 8002550:	2300      	movs	r3, #0
 8002552:	9302      	str	r3, [sp, #8]
    RCC_ClkInitStruct.APB1CLKDivider = RCC_HCLK_DIV1;           // 48 MHz
 8002554:	9303      	str	r3, [sp, #12]
    if (HAL_RCC_ClockConfig(&RCC_ClkInitStruct, FLASH_LATENCY_1) != HAL_OK) {
 8002556:	2101      	movs	r1, #1
 8002558:	4668      	mov	r0, sp
 800255a:	f000 fa95 	bl	8002a88 <HAL_RCC_ClockConfig>
 800255e:	2800      	cmp	r0, #0
 8002560:	d101      	bne.n	8002566 <SetSysClock_PLL_HSI+0x5a>
    return 1; // OK
 8002562:	2001      	movs	r0, #1
 8002564:	e7ee      	b.n	8002544 <SetSysClock_PLL_HSI+0x38>
        return 0; // FAIL
 8002566:	2000      	movs	r0, #0
 8002568:	e7ec      	b.n	8002544 <SetSysClock_PLL_HSI+0x38>
	...

0800256c <SetSysClock>:
{
 800256c:	b510      	push	{r4, lr}
    if (SetSysClock_PLL_HSE(1) == 0)
 800256e:	2001      	movs	r0, #1
 8002570:	f7ff ff8a 	bl	8002488 <SetSysClock_PLL_HSE>
 8002574:	2800      	cmp	r0, #0
 8002576:	d000      	beq.n	800257a <SetSysClock+0xe>
}
 8002578:	bd10      	pop	{r4, pc}
            if (SetSysClock_PLL_HSI() == 0)
 800257a:	f7ff ffc7 	bl	800250c <SetSysClock_PLL_HSI>
 800257e:	2800      	cmp	r0, #0
 8002580:	d1fa      	bne.n	8002578 <SetSysClock+0xc>
                    error("SetSysClock failed\n");
 8002582:	4802      	ldr	r0, [pc, #8]	; (800258c <SetSysClock+0x20>)
 8002584:	f7ff faac 	bl	8001ae0 <error>
}
 8002588:	e7f6      	b.n	8002578 <SetSysClock+0xc>
 800258a:	46c0      	nop			; (mov r8, r8)
 800258c:	080059a0 	.word	0x080059a0

08002590 <HAL_MspInit>:
__weak void HAL_MspInit(void)
{
  /* NOTE : This function Should not be modified, when the callback is needed,
            the HAL_MspInit could be implemented in the user file
   */
}
 8002590:	4770      	bx	lr
	...

08002594 <HAL_Init>:
{
 8002594:	b510      	push	{r4, lr}
  __HAL_FLASH_PREFETCH_BUFFER_ENABLE();
 8002596:	4a06      	ldr	r2, [pc, #24]	; (80025b0 <HAL_Init+0x1c>)
 8002598:	6813      	ldr	r3, [r2, #0]
 800259a:	2110      	movs	r1, #16
 800259c:	430b      	orrs	r3, r1
 800259e:	6013      	str	r3, [r2, #0]
  HAL_InitTick(TICK_INT_PRIORITY);
 80025a0:	2003      	movs	r0, #3
 80025a2:	f000 ff8f 	bl	80034c4 <HAL_InitTick>
  HAL_MspInit();
 80025a6:	f7ff fff3 	bl	8002590 <HAL_MspInit>
}
 80025aa:	2000      	movs	r0, #0
 80025ac:	bd10      	pop	{r4, pc}
 80025ae:	46c0      	nop			; (mov r8, r8)
 80025b0:	40022000 	.word	0x40022000

080025b4 <HAL_RCC_OscConfig>:
  *         supported by this macro. User should request a transition to HSE Off
  *         first and then HSE On or HSE Bypass.
  * @retval HAL status
  */
HAL_StatusTypeDef HAL_RCC_OscConfig(RCC_OscInitTypeDef  *RCC_OscInitStruct)
{
 80025b4:	b570      	push	{r4, r5, r6, lr}
 80025b6:	b082      	sub	sp, #8
 80025b8:	0004      	movs	r4, r0
  /* Check the parameters */
  assert_param(RCC_OscInitStruct != NULL);
  assert_param(IS_RCC_OSCILLATORTYPE(RCC_OscInitStruct->OscillatorType));

  /*------------------------------- HSE Configuration ------------------------*/ 
  if(((RCC_OscInitStruct->OscillatorType) & RCC_OSCILLATORTYPE_HSE) == RCC_OSCILLATORTYPE_HSE)
 80025ba:	6803      	ldr	r3, [r0, #0]
 80025bc:	07db      	lsls	r3, r3, #31
 80025be:	d53b      	bpl.n	8002638 <HAL_RCC_OscConfig+0x84>
  {
    /* Check the parameters */
    assert_param(IS_RCC_HSE(RCC_OscInitStruct->HSEState));

    /* When the HSE is used as system clock or clock source for PLL in these cases it is not allowed to be disabled */
    if((__HAL_RCC_GET_SYSCLK_SOURCE() == RCC_SYSCLKSOURCE_STATUS_HSE) 
 80025c0:	4bc3      	ldr	r3, [pc, #780]	; (80028d0 <HAL_RCC_OscConfig+0x31c>)
 80025c2:	685a      	ldr	r2, [r3, #4]
 80025c4:	230c      	movs	r3, #12
 80025c6:	4013      	ands	r3, r2
 80025c8:	2b04      	cmp	r3, #4
 80025ca:	d02d      	beq.n	8002628 <HAL_RCC_OscConfig+0x74>
       || ((__HAL_RCC_GET_SYSCLK_SOURCE() == RCC_SYSCLKSOURCE_STATUS_PLLCLK) && (__HAL_RCC_GET_PLL_OSCSOURCE() == RCC_PLLSOURCE_HSE)))
 80025cc:	4bc0      	ldr	r3, [pc, #768]	; (80028d0 <HAL_RCC_OscConfig+0x31c>)
 80025ce:	685a      	ldr	r2, [r3, #4]
 80025d0:	230c      	movs	r3, #12
 80025d2:	4013      	ands	r3, r2
 80025d4:	2b08      	cmp	r3, #8
 80025d6:	d01e      	beq.n	8002616 <HAL_RCC_OscConfig+0x62>
      }
    }
    else
    {
      /* Set the new HSE configuration ---------------------------------------*/
      __HAL_RCC_HSE_CONFIG(RCC_OscInitStruct->HSEState);
 80025d8:	6863      	ldr	r3, [r4, #4]
 80025da:	2b01      	cmp	r3, #1
 80025dc:	d050      	beq.n	8002680 <HAL_RCC_OscConfig+0xcc>
 80025de:	2b00      	cmp	r3, #0
 80025e0:	d155      	bne.n	800268e <HAL_RCC_OscConfig+0xda>
 80025e2:	4bbb      	ldr	r3, [pc, #748]	; (80028d0 <HAL_RCC_OscConfig+0x31c>)
 80025e4:	681a      	ldr	r2, [r3, #0]
 80025e6:	49bb      	ldr	r1, [pc, #748]	; (80028d4 <HAL_RCC_OscConfig+0x320>)
 80025e8:	400a      	ands	r2, r1
 80025ea:	601a      	str	r2, [r3, #0]
 80025ec:	681a      	ldr	r2, [r3, #0]
 80025ee:	49ba      	ldr	r1, [pc, #744]	; (80028d8 <HAL_RCC_OscConfig+0x324>)
 80025f0:	400a      	ands	r2, r1
 80025f2:	601a      	str	r2, [r3, #0]
      

       /* Check the HSE State */
      if(RCC_OscInitStruct->HSEState != RCC_HSE_OFF)
 80025f4:	6863      	ldr	r3, [r4, #4]
 80025f6:	2b00      	cmp	r3, #0
 80025f8:	d061      	beq.n	80026be <HAL_RCC_OscConfig+0x10a>
      {
        /* Get Start Tick */
        tickstart = HAL_GetTick();
 80025fa:	f000 ff69 	bl	80034d0 <HAL_GetTick>
 80025fe:	0005      	movs	r5, r0
        
        /* Wait till HSE is ready */
        while(__HAL_RCC_GET_FLAG(RCC_FLAG_HSERDY) == RESET)
 8002600:	4bb3      	ldr	r3, [pc, #716]	; (80028d0 <HAL_RCC_OscConfig+0x31c>)
 8002602:	681b      	ldr	r3, [r3, #0]
 8002604:	039b      	lsls	r3, r3, #14
 8002606:	d417      	bmi.n	8002638 <HAL_RCC_OscConfig+0x84>
        {
          if((HAL_GetTick() - tickstart ) > HSE_TIMEOUT_VALUE)
 8002608:	f000 ff62 	bl	80034d0 <HAL_GetTick>
 800260c:	1b40      	subs	r0, r0, r5
 800260e:	2864      	cmp	r0, #100	; 0x64
 8002610:	d9f6      	bls.n	8002600 <HAL_RCC_OscConfig+0x4c>
          {
            return HAL_TIMEOUT;
 8002612:	2003      	movs	r0, #3
 8002614:	e1f2      	b.n	80029fc <HAL_RCC_OscConfig+0x448>
       || ((__HAL_RCC_GET_SYSCLK_SOURCE() == RCC_SYSCLKSOURCE_STATUS_PLLCLK) && (__HAL_RCC_GET_PLL_OSCSOURCE() == RCC_PLLSOURCE_HSE)))
 8002616:	4bae      	ldr	r3, [pc, #696]	; (80028d0 <HAL_RCC_OscConfig+0x31c>)
 8002618:	685b      	ldr	r3, [r3, #4]
 800261a:	22c0      	movs	r2, #192	; 0xc0
 800261c:	0252      	lsls	r2, r2, #9
 800261e:	4013      	ands	r3, r2
 8002620:	2280      	movs	r2, #128	; 0x80
 8002622:	0252      	lsls	r2, r2, #9
 8002624:	4293      	cmp	r3, r2
 8002626:	d1d7      	bne.n	80025d8 <HAL_RCC_OscConfig+0x24>
      if((__HAL_RCC_GET_FLAG(RCC_FLAG_HSERDY) != RESET) && (RCC_OscInitStruct->HSEState == RCC_HSE_OFF))
 8002628:	4ba9      	ldr	r3, [pc, #676]	; (80028d0 <HAL_RCC_OscConfig+0x31c>)
 800262a:	681b      	ldr	r3, [r3, #0]
 800262c:	039b      	lsls	r3, r3, #14
 800262e:	d503      	bpl.n	8002638 <HAL_RCC_OscConfig+0x84>
 8002630:	6863      	ldr	r3, [r4, #4]
 8002632:	2b00      	cmp	r3, #0
 8002634:	d100      	bne.n	8002638 <HAL_RCC_OscConfig+0x84>
 8002636:	e1de      	b.n	80029f6 <HAL_RCC_OscConfig+0x442>
        }
      }
    }
  }
  /*----------------------------- HSI Configuration --------------------------*/ 
  if(((RCC_OscInitStruct->OscillatorType) & RCC_OSCILLATORTYPE_HSI) == RCC_OSCILLATORTYPE_HSI)
 8002638:	6823      	ldr	r3, [r4, #0]
 800263a:	079b      	lsls	r3, r3, #30
 800263c:	d567      	bpl.n	800270e <HAL_RCC_OscConfig+0x15a>
    /* Check the parameters */
    assert_param(IS_RCC_HSI(RCC_OscInitStruct->HSIState));
    assert_param(IS_RCC_CALIBRATION_VALUE(RCC_OscInitStruct->HSICalibrationValue));
    
    /* Check if HSI is used as system clock or as PLL source when PLL is selected as system clock */ 
    if((__HAL_RCC_GET_SYSCLK_SOURCE() == RCC_SYSCLKSOURCE_STATUS_HSI) 
 800263e:	4ba4      	ldr	r3, [pc, #656]	; (80028d0 <HAL_RCC_OscConfig+0x31c>)
 8002640:	685b      	ldr	r3, [r3, #4]
 8002642:	220c      	movs	r2, #12
 8002644:	421a      	tst	r2, r3
 8002646:	d051      	beq.n	80026ec <HAL_RCC_OscConfig+0x138>
       || ((__HAL_RCC_GET_SYSCLK_SOURCE() == RCC_SYSCLKSOURCE_STATUS_PLLCLK) && (__HAL_RCC_GET_PLL_OSCSOURCE() == RCC_PLLSOURCE_HSI)))
 8002648:	4ba1      	ldr	r3, [pc, #644]	; (80028d0 <HAL_RCC_OscConfig+0x31c>)
 800264a:	685a      	ldr	r2, [r3, #4]
 800264c:	230c      	movs	r3, #12
 800264e:	4013      	ands	r3, r2
 8002650:	2b08      	cmp	r3, #8
 8002652:	d042      	beq.n	80026da <HAL_RCC_OscConfig+0x126>
      }
    }
    else
    {
      /* Check the HSI State */
      if(RCC_OscInitStruct->HSIState != RCC_HSI_OFF)
 8002654:	68e3      	ldr	r3, [r4, #12]
 8002656:	2b00      	cmp	r3, #0
 8002658:	d07b      	beq.n	8002752 <HAL_RCC_OscConfig+0x19e>
      {
       /* Enable the Internal High Speed oscillator (HSI). */
        __HAL_RCC_HSI_ENABLE();
 800265a:	4a9d      	ldr	r2, [pc, #628]	; (80028d0 <HAL_RCC_OscConfig+0x31c>)
 800265c:	6813      	ldr	r3, [r2, #0]
 800265e:	2101      	movs	r1, #1
 8002660:	430b      	orrs	r3, r1
 8002662:	6013      	str	r3, [r2, #0]
        
        /* Get Start Tick */
        tickstart = HAL_GetTick();
 8002664:	f000 ff34 	bl	80034d0 <HAL_GetTick>
 8002668:	0005      	movs	r5, r0
        
        /* Wait till HSI is ready */
        while(__HAL_RCC_GET_FLAG(RCC_FLAG_HSIRDY) == RESET)
 800266a:	4b99      	ldr	r3, [pc, #612]	; (80028d0 <HAL_RCC_OscConfig+0x31c>)
 800266c:	681b      	ldr	r3, [r3, #0]
 800266e:	079b      	lsls	r3, r3, #30
 8002670:	d466      	bmi.n	8002740 <HAL_RCC_OscConfig+0x18c>
        {
          if((HAL_GetTick() - tickstart ) > HSI_TIMEOUT_VALUE)
 8002672:	f000 ff2d 	bl	80034d0 <HAL_GetTick>
 8002676:	1b40      	subs	r0, r0, r5
 8002678:	2802      	cmp	r0, #2
 800267a:	d9f6      	bls.n	800266a <HAL_RCC_OscConfig+0xb6>
          {
            return HAL_TIMEOUT;
 800267c:	2003      	movs	r0, #3
 800267e:	e1bd      	b.n	80029fc <HAL_RCC_OscConfig+0x448>
      __HAL_RCC_HSE_CONFIG(RCC_OscInitStruct->HSEState);
 8002680:	4a93      	ldr	r2, [pc, #588]	; (80028d0 <HAL_RCC_OscConfig+0x31c>)
 8002682:	6811      	ldr	r1, [r2, #0]
 8002684:	2380      	movs	r3, #128	; 0x80
 8002686:	025b      	lsls	r3, r3, #9
 8002688:	430b      	orrs	r3, r1
 800268a:	6013      	str	r3, [r2, #0]
 800268c:	e7b2      	b.n	80025f4 <HAL_RCC_OscConfig+0x40>
 800268e:	2b05      	cmp	r3, #5
 8002690:	d009      	beq.n	80026a6 <HAL_RCC_OscConfig+0xf2>
 8002692:	4b8f      	ldr	r3, [pc, #572]	; (80028d0 <HAL_RCC_OscConfig+0x31c>)
 8002694:	681a      	ldr	r2, [r3, #0]
 8002696:	498f      	ldr	r1, [pc, #572]	; (80028d4 <HAL_RCC_OscConfig+0x320>)
 8002698:	400a      	ands	r2, r1
 800269a:	601a      	str	r2, [r3, #0]
 800269c:	681a      	ldr	r2, [r3, #0]
 800269e:	498e      	ldr	r1, [pc, #568]	; (80028d8 <HAL_RCC_OscConfig+0x324>)
 80026a0:	400a      	ands	r2, r1
 80026a2:	601a      	str	r2, [r3, #0]
 80026a4:	e7a6      	b.n	80025f4 <HAL_RCC_OscConfig+0x40>
 80026a6:	4b8a      	ldr	r3, [pc, #552]	; (80028d0 <HAL_RCC_OscConfig+0x31c>)
 80026a8:	6819      	ldr	r1, [r3, #0]
 80026aa:	2280      	movs	r2, #128	; 0x80
 80026ac:	02d2      	lsls	r2, r2, #11
 80026ae:	430a      	orrs	r2, r1
 80026b0:	601a      	str	r2, [r3, #0]
 80026b2:	6819      	ldr	r1, [r3, #0]
 80026b4:	2280      	movs	r2, #128	; 0x80
 80026b6:	0252      	lsls	r2, r2, #9
 80026b8:	430a      	orrs	r2, r1
 80026ba:	601a      	str	r2, [r3, #0]
 80026bc:	e79a      	b.n	80025f4 <HAL_RCC_OscConfig+0x40>
        tickstart = HAL_GetTick();
 80026be:	f000 ff07 	bl	80034d0 <HAL_GetTick>
 80026c2:	0005      	movs	r5, r0
        while(__HAL_RCC_GET_FLAG(RCC_FLAG_HSERDY) != RESET)
 80026c4:	4b82      	ldr	r3, [pc, #520]	; (80028d0 <HAL_RCC_OscConfig+0x31c>)
 80026c6:	681b      	ldr	r3, [r3, #0]
 80026c8:	039b      	lsls	r3, r3, #14
 80026ca:	d5b5      	bpl.n	8002638 <HAL_RCC_OscConfig+0x84>
           if((HAL_GetTick() - tickstart ) > HSE_TIMEOUT_VALUE)
 80026cc:	f000 ff00 	bl	80034d0 <HAL_GetTick>
 80026d0:	1b40      	subs	r0, r0, r5
 80026d2:	2864      	cmp	r0, #100	; 0x64
 80026d4:	d9f6      	bls.n	80026c4 <HAL_RCC_OscConfig+0x110>
            return HAL_TIMEOUT;
 80026d6:	2003      	movs	r0, #3
 80026d8:	e190      	b.n	80029fc <HAL_RCC_OscConfig+0x448>
       || ((__HAL_RCC_GET_SYSCLK_SOURCE() == RCC_SYSCLKSOURCE_STATUS_PLLCLK) && (__HAL_RCC_GET_PLL_OSCSOURCE() == RCC_PLLSOURCE_HSI)))
 80026da:	4b7d      	ldr	r3, [pc, #500]	; (80028d0 <HAL_RCC_OscConfig+0x31c>)
 80026dc:	685b      	ldr	r3, [r3, #4]
 80026de:	22c0      	movs	r2, #192	; 0xc0
 80026e0:	0252      	lsls	r2, r2, #9
 80026e2:	4013      	ands	r3, r2
 80026e4:	2280      	movs	r2, #128	; 0x80
 80026e6:	0212      	lsls	r2, r2, #8
 80026e8:	4293      	cmp	r3, r2
 80026ea:	d1b3      	bne.n	8002654 <HAL_RCC_OscConfig+0xa0>
      if((__HAL_RCC_GET_FLAG(RCC_FLAG_HSIRDY) != RESET) && (RCC_OscInitStruct->HSIState != RCC_HSI_ON))
 80026ec:	4b78      	ldr	r3, [pc, #480]	; (80028d0 <HAL_RCC_OscConfig+0x31c>)
 80026ee:	681b      	ldr	r3, [r3, #0]
 80026f0:	079b      	lsls	r3, r3, #30
 80026f2:	d504      	bpl.n	80026fe <HAL_RCC_OscConfig+0x14a>
 80026f4:	68e3      	ldr	r3, [r4, #12]
 80026f6:	2b01      	cmp	r3, #1
 80026f8:	d001      	beq.n	80026fe <HAL_RCC_OscConfig+0x14a>
        return HAL_ERROR;
 80026fa:	2001      	movs	r0, #1
 80026fc:	e17e      	b.n	80029fc <HAL_RCC_OscConfig+0x448>
        __HAL_RCC_HSI_CALIBRATIONVALUE_ADJUST(RCC_OscInitStruct->HSICalibrationValue);
 80026fe:	4974      	ldr	r1, [pc, #464]	; (80028d0 <HAL_RCC_OscConfig+0x31c>)
 8002700:	680b      	ldr	r3, [r1, #0]
 8002702:	22f8      	movs	r2, #248	; 0xf8
 8002704:	4393      	bics	r3, r2
 8002706:	6922      	ldr	r2, [r4, #16]
 8002708:	00d2      	lsls	r2, r2, #3
 800270a:	4313      	orrs	r3, r2
 800270c:	600b      	str	r3, [r1, #0]
        }
      }
    }
  }
  /*------------------------------ LSI Configuration -------------------------*/ 
  if(((RCC_OscInitStruct->OscillatorType) & RCC_OSCILLATORTYPE_LSI) == RCC_OSCILLATORTYPE_LSI)
 800270e:	6823      	ldr	r3, [r4, #0]
 8002710:	071b      	lsls	r3, r3, #28
 8002712:	d544      	bpl.n	800279e <HAL_RCC_OscConfig+0x1ea>
  {
    /* Check the parameters */
    assert_param(IS_RCC_LSI(RCC_OscInitStruct->LSIState));
    
    /* Check the LSI State */
    if(RCC_OscInitStruct->LSIState != RCC_LSI_OFF)
 8002714:	69e3      	ldr	r3, [r4, #28]
 8002716:	2b00      	cmp	r3, #0
 8002718:	d02e      	beq.n	8002778 <HAL_RCC_OscConfig+0x1c4>
    {
      /* Enable the Internal Low Speed oscillator (LSI). */
      __HAL_RCC_LSI_ENABLE();
 800271a:	4a6d      	ldr	r2, [pc, #436]	; (80028d0 <HAL_RCC_OscConfig+0x31c>)
 800271c:	6a53      	ldr	r3, [r2, #36]	; 0x24
 800271e:	2101      	movs	r1, #1
 8002720:	430b      	orrs	r3, r1
 8002722:	6253      	str	r3, [r2, #36]	; 0x24
      
      /* Get Start Tick */
      tickstart = HAL_GetTick();
 8002724:	f000 fed4 	bl	80034d0 <HAL_GetTick>
 8002728:	0005      	movs	r5, r0
      
      /* Wait till LSI is ready */  
      while(__HAL_RCC_GET_FLAG(RCC_FLAG_LSIRDY) == RESET)
 800272a:	4b69      	ldr	r3, [pc, #420]	; (80028d0 <HAL_RCC_OscConfig+0x31c>)
 800272c:	6a5b      	ldr	r3, [r3, #36]	; 0x24
 800272e:	079b      	lsls	r3, r3, #30
 8002730:	d435      	bmi.n	800279e <HAL_RCC_OscConfig+0x1ea>
      {
        if((HAL_GetTick() - tickstart ) > LSI_TIMEOUT_VALUE)
 8002732:	f000 fecd 	bl	80034d0 <HAL_GetTick>
 8002736:	1b40      	subs	r0, r0, r5
 8002738:	2802      	cmp	r0, #2
 800273a:	d9f6      	bls.n	800272a <HAL_RCC_OscConfig+0x176>
        {
          return HAL_TIMEOUT;
 800273c:	2003      	movs	r0, #3
 800273e:	e15d      	b.n	80029fc <HAL_RCC_OscConfig+0x448>
        __HAL_RCC_HSI_CALIBRATIONVALUE_ADJUST(RCC_OscInitStruct->HSICalibrationValue);
 8002740:	4963      	ldr	r1, [pc, #396]	; (80028d0 <HAL_RCC_OscConfig+0x31c>)
 8002742:	680b      	ldr	r3, [r1, #0]
 8002744:	22f8      	movs	r2, #248	; 0xf8
 8002746:	4393      	bics	r3, r2
 8002748:	6922      	ldr	r2, [r4, #16]
 800274a:	00d2      	lsls	r2, r2, #3
 800274c:	4313      	orrs	r3, r2
 800274e:	600b      	str	r3, [r1, #0]
 8002750:	e7dd      	b.n	800270e <HAL_RCC_OscConfig+0x15a>
        __HAL_RCC_HSI_DISABLE();
 8002752:	4a5f      	ldr	r2, [pc, #380]	; (80028d0 <HAL_RCC_OscConfig+0x31c>)
 8002754:	6813      	ldr	r3, [r2, #0]
 8002756:	2101      	movs	r1, #1
 8002758:	438b      	bics	r3, r1
 800275a:	6013      	str	r3, [r2, #0]
        tickstart = HAL_GetTick();
 800275c:	f000 feb8 	bl	80034d0 <HAL_GetTick>
 8002760:	0005      	movs	r5, r0
        while(__HAL_RCC_GET_FLAG(RCC_FLAG_HSIRDY) != RESET)
 8002762:	4b5b      	ldr	r3, [pc, #364]	; (80028d0 <HAL_RCC_OscConfig+0x31c>)
 8002764:	681b      	ldr	r3, [r3, #0]
 8002766:	079b      	lsls	r3, r3, #30
 8002768:	d5d1      	bpl.n	800270e <HAL_RCC_OscConfig+0x15a>
          if((HAL_GetTick() - tickstart ) > HSI_TIMEOUT_VALUE)
 800276a:	f000 feb1 	bl	80034d0 <HAL_GetTick>
 800276e:	1b40      	subs	r0, r0, r5
 8002770:	2802      	cmp	r0, #2
 8002772:	d9f6      	bls.n	8002762 <HAL_RCC_OscConfig+0x1ae>
            return HAL_TIMEOUT;
 8002774:	2003      	movs	r0, #3
 8002776:	e141      	b.n	80029fc <HAL_RCC_OscConfig+0x448>
      }
    }
    else
    {
      /* Disable the Internal Low Speed oscillator (LSI). */
      __HAL_RCC_LSI_DISABLE();
 8002778:	4a55      	ldr	r2, [pc, #340]	; (80028d0 <HAL_RCC_OscConfig+0x31c>)
 800277a:	6a53      	ldr	r3, [r2, #36]	; 0x24
 800277c:	2101      	movs	r1, #1
 800277e:	438b      	bics	r3, r1
 8002780:	6253      	str	r3, [r2, #36]	; 0x24
      
      /* Get Start Tick */
      tickstart = HAL_GetTick();
 8002782:	f000 fea5 	bl	80034d0 <HAL_GetTick>
 8002786:	0005      	movs	r5, r0
      
      /* Wait till LSI is disabled */  
      while(__HAL_RCC_GET_FLAG(RCC_FLAG_LSIRDY) != RESET)
 8002788:	4b51      	ldr	r3, [pc, #324]	; (80028d0 <HAL_RCC_OscConfig+0x31c>)
 800278a:	6a5b      	ldr	r3, [r3, #36]	; 0x24
 800278c:	079b      	lsls	r3, r3, #30
 800278e:	d506      	bpl.n	800279e <HAL_RCC_OscConfig+0x1ea>
      {
        if((HAL_GetTick() - tickstart ) > LSI_TIMEOUT_VALUE)
 8002790:	f000 fe9e 	bl	80034d0 <HAL_GetTick>
 8002794:	1b40      	subs	r0, r0, r5
 8002796:	2802      	cmp	r0, #2
 8002798:	d9f6      	bls.n	8002788 <HAL_RCC_OscConfig+0x1d4>
        {
          return HAL_TIMEOUT;
 800279a:	2003      	movs	r0, #3
 800279c:	e12e      	b.n	80029fc <HAL_RCC_OscConfig+0x448>
        }
      }
    }
  }
  /*------------------------------ LSE Configuration -------------------------*/ 
  if(((RCC_OscInitStruct->OscillatorType) & RCC_OSCILLATORTYPE_LSE) == RCC_OSCILLATORTYPE_LSE)
 800279e:	6823      	ldr	r3, [r4, #0]
 80027a0:	075b      	lsls	r3, r3, #29
 80027a2:	d575      	bpl.n	8002890 <HAL_RCC_OscConfig+0x2dc>
    /* Check the parameters */
    assert_param(IS_RCC_LSE(RCC_OscInitStruct->LSEState));

    /* Update LSE configuration in Backup Domain control register    */
    /* Requires to enable write access to Backup Domain of necessary */
    if(__HAL_RCC_PWR_IS_CLK_DISABLED())
 80027a4:	4b4a      	ldr	r3, [pc, #296]	; (80028d0 <HAL_RCC_OscConfig+0x31c>)
 80027a6:	69db      	ldr	r3, [r3, #28]
 80027a8:	00db      	lsls	r3, r3, #3
 80027aa:	d40b      	bmi.n	80027c4 <HAL_RCC_OscConfig+0x210>
    {
      __HAL_RCC_PWR_CLK_ENABLE();
 80027ac:	4a48      	ldr	r2, [pc, #288]	; (80028d0 <HAL_RCC_OscConfig+0x31c>)
 80027ae:	69d1      	ldr	r1, [r2, #28]
 80027b0:	2080      	movs	r0, #128	; 0x80
 80027b2:	0540      	lsls	r0, r0, #21
 80027b4:	4301      	orrs	r1, r0
 80027b6:	61d1      	str	r1, [r2, #28]
 80027b8:	69d3      	ldr	r3, [r2, #28]
 80027ba:	4003      	ands	r3, r0
 80027bc:	9301      	str	r3, [sp, #4]
 80027be:	9b01      	ldr	r3, [sp, #4]
      pwrclkchanged = SET;
 80027c0:	2501      	movs	r5, #1
 80027c2:	e000      	b.n	80027c6 <HAL_RCC_OscConfig+0x212>
    FlagStatus       pwrclkchanged = RESET;
 80027c4:	2500      	movs	r5, #0
    }
    
    if(HAL_IS_BIT_CLR(PWR->CR, PWR_CR_DBP))
 80027c6:	4b45      	ldr	r3, [pc, #276]	; (80028dc <HAL_RCC_OscConfig+0x328>)
 80027c8:	681b      	ldr	r3, [r3, #0]
 80027ca:	05db      	lsls	r3, r3, #23
 80027cc:	d51f      	bpl.n	800280e <HAL_RCC_OscConfig+0x25a>
        }
      }
    }

    /* Set the new LSE configuration -----------------------------------------*/
    __HAL_RCC_LSE_CONFIG(RCC_OscInitStruct->LSEState);
 80027ce:	68a3      	ldr	r3, [r4, #8]
 80027d0:	2b01      	cmp	r3, #1
 80027d2:	d030      	beq.n	8002836 <HAL_RCC_OscConfig+0x282>
 80027d4:	2b00      	cmp	r3, #0
 80027d6:	d134      	bne.n	8002842 <HAL_RCC_OscConfig+0x28e>
 80027d8:	4b3d      	ldr	r3, [pc, #244]	; (80028d0 <HAL_RCC_OscConfig+0x31c>)
 80027da:	6a1a      	ldr	r2, [r3, #32]
 80027dc:	2101      	movs	r1, #1
 80027de:	438a      	bics	r2, r1
 80027e0:	621a      	str	r2, [r3, #32]
 80027e2:	6a1a      	ldr	r2, [r3, #32]
 80027e4:	3103      	adds	r1, #3
 80027e6:	438a      	bics	r2, r1
 80027e8:	621a      	str	r2, [r3, #32]
    /* Check the LSE State */
    if(RCC_OscInitStruct->LSEState != RCC_LSE_OFF)
 80027ea:	68a3      	ldr	r3, [r4, #8]
 80027ec:	2b00      	cmp	r3, #0
 80027ee:	d03e      	beq.n	800286e <HAL_RCC_OscConfig+0x2ba>
    {
      /* Get Start Tick */
      tickstart = HAL_GetTick();
 80027f0:	f000 fe6e 	bl	80034d0 <HAL_GetTick>
 80027f4:	0006      	movs	r6, r0
      
      /* Wait till LSE is ready */  
      while(__HAL_RCC_GET_FLAG(RCC_FLAG_LSERDY) == RESET)
 80027f6:	4b36      	ldr	r3, [pc, #216]	; (80028d0 <HAL_RCC_OscConfig+0x31c>)
 80027f8:	6a1b      	ldr	r3, [r3, #32]
 80027fa:	079b      	lsls	r3, r3, #30
 80027fc:	d446      	bmi.n	800288c <HAL_RCC_OscConfig+0x2d8>
      {
        if((HAL_GetTick() - tickstart ) > RCC_LSE_TIMEOUT_VALUE)
 80027fe:	f000 fe67 	bl	80034d0 <HAL_GetTick>
 8002802:	1b80      	subs	r0, r0, r6
 8002804:	4b36      	ldr	r3, [pc, #216]	; (80028e0 <HAL_RCC_OscConfig+0x32c>)
 8002806:	4298      	cmp	r0, r3
 8002808:	d9f5      	bls.n	80027f6 <HAL_RCC_OscConfig+0x242>
        {
          return HAL_TIMEOUT;
 800280a:	2003      	movs	r0, #3
 800280c:	e0f6      	b.n	80029fc <HAL_RCC_OscConfig+0x448>
      SET_BIT(PWR->CR, PWR_CR_DBP);
 800280e:	4a33      	ldr	r2, [pc, #204]	; (80028dc <HAL_RCC_OscConfig+0x328>)
 8002810:	6811      	ldr	r1, [r2, #0]
 8002812:	2380      	movs	r3, #128	; 0x80
 8002814:	005b      	lsls	r3, r3, #1
 8002816:	430b      	orrs	r3, r1
 8002818:	6013      	str	r3, [r2, #0]
      tickstart = HAL_GetTick();
 800281a:	f000 fe59 	bl	80034d0 <HAL_GetTick>
 800281e:	0006      	movs	r6, r0
      while(HAL_IS_BIT_CLR(PWR->CR, PWR_CR_DBP))
 8002820:	4b2e      	ldr	r3, [pc, #184]	; (80028dc <HAL_RCC_OscConfig+0x328>)
 8002822:	681b      	ldr	r3, [r3, #0]
 8002824:	05db      	lsls	r3, r3, #23
 8002826:	d4d2      	bmi.n	80027ce <HAL_RCC_OscConfig+0x21a>
        if((HAL_GetTick() - tickstart) > RCC_DBP_TIMEOUT_VALUE)
 8002828:	f000 fe52 	bl	80034d0 <HAL_GetTick>
 800282c:	1b80      	subs	r0, r0, r6
 800282e:	2864      	cmp	r0, #100	; 0x64
 8002830:	d9f6      	bls.n	8002820 <HAL_RCC_OscConfig+0x26c>
          return HAL_TIMEOUT;
 8002832:	2003      	movs	r0, #3
 8002834:	e0e2      	b.n	80029fc <HAL_RCC_OscConfig+0x448>
    __HAL_RCC_LSE_CONFIG(RCC_OscInitStruct->LSEState);
 8002836:	4a26      	ldr	r2, [pc, #152]	; (80028d0 <HAL_RCC_OscConfig+0x31c>)
 8002838:	6a13      	ldr	r3, [r2, #32]
 800283a:	2101      	movs	r1, #1
 800283c:	430b      	orrs	r3, r1
 800283e:	6213      	str	r3, [r2, #32]
 8002840:	e7d3      	b.n	80027ea <HAL_RCC_OscConfig+0x236>
 8002842:	2b05      	cmp	r3, #5
 8002844:	d009      	beq.n	800285a <HAL_RCC_OscConfig+0x2a6>
 8002846:	4b22      	ldr	r3, [pc, #136]	; (80028d0 <HAL_RCC_OscConfig+0x31c>)
 8002848:	6a1a      	ldr	r2, [r3, #32]
 800284a:	2101      	movs	r1, #1
 800284c:	438a      	bics	r2, r1
 800284e:	621a      	str	r2, [r3, #32]
 8002850:	6a1a      	ldr	r2, [r3, #32]
 8002852:	3103      	adds	r1, #3
 8002854:	438a      	bics	r2, r1
 8002856:	621a      	str	r2, [r3, #32]
 8002858:	e7c7      	b.n	80027ea <HAL_RCC_OscConfig+0x236>
 800285a:	4b1d      	ldr	r3, [pc, #116]	; (80028d0 <HAL_RCC_OscConfig+0x31c>)
 800285c:	6a1a      	ldr	r2, [r3, #32]
 800285e:	2104      	movs	r1, #4
 8002860:	430a      	orrs	r2, r1
 8002862:	621a      	str	r2, [r3, #32]
 8002864:	6a1a      	ldr	r2, [r3, #32]
 8002866:	3903      	subs	r1, #3
 8002868:	430a      	orrs	r2, r1
 800286a:	621a      	str	r2, [r3, #32]
 800286c:	e7bd      	b.n	80027ea <HAL_RCC_OscConfig+0x236>
      }
    }
    else
    {
      /* Get Start Tick */
      tickstart = HAL_GetTick();
 800286e:	f000 fe2f 	bl	80034d0 <HAL_GetTick>
 8002872:	0006      	movs	r6, r0
      
      /* Wait till LSE is disabled */  
      while(__HAL_RCC_GET_FLAG(RCC_FLAG_LSERDY) != RESET)
 8002874:	4b16      	ldr	r3, [pc, #88]	; (80028d0 <HAL_RCC_OscConfig+0x31c>)
 8002876:	6a1b      	ldr	r3, [r3, #32]
 8002878:	079b      	lsls	r3, r3, #30
 800287a:	d507      	bpl.n	800288c <HAL_RCC_OscConfig+0x2d8>
      {
        if((HAL_GetTick() - tickstart ) > RCC_LSE_TIMEOUT_VALUE)
 800287c:	f000 fe28 	bl	80034d0 <HAL_GetTick>
 8002880:	1b80      	subs	r0, r0, r6
 8002882:	4b17      	ldr	r3, [pc, #92]	; (80028e0 <HAL_RCC_OscConfig+0x32c>)
 8002884:	4298      	cmp	r0, r3
 8002886:	d9f5      	bls.n	8002874 <HAL_RCC_OscConfig+0x2c0>
        {
          return HAL_TIMEOUT;
 8002888:	2003      	movs	r0, #3
 800288a:	e0b7      	b.n	80029fc <HAL_RCC_OscConfig+0x448>
        }
      }
    }

    /* Require to disable power clock if necessary */
    if(pwrclkchanged == SET)
 800288c:	2d01      	cmp	r5, #1
 800288e:	d029      	beq.n	80028e4 <HAL_RCC_OscConfig+0x330>
      __HAL_RCC_PWR_CLK_DISABLE();
    }
  }

  /*----------------------------- HSI14 Configuration --------------------------*/
  if(((RCC_OscInitStruct->OscillatorType) & RCC_OSCILLATORTYPE_HSI14) == RCC_OSCILLATORTYPE_HSI14)
 8002890:	6823      	ldr	r3, [r4, #0]
 8002892:	06db      	lsls	r3, r3, #27
 8002894:	d558      	bpl.n	8002948 <HAL_RCC_OscConfig+0x394>
    /* Check the parameters */
    assert_param(IS_RCC_HSI14(RCC_OscInitStruct->HSI14State));
    assert_param(IS_RCC_CALIBRATION_VALUE(RCC_OscInitStruct->HSI14CalibrationValue));

    /* Check the HSI14 State */
    if(RCC_OscInitStruct->HSI14State == RCC_HSI14_ON)
 8002896:	6963      	ldr	r3, [r4, #20]
 8002898:	2b01      	cmp	r3, #1
 800289a:	d029      	beq.n	80028f0 <HAL_RCC_OscConfig+0x33c>
      } 

      /* Adjusts the Internal High Speed oscillator 14Mhz (HSI14) calibration value. */
      __HAL_RCC_HSI14_CALIBRATIONVALUE_ADJUST(RCC_OscInitStruct->HSI14CalibrationValue);
    }
    else if(RCC_OscInitStruct->HSI14State == RCC_HSI14_ADC_CONTROL)
 800289c:	3305      	adds	r3, #5
 800289e:	d047      	beq.n	8002930 <HAL_RCC_OscConfig+0x37c>
      __HAL_RCC_HSI14_CALIBRATIONVALUE_ADJUST(RCC_OscInitStruct->HSI14CalibrationValue);
    }
    else
    {
      /* Disable ADC control of the Internal High Speed oscillator HSI14 */
      __HAL_RCC_HSI14ADC_DISABLE();
 80028a0:	4b0b      	ldr	r3, [pc, #44]	; (80028d0 <HAL_RCC_OscConfig+0x31c>)
 80028a2:	6b5a      	ldr	r2, [r3, #52]	; 0x34
 80028a4:	2104      	movs	r1, #4
 80028a6:	430a      	orrs	r2, r1
 80028a8:	635a      	str	r2, [r3, #52]	; 0x34

      /* Disable the Internal High Speed oscillator (HSI). */
      __HAL_RCC_HSI14_DISABLE();
 80028aa:	6b5a      	ldr	r2, [r3, #52]	; 0x34
 80028ac:	3903      	subs	r1, #3
 80028ae:	438a      	bics	r2, r1
 80028b0:	635a      	str	r2, [r3, #52]	; 0x34

      /* Get Start Tick */
      tickstart = HAL_GetTick();
 80028b2:	f000 fe0d 	bl	80034d0 <HAL_GetTick>
 80028b6:	0005      	movs	r5, r0
      
      /* Wait till HSI is ready */  
      while(__HAL_RCC_GET_FLAG(RCC_FLAG_HSI14RDY) != RESET)
 80028b8:	4b05      	ldr	r3, [pc, #20]	; (80028d0 <HAL_RCC_OscConfig+0x31c>)
 80028ba:	6b5b      	ldr	r3, [r3, #52]	; 0x34
 80028bc:	079b      	lsls	r3, r3, #30
 80028be:	d543      	bpl.n	8002948 <HAL_RCC_OscConfig+0x394>
      {
        if((HAL_GetTick() - tickstart) > HSI14_TIMEOUT_VALUE)
 80028c0:	f000 fe06 	bl	80034d0 <HAL_GetTick>
 80028c4:	1b40      	subs	r0, r0, r5
 80028c6:	2802      	cmp	r0, #2
 80028c8:	d9f6      	bls.n	80028b8 <HAL_RCC_OscConfig+0x304>
        {
          return HAL_TIMEOUT;
 80028ca:	2003      	movs	r0, #3
 80028cc:	e096      	b.n	80029fc <HAL_RCC_OscConfig+0x448>
 80028ce:	46c0      	nop			; (mov r8, r8)
 80028d0:	40021000 	.word	0x40021000
 80028d4:	fffeffff 	.word	0xfffeffff
 80028d8:	fffbffff 	.word	0xfffbffff
 80028dc:	40007000 	.word	0x40007000
 80028e0:	00001388 	.word	0x00001388
      __HAL_RCC_PWR_CLK_DISABLE();
 80028e4:	4a47      	ldr	r2, [pc, #284]	; (8002a04 <HAL_RCC_OscConfig+0x450>)
 80028e6:	69d3      	ldr	r3, [r2, #28]
 80028e8:	4947      	ldr	r1, [pc, #284]	; (8002a08 <HAL_RCC_OscConfig+0x454>)
 80028ea:	400b      	ands	r3, r1
 80028ec:	61d3      	str	r3, [r2, #28]
 80028ee:	e7cf      	b.n	8002890 <HAL_RCC_OscConfig+0x2dc>
      __HAL_RCC_HSI14ADC_DISABLE();
 80028f0:	4b44      	ldr	r3, [pc, #272]	; (8002a04 <HAL_RCC_OscConfig+0x450>)
 80028f2:	6b5a      	ldr	r2, [r3, #52]	; 0x34
 80028f4:	2104      	movs	r1, #4
 80028f6:	430a      	orrs	r2, r1
 80028f8:	635a      	str	r2, [r3, #52]	; 0x34
      __HAL_RCC_HSI14_ENABLE();
 80028fa:	6b5a      	ldr	r2, [r3, #52]	; 0x34
 80028fc:	3903      	subs	r1, #3
 80028fe:	430a      	orrs	r2, r1
 8002900:	635a      	str	r2, [r3, #52]	; 0x34
      tickstart = HAL_GetTick();
 8002902:	f000 fde5 	bl	80034d0 <HAL_GetTick>
 8002906:	0005      	movs	r5, r0
      while(__HAL_RCC_GET_FLAG(RCC_FLAG_HSI14RDY) == RESET)
 8002908:	4b3e      	ldr	r3, [pc, #248]	; (8002a04 <HAL_RCC_OscConfig+0x450>)
 800290a:	6b5b      	ldr	r3, [r3, #52]	; 0x34
 800290c:	079b      	lsls	r3, r3, #30
 800290e:	d406      	bmi.n	800291e <HAL_RCC_OscConfig+0x36a>
        if((HAL_GetTick() - tickstart) > HSI14_TIMEOUT_VALUE)
 8002910:	f000 fdde 	bl	80034d0 <HAL_GetTick>
 8002914:	1b40      	subs	r0, r0, r5
 8002916:	2802      	cmp	r0, #2
 8002918:	d9f6      	bls.n	8002908 <HAL_RCC_OscConfig+0x354>
          return HAL_TIMEOUT;
 800291a:	2003      	movs	r0, #3
 800291c:	e06e      	b.n	80029fc <HAL_RCC_OscConfig+0x448>
      __HAL_RCC_HSI14_CALIBRATIONVALUE_ADJUST(RCC_OscInitStruct->HSI14CalibrationValue);
 800291e:	4939      	ldr	r1, [pc, #228]	; (8002a04 <HAL_RCC_OscConfig+0x450>)
 8002920:	6b4b      	ldr	r3, [r1, #52]	; 0x34
 8002922:	22f8      	movs	r2, #248	; 0xf8
 8002924:	4393      	bics	r3, r2
 8002926:	69a2      	ldr	r2, [r4, #24]
 8002928:	00d2      	lsls	r2, r2, #3
 800292a:	4313      	orrs	r3, r2
 800292c:	634b      	str	r3, [r1, #52]	; 0x34
 800292e:	e00b      	b.n	8002948 <HAL_RCC_OscConfig+0x394>
      __HAL_RCC_HSI14ADC_ENABLE();
 8002930:	4a34      	ldr	r2, [pc, #208]	; (8002a04 <HAL_RCC_OscConfig+0x450>)
 8002932:	6b53      	ldr	r3, [r2, #52]	; 0x34
 8002934:	2104      	movs	r1, #4
 8002936:	438b      	bics	r3, r1
 8002938:	6353      	str	r3, [r2, #52]	; 0x34
      __HAL_RCC_HSI14_CALIBRATIONVALUE_ADJUST(RCC_OscInitStruct->HSI14CalibrationValue);
 800293a:	6b53      	ldr	r3, [r2, #52]	; 0x34
 800293c:	31f4      	adds	r1, #244	; 0xf4
 800293e:	438b      	bics	r3, r1
 8002940:	69a1      	ldr	r1, [r4, #24]
 8002942:	00c9      	lsls	r1, r1, #3
 8002944:	430b      	orrs	r3, r1
 8002946:	6353      	str	r3, [r2, #52]	; 0x34
#endif /* RCC_HSI48_SUPPORT */
       
  /*-------------------------------- PLL Configuration -----------------------*/
  /* Check the parameters */
  assert_param(IS_RCC_PLL(RCC_OscInitStruct->PLL.PLLState));
  if ((RCC_OscInitStruct->PLL.PLLState) != RCC_PLL_NONE)
 8002948:	6a23      	ldr	r3, [r4, #32]
 800294a:	2b00      	cmp	r3, #0
 800294c:	d055      	beq.n	80029fa <HAL_RCC_OscConfig+0x446>
  {
    /* Check if the PLL is used as system clock or not */
    if(__HAL_RCC_GET_SYSCLK_SOURCE() != RCC_SYSCLKSOURCE_STATUS_PLLCLK)
 800294e:	4a2d      	ldr	r2, [pc, #180]	; (8002a04 <HAL_RCC_OscConfig+0x450>)
 8002950:	6851      	ldr	r1, [r2, #4]
 8002952:	220c      	movs	r2, #12
 8002954:	400a      	ands	r2, r1
 8002956:	2a08      	cmp	r2, #8
 8002958:	d052      	beq.n	8002a00 <HAL_RCC_OscConfig+0x44c>
    { 
      if((RCC_OscInitStruct->PLL.PLLState) == RCC_PLL_ON)
 800295a:	2b02      	cmp	r3, #2
 800295c:	d012      	beq.n	8002984 <HAL_RCC_OscConfig+0x3d0>
        }
      }
      else
      {
        /* Disable the main PLL. */
        __HAL_RCC_PLL_DISABLE();
 800295e:	4a29      	ldr	r2, [pc, #164]	; (8002a04 <HAL_RCC_OscConfig+0x450>)
 8002960:	6813      	ldr	r3, [r2, #0]
 8002962:	492a      	ldr	r1, [pc, #168]	; (8002a0c <HAL_RCC_OscConfig+0x458>)
 8002964:	400b      	ands	r3, r1
 8002966:	6013      	str	r3, [r2, #0]
 
        /* Get Start Tick */
        tickstart = HAL_GetTick();
 8002968:	f000 fdb2 	bl	80034d0 <HAL_GetTick>
 800296c:	0004      	movs	r4, r0
        
        /* Wait till PLL is disabled */  
        while(__HAL_RCC_GET_FLAG(RCC_FLAG_PLLRDY)  != RESET)
 800296e:	4b25      	ldr	r3, [pc, #148]	; (8002a04 <HAL_RCC_OscConfig+0x450>)
 8002970:	681b      	ldr	r3, [r3, #0]
 8002972:	019b      	lsls	r3, r3, #6
 8002974:	d53d      	bpl.n	80029f2 <HAL_RCC_OscConfig+0x43e>
        {
          if((HAL_GetTick() - tickstart ) > PLL_TIMEOUT_VALUE)
 8002976:	f000 fdab 	bl	80034d0 <HAL_GetTick>
 800297a:	1b00      	subs	r0, r0, r4
 800297c:	2802      	cmp	r0, #2
 800297e:	d9f6      	bls.n	800296e <HAL_RCC_OscConfig+0x3ba>
          {
            return HAL_TIMEOUT;
 8002980:	2003      	movs	r0, #3
 8002982:	e03b      	b.n	80029fc <HAL_RCC_OscConfig+0x448>
        __HAL_RCC_PLL_DISABLE();
 8002984:	4a1f      	ldr	r2, [pc, #124]	; (8002a04 <HAL_RCC_OscConfig+0x450>)
 8002986:	6813      	ldr	r3, [r2, #0]
 8002988:	4920      	ldr	r1, [pc, #128]	; (8002a0c <HAL_RCC_OscConfig+0x458>)
 800298a:	400b      	ands	r3, r1
 800298c:	6013      	str	r3, [r2, #0]
        tickstart = HAL_GetTick();
 800298e:	f000 fd9f 	bl	80034d0 <HAL_GetTick>
 8002992:	0005      	movs	r5, r0
        while(__HAL_RCC_GET_FLAG(RCC_FLAG_PLLRDY)  != RESET)
 8002994:	4b1b      	ldr	r3, [pc, #108]	; (8002a04 <HAL_RCC_OscConfig+0x450>)
 8002996:	681b      	ldr	r3, [r3, #0]
 8002998:	019b      	lsls	r3, r3, #6
 800299a:	d506      	bpl.n	80029aa <HAL_RCC_OscConfig+0x3f6>
          if((HAL_GetTick() - tickstart ) > PLL_TIMEOUT_VALUE)
 800299c:	f000 fd98 	bl	80034d0 <HAL_GetTick>
 80029a0:	1b40      	subs	r0, r0, r5
 80029a2:	2802      	cmp	r0, #2
 80029a4:	d9f6      	bls.n	8002994 <HAL_RCC_OscConfig+0x3e0>
            return HAL_TIMEOUT;
 80029a6:	2003      	movs	r0, #3
 80029a8:	e028      	b.n	80029fc <HAL_RCC_OscConfig+0x448>
        __HAL_RCC_PLL_CONFIG(RCC_OscInitStruct->PLL.PLLSource,
 80029aa:	4b16      	ldr	r3, [pc, #88]	; (8002a04 <HAL_RCC_OscConfig+0x450>)
 80029ac:	6ada      	ldr	r2, [r3, #44]	; 0x2c
 80029ae:	210f      	movs	r1, #15
 80029b0:	438a      	bics	r2, r1
 80029b2:	6ae1      	ldr	r1, [r4, #44]	; 0x2c
 80029b4:	430a      	orrs	r2, r1
 80029b6:	62da      	str	r2, [r3, #44]	; 0x2c
 80029b8:	685a      	ldr	r2, [r3, #4]
 80029ba:	4915      	ldr	r1, [pc, #84]	; (8002a10 <HAL_RCC_OscConfig+0x45c>)
 80029bc:	400a      	ands	r2, r1
 80029be:	6aa1      	ldr	r1, [r4, #40]	; 0x28
 80029c0:	6a60      	ldr	r0, [r4, #36]	; 0x24
 80029c2:	4301      	orrs	r1, r0
 80029c4:	430a      	orrs	r2, r1
 80029c6:	605a      	str	r2, [r3, #4]
        __HAL_RCC_PLL_ENABLE();
 80029c8:	6819      	ldr	r1, [r3, #0]
 80029ca:	2280      	movs	r2, #128	; 0x80
 80029cc:	0452      	lsls	r2, r2, #17
 80029ce:	430a      	orrs	r2, r1
 80029d0:	601a      	str	r2, [r3, #0]
        tickstart = HAL_GetTick();
 80029d2:	f000 fd7d 	bl	80034d0 <HAL_GetTick>
 80029d6:	0004      	movs	r4, r0
        while(__HAL_RCC_GET_FLAG(RCC_FLAG_PLLRDY)  == RESET)
 80029d8:	4b0a      	ldr	r3, [pc, #40]	; (8002a04 <HAL_RCC_OscConfig+0x450>)
 80029da:	681b      	ldr	r3, [r3, #0]
 80029dc:	019b      	lsls	r3, r3, #6
 80029de:	d406      	bmi.n	80029ee <HAL_RCC_OscConfig+0x43a>
          if((HAL_GetTick() - tickstart ) > PLL_TIMEOUT_VALUE)
 80029e0:	f000 fd76 	bl	80034d0 <HAL_GetTick>
 80029e4:	1b00      	subs	r0, r0, r4
 80029e6:	2802      	cmp	r0, #2
 80029e8:	d9f6      	bls.n	80029d8 <HAL_RCC_OscConfig+0x424>
            return HAL_TIMEOUT;
 80029ea:	2003      	movs	r0, #3
 80029ec:	e006      	b.n	80029fc <HAL_RCC_OscConfig+0x448>
    {
      return HAL_ERROR;
    }
  }
  
  return HAL_OK;
 80029ee:	2000      	movs	r0, #0
 80029f0:	e004      	b.n	80029fc <HAL_RCC_OscConfig+0x448>
 80029f2:	2000      	movs	r0, #0
 80029f4:	e002      	b.n	80029fc <HAL_RCC_OscConfig+0x448>
        return HAL_ERROR;
 80029f6:	2001      	movs	r0, #1
 80029f8:	e000      	b.n	80029fc <HAL_RCC_OscConfig+0x448>
  return HAL_OK;
 80029fa:	2000      	movs	r0, #0
}
 80029fc:	b002      	add	sp, #8
 80029fe:	bd70      	pop	{r4, r5, r6, pc}
      return HAL_ERROR;
 8002a00:	2001      	movs	r0, #1
 8002a02:	e7fb      	b.n	80029fc <HAL_RCC_OscConfig+0x448>
 8002a04:	40021000 	.word	0x40021000
 8002a08:	efffffff 	.word	0xefffffff
 8002a0c:	feffffff 	.word	0xfeffffff
 8002a10:	ffc27fff 	.word	0xffc27fff

08002a14 <HAL_RCC_GetSysClockFreq>:
  *         right SYSCLK value. Otherwise, any configuration based on this function will be incorrect.
  *         
  * @retval SYSCLK frequency
  */
uint32_t HAL_RCC_GetSysClockFreq(void)
{
 8002a14:	b530      	push	{r4, r5, lr}
 8002a16:	b089      	sub	sp, #36	; 0x24
  const uint8_t aPLLMULFactorTable[16] = { 2U,  3U,  4U,  5U,  6U,  7U,  8U,  9U,
 8002a18:	aa04      	add	r2, sp, #16
 8002a1a:	4b18      	ldr	r3, [pc, #96]	; (8002a7c <HAL_RCC_GetSysClockFreq+0x68>)
 8002a1c:	0018      	movs	r0, r3
 8002a1e:	c832      	ldmia	r0!, {r1, r4, r5}
 8002a20:	c232      	stmia	r2!, {r1, r4, r5}
 8002a22:	0011      	movs	r1, r2
 8002a24:	6802      	ldr	r2, [r0, #0]
 8002a26:	600a      	str	r2, [r1, #0]
                                         10U, 11U, 12U, 13U, 14U, 15U, 16U, 16U};
  const uint8_t aPredivFactorTable[16] = { 1U, 2U,  3U,  4U,  5U,  6U,  7U,  8U,
 8002a28:	466a      	mov	r2, sp
 8002a2a:	3310      	adds	r3, #16
 8002a2c:	cb13      	ldmia	r3!, {r0, r1, r4}
 8002a2e:	c213      	stmia	r2!, {r0, r1, r4}
 8002a30:	681b      	ldr	r3, [r3, #0]
 8002a32:	6013      	str	r3, [r2, #0]
                                           9U,10U, 11U, 12U, 13U, 14U, 15U, 16U};

  uint32_t tmpreg = 0U, prediv = 0U, pllclk = 0U, pllmul = 0U;
  uint32_t sysclockfreq = 0U;
  
  tmpreg = RCC->CFGR;
 8002a34:	4b12      	ldr	r3, [pc, #72]	; (8002a80 <HAL_RCC_GetSysClockFreq+0x6c>)
 8002a36:	685a      	ldr	r2, [r3, #4]
  
  /* Get SYSCLK source -------------------------------------------------------*/
  switch (tmpreg & RCC_CFGR_SWS)
 8002a38:	230c      	movs	r3, #12
 8002a3a:	4013      	ands	r3, r2
 8002a3c:	2b08      	cmp	r3, #8
 8002a3e:	d11a      	bne.n	8002a76 <HAL_RCC_GetSysClockFreq+0x62>
      sysclockfreq = HSE_VALUE;
      break;
    }
    case RCC_SYSCLKSOURCE_STATUS_PLLCLK:  /* PLL used as system clock */
    {
      pllmul = aPLLMULFactorTable[(uint32_t)(tmpreg & RCC_CFGR_PLLMUL) >> RCC_CFGR_PLLMUL_BITNUMBER];
 8002a40:	0c91      	lsrs	r1, r2, #18
 8002a42:	3307      	adds	r3, #7
 8002a44:	4019      	ands	r1, r3
 8002a46:	a804      	add	r0, sp, #16
 8002a48:	5c44      	ldrb	r4, [r0, r1]
      prediv = aPredivFactorTable[(uint32_t)(RCC->CFGR2 & RCC_CFGR2_PREDIV) >> RCC_CFGR2_PREDIV_BITNUMBER];
 8002a4a:	490d      	ldr	r1, [pc, #52]	; (8002a80 <HAL_RCC_GetSysClockFreq+0x6c>)
 8002a4c:	6ac9      	ldr	r1, [r1, #44]	; 0x2c
 8002a4e:	400b      	ands	r3, r1
 8002a50:	4669      	mov	r1, sp
 8002a52:	5cc9      	ldrb	r1, [r1, r3]
      if ((tmpreg & RCC_CFGR_PLLSRC) == RCC_PLLSOURCE_HSE)
 8002a54:	23c0      	movs	r3, #192	; 0xc0
 8002a56:	025b      	lsls	r3, r3, #9
 8002a58:	401a      	ands	r2, r3
 8002a5a:	2380      	movs	r3, #128	; 0x80
 8002a5c:	025b      	lsls	r3, r3, #9
 8002a5e:	429a      	cmp	r2, r3
 8002a60:	d004      	beq.n	8002a6c <HAL_RCC_GetSysClockFreq+0x58>
#endif /* RCC_CFGR_PLLSRC_HSI48_PREDIV */
      else
      {
#if  (defined(STM32F042x6) || defined(STM32F048xx) || defined(STM32F070x6) || defined(STM32F071xB) || defined(STM32F072xB) || defined(STM32F078xx) || defined(STM32F070xB) || defined(STM32F091xC) || defined(STM32F098xx) || defined(STM32F030xC))
        /* HSI used as PLL clock source : PLLCLK = HSI/PREDIV * PLLMUL */
        pllclk = (HSI_VALUE / prediv) * pllmul;
 8002a62:	4808      	ldr	r0, [pc, #32]	; (8002a84 <HAL_RCC_GetSysClockFreq+0x70>)
 8002a64:	f7fd fb62 	bl	800012c <__udivsi3>
 8002a68:	4360      	muls	r0, r4
 8002a6a:	e005      	b.n	8002a78 <HAL_RCC_GetSysClockFreq+0x64>
        pllclk = (HSE_VALUE / prediv) * pllmul;
 8002a6c:	4805      	ldr	r0, [pc, #20]	; (8002a84 <HAL_RCC_GetSysClockFreq+0x70>)
 8002a6e:	f7fd fb5d 	bl	800012c <__udivsi3>
 8002a72:	4360      	muls	r0, r4
 8002a74:	e000      	b.n	8002a78 <HAL_RCC_GetSysClockFreq+0x64>
      sysclockfreq = HSE_VALUE;
 8002a76:	4803      	ldr	r0, [pc, #12]	; (8002a84 <HAL_RCC_GetSysClockFreq+0x70>)
      sysclockfreq = HSI_VALUE;
      break;
    }
  }
  return sysclockfreq;
}
 8002a78:	b009      	add	sp, #36	; 0x24
 8002a7a:	bd30      	pop	{r4, r5, pc}
 8002a7c:	080059b4 	.word	0x080059b4
 8002a80:	40021000 	.word	0x40021000
 8002a84:	007a1200 	.word	0x007a1200

08002a88 <HAL_RCC_ClockConfig>:
{
 8002a88:	b570      	push	{r4, r5, r6, lr}
 8002a8a:	0005      	movs	r5, r0
 8002a8c:	000c      	movs	r4, r1
  if(FLatency > (FLASH->ACR & FLASH_ACR_LATENCY))
 8002a8e:	4b4d      	ldr	r3, [pc, #308]	; (8002bc4 <HAL_RCC_ClockConfig+0x13c>)
 8002a90:	681a      	ldr	r2, [r3, #0]
 8002a92:	2301      	movs	r3, #1
 8002a94:	4013      	ands	r3, r2
 8002a96:	428b      	cmp	r3, r1
 8002a98:	d20b      	bcs.n	8002ab2 <HAL_RCC_ClockConfig+0x2a>
    __HAL_FLASH_SET_LATENCY(FLatency);
 8002a9a:	494a      	ldr	r1, [pc, #296]	; (8002bc4 <HAL_RCC_ClockConfig+0x13c>)
 8002a9c:	680b      	ldr	r3, [r1, #0]
 8002a9e:	2201      	movs	r2, #1
 8002aa0:	4393      	bics	r3, r2
 8002aa2:	4323      	orrs	r3, r4
 8002aa4:	600b      	str	r3, [r1, #0]
    if((FLASH->ACR & FLASH_ACR_LATENCY) != FLatency)
 8002aa6:	680b      	ldr	r3, [r1, #0]
 8002aa8:	401a      	ands	r2, r3
 8002aaa:	4294      	cmp	r4, r2
 8002aac:	d001      	beq.n	8002ab2 <HAL_RCC_ClockConfig+0x2a>
      return HAL_ERROR;
 8002aae:	2001      	movs	r0, #1
 8002ab0:	e085      	b.n	8002bbe <HAL_RCC_ClockConfig+0x136>
  if(((RCC_ClkInitStruct->ClockType) & RCC_CLOCKTYPE_HCLK) == RCC_CLOCKTYPE_HCLK)
 8002ab2:	682b      	ldr	r3, [r5, #0]
 8002ab4:	079b      	lsls	r3, r3, #30
 8002ab6:	d506      	bpl.n	8002ac6 <HAL_RCC_ClockConfig+0x3e>
    MODIFY_REG(RCC->CFGR, RCC_CFGR_HPRE, RCC_ClkInitStruct->AHBCLKDivider);
 8002ab8:	4a43      	ldr	r2, [pc, #268]	; (8002bc8 <HAL_RCC_ClockConfig+0x140>)
 8002aba:	6853      	ldr	r3, [r2, #4]
 8002abc:	21f0      	movs	r1, #240	; 0xf0
 8002abe:	438b      	bics	r3, r1
 8002ac0:	68a9      	ldr	r1, [r5, #8]
 8002ac2:	430b      	orrs	r3, r1
 8002ac4:	6053      	str	r3, [r2, #4]
  if(((RCC_ClkInitStruct->ClockType) & RCC_CLOCKTYPE_SYSCLK) == RCC_CLOCKTYPE_SYSCLK)
 8002ac6:	682b      	ldr	r3, [r5, #0]
 8002ac8:	07db      	lsls	r3, r3, #31
 8002aca:	d54c      	bpl.n	8002b66 <HAL_RCC_ClockConfig+0xde>
    if(RCC_ClkInitStruct->SYSCLKSource == RCC_SYSCLKSOURCE_HSE)
 8002acc:	686b      	ldr	r3, [r5, #4]
 8002ace:	2b01      	cmp	r3, #1
 8002ad0:	d021      	beq.n	8002b16 <HAL_RCC_ClockConfig+0x8e>
    else if(RCC_ClkInitStruct->SYSCLKSource == RCC_SYSCLKSOURCE_PLLCLK)
 8002ad2:	2b02      	cmp	r3, #2
 8002ad4:	d025      	beq.n	8002b22 <HAL_RCC_ClockConfig+0x9a>
      if(__HAL_RCC_GET_FLAG(RCC_FLAG_HSIRDY) == RESET)
 8002ad6:	4a3c      	ldr	r2, [pc, #240]	; (8002bc8 <HAL_RCC_ClockConfig+0x140>)
 8002ad8:	6812      	ldr	r2, [r2, #0]
 8002ada:	0792      	lsls	r2, r2, #30
 8002adc:	d400      	bmi.n	8002ae0 <HAL_RCC_ClockConfig+0x58>
 8002ade:	e06f      	b.n	8002bc0 <HAL_RCC_ClockConfig+0x138>
    __HAL_RCC_SYSCLK_CONFIG(RCC_ClkInitStruct->SYSCLKSource);
 8002ae0:	4939      	ldr	r1, [pc, #228]	; (8002bc8 <HAL_RCC_ClockConfig+0x140>)
 8002ae2:	684a      	ldr	r2, [r1, #4]
 8002ae4:	2003      	movs	r0, #3
 8002ae6:	4382      	bics	r2, r0
 8002ae8:	4313      	orrs	r3, r2
 8002aea:	604b      	str	r3, [r1, #4]
    tickstart = HAL_GetTick();
 8002aec:	f000 fcf0 	bl	80034d0 <HAL_GetTick>
 8002af0:	0006      	movs	r6, r0
    if(RCC_ClkInitStruct->SYSCLKSource == RCC_SYSCLKSOURCE_HSE)
 8002af2:	686b      	ldr	r3, [r5, #4]
 8002af4:	2b01      	cmp	r3, #1
 8002af6:	d01a      	beq.n	8002b2e <HAL_RCC_ClockConfig+0xa6>
    else if(RCC_ClkInitStruct->SYSCLKSource == RCC_SYSCLKSOURCE_PLLCLK)
 8002af8:	2b02      	cmp	r3, #2
 8002afa:	d026      	beq.n	8002b4a <HAL_RCC_ClockConfig+0xc2>
      while (__HAL_RCC_GET_SYSCLK_SOURCE() != RCC_SYSCLKSOURCE_STATUS_HSI)
 8002afc:	4b32      	ldr	r3, [pc, #200]	; (8002bc8 <HAL_RCC_ClockConfig+0x140>)
 8002afe:	685b      	ldr	r3, [r3, #4]
 8002b00:	220c      	movs	r2, #12
 8002b02:	421a      	tst	r2, r3
 8002b04:	d02f      	beq.n	8002b66 <HAL_RCC_ClockConfig+0xde>
        if((HAL_GetTick() - tickstart ) > CLOCKSWITCH_TIMEOUT_VALUE)
 8002b06:	f000 fce3 	bl	80034d0 <HAL_GetTick>
 8002b0a:	1b80      	subs	r0, r0, r6
 8002b0c:	4b2f      	ldr	r3, [pc, #188]	; (8002bcc <HAL_RCC_ClockConfig+0x144>)
 8002b0e:	4298      	cmp	r0, r3
 8002b10:	d9f4      	bls.n	8002afc <HAL_RCC_ClockConfig+0x74>
          return HAL_TIMEOUT;
 8002b12:	2003      	movs	r0, #3
 8002b14:	e053      	b.n	8002bbe <HAL_RCC_ClockConfig+0x136>
      if(__HAL_RCC_GET_FLAG(RCC_FLAG_HSERDY) == RESET)
 8002b16:	4a2c      	ldr	r2, [pc, #176]	; (8002bc8 <HAL_RCC_ClockConfig+0x140>)
 8002b18:	6812      	ldr	r2, [r2, #0]
 8002b1a:	0392      	lsls	r2, r2, #14
 8002b1c:	d4e0      	bmi.n	8002ae0 <HAL_RCC_ClockConfig+0x58>
        return HAL_ERROR;
 8002b1e:	2001      	movs	r0, #1
 8002b20:	e04d      	b.n	8002bbe <HAL_RCC_ClockConfig+0x136>
      if(__HAL_RCC_GET_FLAG(RCC_FLAG_PLLRDY) == RESET)
 8002b22:	4a29      	ldr	r2, [pc, #164]	; (8002bc8 <HAL_RCC_ClockConfig+0x140>)
 8002b24:	6812      	ldr	r2, [r2, #0]
 8002b26:	0192      	lsls	r2, r2, #6
 8002b28:	d4da      	bmi.n	8002ae0 <HAL_RCC_ClockConfig+0x58>
        return HAL_ERROR;
 8002b2a:	2001      	movs	r0, #1
 8002b2c:	e047      	b.n	8002bbe <HAL_RCC_ClockConfig+0x136>
      while (__HAL_RCC_GET_SYSCLK_SOURCE() != RCC_SYSCLKSOURCE_STATUS_HSE)
 8002b2e:	4b26      	ldr	r3, [pc, #152]	; (8002bc8 <HAL_RCC_ClockConfig+0x140>)
 8002b30:	685a      	ldr	r2, [r3, #4]
 8002b32:	230c      	movs	r3, #12
 8002b34:	4013      	ands	r3, r2
 8002b36:	2b04      	cmp	r3, #4
 8002b38:	d015      	beq.n	8002b66 <HAL_RCC_ClockConfig+0xde>
        if((HAL_GetTick() - tickstart ) > CLOCKSWITCH_TIMEOUT_VALUE)
 8002b3a:	f000 fcc9 	bl	80034d0 <HAL_GetTick>
 8002b3e:	1b80      	subs	r0, r0, r6
 8002b40:	4b22      	ldr	r3, [pc, #136]	; (8002bcc <HAL_RCC_ClockConfig+0x144>)
 8002b42:	4298      	cmp	r0, r3
 8002b44:	d9f3      	bls.n	8002b2e <HAL_RCC_ClockConfig+0xa6>
          return HAL_TIMEOUT;
 8002b46:	2003      	movs	r0, #3
 8002b48:	e039      	b.n	8002bbe <HAL_RCC_ClockConfig+0x136>
      while (__HAL_RCC_GET_SYSCLK_SOURCE() != RCC_SYSCLKSOURCE_STATUS_PLLCLK)
 8002b4a:	4b1f      	ldr	r3, [pc, #124]	; (8002bc8 <HAL_RCC_ClockConfig+0x140>)
 8002b4c:	685a      	ldr	r2, [r3, #4]
 8002b4e:	230c      	movs	r3, #12
 8002b50:	4013      	ands	r3, r2
 8002b52:	2b08      	cmp	r3, #8
 8002b54:	d007      	beq.n	8002b66 <HAL_RCC_ClockConfig+0xde>
        if((HAL_GetTick() - tickstart ) > CLOCKSWITCH_TIMEOUT_VALUE)
 8002b56:	f000 fcbb 	bl	80034d0 <HAL_GetTick>
 8002b5a:	1b80      	subs	r0, r0, r6
 8002b5c:	4b1b      	ldr	r3, [pc, #108]	; (8002bcc <HAL_RCC_ClockConfig+0x144>)
 8002b5e:	4298      	cmp	r0, r3
 8002b60:	d9f3      	bls.n	8002b4a <HAL_RCC_ClockConfig+0xc2>
          return HAL_TIMEOUT;
 8002b62:	2003      	movs	r0, #3
 8002b64:	e02b      	b.n	8002bbe <HAL_RCC_ClockConfig+0x136>
  if(FLatency < (FLASH->ACR & FLASH_ACR_LATENCY))
 8002b66:	4b17      	ldr	r3, [pc, #92]	; (8002bc4 <HAL_RCC_ClockConfig+0x13c>)
 8002b68:	681a      	ldr	r2, [r3, #0]
 8002b6a:	2301      	movs	r3, #1
 8002b6c:	4013      	ands	r3, r2
 8002b6e:	429c      	cmp	r4, r3
 8002b70:	d20b      	bcs.n	8002b8a <HAL_RCC_ClockConfig+0x102>
    __HAL_FLASH_SET_LATENCY(FLatency);
 8002b72:	4914      	ldr	r1, [pc, #80]	; (8002bc4 <HAL_RCC_ClockConfig+0x13c>)
 8002b74:	680b      	ldr	r3, [r1, #0]
 8002b76:	2201      	movs	r2, #1
 8002b78:	4393      	bics	r3, r2
 8002b7a:	4323      	orrs	r3, r4
 8002b7c:	600b      	str	r3, [r1, #0]
    if((FLASH->ACR & FLASH_ACR_LATENCY) != FLatency)
 8002b7e:	680b      	ldr	r3, [r1, #0]
 8002b80:	401a      	ands	r2, r3
 8002b82:	4294      	cmp	r4, r2
 8002b84:	d001      	beq.n	8002b8a <HAL_RCC_ClockConfig+0x102>
      return HAL_ERROR;
 8002b86:	2001      	movs	r0, #1
 8002b88:	e019      	b.n	8002bbe <HAL_RCC_ClockConfig+0x136>
  if(((RCC_ClkInitStruct->ClockType) & RCC_CLOCKTYPE_PCLK1) == RCC_CLOCKTYPE_PCLK1)
 8002b8a:	682b      	ldr	r3, [r5, #0]
 8002b8c:	075b      	lsls	r3, r3, #29
 8002b8e:	d506      	bpl.n	8002b9e <HAL_RCC_ClockConfig+0x116>
    MODIFY_REG(RCC->CFGR, RCC_CFGR_PPRE, RCC_ClkInitStruct->APB1CLKDivider);
 8002b90:	4a0d      	ldr	r2, [pc, #52]	; (8002bc8 <HAL_RCC_ClockConfig+0x140>)
 8002b92:	6853      	ldr	r3, [r2, #4]
 8002b94:	490e      	ldr	r1, [pc, #56]	; (8002bd0 <HAL_RCC_ClockConfig+0x148>)
 8002b96:	400b      	ands	r3, r1
 8002b98:	68e9      	ldr	r1, [r5, #12]
 8002b9a:	430b      	orrs	r3, r1
 8002b9c:	6053      	str	r3, [r2, #4]
  SystemCoreClock = HAL_RCC_GetSysClockFreq() >> AHBPrescTable[(RCC->CFGR & RCC_CFGR_HPRE)>> RCC_CFGR_HPRE_BITNUMBER];
 8002b9e:	f7ff ff39 	bl	8002a14 <HAL_RCC_GetSysClockFreq>
 8002ba2:	4b09      	ldr	r3, [pc, #36]	; (8002bc8 <HAL_RCC_ClockConfig+0x140>)
 8002ba4:	685a      	ldr	r2, [r3, #4]
 8002ba6:	0912      	lsrs	r2, r2, #4
 8002ba8:	230f      	movs	r3, #15
 8002baa:	4013      	ands	r3, r2
 8002bac:	4a09      	ldr	r2, [pc, #36]	; (8002bd4 <HAL_RCC_ClockConfig+0x14c>)
 8002bae:	5cd3      	ldrb	r3, [r2, r3]
 8002bb0:	40d8      	lsrs	r0, r3
 8002bb2:	4b09      	ldr	r3, [pc, #36]	; (8002bd8 <HAL_RCC_ClockConfig+0x150>)
 8002bb4:	6018      	str	r0, [r3, #0]
  HAL_InitTick (TICK_INT_PRIORITY);
 8002bb6:	2003      	movs	r0, #3
 8002bb8:	f000 fc84 	bl	80034c4 <HAL_InitTick>
  return HAL_OK;
 8002bbc:	2000      	movs	r0, #0
}
 8002bbe:	bd70      	pop	{r4, r5, r6, pc}
        return HAL_ERROR;
 8002bc0:	2001      	movs	r0, #1
 8002bc2:	e7fc      	b.n	8002bbe <HAL_RCC_ClockConfig+0x136>
 8002bc4:	40022000 	.word	0x40022000
 8002bc8:	40021000 	.word	0x40021000
 8002bcc:	00001388 	.word	0x00001388
 8002bd0:	fffff8ff 	.word	0xfffff8ff
 8002bd4:	080059d4 	.word	0x080059d4
 8002bd8:	200001cc 	.word	0x200001cc

08002bdc <HAL_RCC_GetHCLKFreq>:
  *         and updated within this function
  * @retval HCLK frequency
  */
uint32_t HAL_RCC_GetHCLKFreq(void)
{
  return SystemCoreClock;
 8002bdc:	4b01      	ldr	r3, [pc, #4]	; (8002be4 <HAL_RCC_GetHCLKFreq+0x8>)
 8002bde:	6818      	ldr	r0, [r3, #0]
}
 8002be0:	4770      	bx	lr
 8002be2:	46c0      	nop			; (mov r8, r8)
 8002be4:	200001cc 	.word	0x200001cc

08002be8 <HAL_RCC_GetPCLK1Freq>:
  * @note   Each time PCLK1 changes, this function must be called to update the
  *         right PCLK1 value. Otherwise, any configuration based on this function will be incorrect.
  * @retval PCLK1 frequency
  */
uint32_t HAL_RCC_GetPCLK1Freq(void)
{
 8002be8:	b510      	push	{r4, lr}
  /* Get HCLK source and Compute PCLK1 frequency ---------------------------*/
  return (HAL_RCC_GetHCLKFreq() >> APBPrescTable[(RCC->CFGR & RCC_CFGR_PPRE) >> RCC_CFGR_PPRE_BITNUMBER]);
 8002bea:	f7ff fff7 	bl	8002bdc <HAL_RCC_GetHCLKFreq>
 8002bee:	4b04      	ldr	r3, [pc, #16]	; (8002c00 <HAL_RCC_GetPCLK1Freq+0x18>)
 8002bf0:	685a      	ldr	r2, [r3, #4]
 8002bf2:	0a12      	lsrs	r2, r2, #8
 8002bf4:	2307      	movs	r3, #7
 8002bf6:	4013      	ands	r3, r2
 8002bf8:	4a02      	ldr	r2, [pc, #8]	; (8002c04 <HAL_RCC_GetPCLK1Freq+0x1c>)
 8002bfa:	5cd3      	ldrb	r3, [r2, r3]
 8002bfc:	40d8      	lsrs	r0, r3
}    
 8002bfe:	bd10      	pop	{r4, pc}
 8002c00:	40021000 	.word	0x40021000
 8002c04:	080059e4 	.word	0x080059e4

08002c08 <HAL_TIM_Base_MspInit>:
  UNUSED(htim);

  /* NOTE : This function Should not be modified, when the callback is needed,
            the HAL_TIM_Base_MspInit could be implemented in the user file
   */
}
 8002c08:	4770      	bx	lr

08002c0a <HAL_TIM_Base_Start>:
  * @brief  Starts the TIM Base generation.
  * @param  htim TIM handle
  * @retval HAL status
*/
HAL_StatusTypeDef HAL_TIM_Base_Start(TIM_HandleTypeDef *htim)
{
 8002c0a:	b510      	push	{r4, lr}
  /* Check the parameters */
  assert_param(IS_TIM_INSTANCE(htim->Instance));

  /* Set the TIM state */
  htim->State= HAL_TIM_STATE_BUSY;
 8002c0c:	223d      	movs	r2, #61	; 0x3d
 8002c0e:	2302      	movs	r3, #2
 8002c10:	5483      	strb	r3, [r0, r2]

  /* Enable the Peripheral */
  __HAL_TIM_ENABLE(htim);
 8002c12:	6804      	ldr	r4, [r0, #0]
 8002c14:	6823      	ldr	r3, [r4, #0]
 8002c16:	2101      	movs	r1, #1
 8002c18:	430b      	orrs	r3, r1
 8002c1a:	6023      	str	r3, [r4, #0]

  /* Change the TIM state*/
  htim->State= HAL_TIM_STATE_READY;
 8002c1c:	5481      	strb	r1, [r0, r2]

  /* Return function status */
  return HAL_OK;
}
 8002c1e:	2000      	movs	r0, #0
 8002c20:	bd10      	pop	{r4, pc}
	...

08002c24 <TIM_Base_SetConfig>:
  * @retval None
  */
void TIM_Base_SetConfig(TIM_TypeDef *TIMx, TIM_Base_InitTypeDef *Structure)
{
  uint32_t tmpcr1 = 0U;
  tmpcr1 = TIMx->CR1;
 8002c24:	6803      	ldr	r3, [r0, #0]

  /* Set TIM Time Base Unit parameters ---------------------------------------*/
  if (IS_TIM_COUNTER_MODE_SELECT_INSTANCE(TIMx))
 8002c26:	4a1d      	ldr	r2, [pc, #116]	; (8002c9c <TIM_Base_SetConfig+0x78>)
 8002c28:	4290      	cmp	r0, r2
 8002c2a:	d032      	beq.n	8002c92 <TIM_Base_SetConfig+0x6e>
 8002c2c:	4a1c      	ldr	r2, [pc, #112]	; (8002ca0 <TIM_Base_SetConfig+0x7c>)
 8002c2e:	4290      	cmp	r0, r2
 8002c30:	d02f      	beq.n	8002c92 <TIM_Base_SetConfig+0x6e>
    /* Select the Counter Mode */
    tmpcr1 &= ~(TIM_CR1_DIR | TIM_CR1_CMS);
    tmpcr1 |= Structure->CounterMode;
  }

  if(IS_TIM_CLOCK_DIVISION_INSTANCE(TIMx))
 8002c32:	4a1a      	ldr	r2, [pc, #104]	; (8002c9c <TIM_Base_SetConfig+0x78>)
 8002c34:	4290      	cmp	r0, r2
 8002c36:	d00e      	beq.n	8002c56 <TIM_Base_SetConfig+0x32>
 8002c38:	4a19      	ldr	r2, [pc, #100]	; (8002ca0 <TIM_Base_SetConfig+0x7c>)
 8002c3a:	4290      	cmp	r0, r2
 8002c3c:	d00b      	beq.n	8002c56 <TIM_Base_SetConfig+0x32>
 8002c3e:	4a19      	ldr	r2, [pc, #100]	; (8002ca4 <TIM_Base_SetConfig+0x80>)
 8002c40:	4290      	cmp	r0, r2
 8002c42:	d008      	beq.n	8002c56 <TIM_Base_SetConfig+0x32>
 8002c44:	4a18      	ldr	r2, [pc, #96]	; (8002ca8 <TIM_Base_SetConfig+0x84>)
 8002c46:	4290      	cmp	r0, r2
 8002c48:	d005      	beq.n	8002c56 <TIM_Base_SetConfig+0x32>
 8002c4a:	4a18      	ldr	r2, [pc, #96]	; (8002cac <TIM_Base_SetConfig+0x88>)
 8002c4c:	4290      	cmp	r0, r2
 8002c4e:	d002      	beq.n	8002c56 <TIM_Base_SetConfig+0x32>
 8002c50:	4a17      	ldr	r2, [pc, #92]	; (8002cb0 <TIM_Base_SetConfig+0x8c>)
 8002c52:	4290      	cmp	r0, r2
 8002c54:	d103      	bne.n	8002c5e <TIM_Base_SetConfig+0x3a>
  {
    /* Set the clock division */
    tmpcr1 &= ~TIM_CR1_CKD;
 8002c56:	4a17      	ldr	r2, [pc, #92]	; (8002cb4 <TIM_Base_SetConfig+0x90>)
 8002c58:	4013      	ands	r3, r2
    tmpcr1 |= (uint32_t)Structure->ClockDivision;
 8002c5a:	68ca      	ldr	r2, [r1, #12]
 8002c5c:	4313      	orrs	r3, r2
  }

  /* Set the auto-reload preload */
  MODIFY_REG(tmpcr1, TIM_CR1_ARPE, Structure->AutoReloadPreload);
 8002c5e:	2280      	movs	r2, #128	; 0x80
 8002c60:	4393      	bics	r3, r2
 8002c62:	694a      	ldr	r2, [r1, #20]
 8002c64:	4313      	orrs	r3, r2

  TIMx->CR1 = tmpcr1;
 8002c66:	6003      	str	r3, [r0, #0]

  /* Set the Autoreload value */
  TIMx->ARR = (uint32_t)Structure->Period ;
 8002c68:	688b      	ldr	r3, [r1, #8]
 8002c6a:	62c3      	str	r3, [r0, #44]	; 0x2c

  /* Set the Prescaler value */
  TIMx->PSC = (uint32_t)Structure->Prescaler;
 8002c6c:	680b      	ldr	r3, [r1, #0]
 8002c6e:	6283      	str	r3, [r0, #40]	; 0x28

  if (IS_TIM_REPETITION_COUNTER_INSTANCE(TIMx))
 8002c70:	4b0a      	ldr	r3, [pc, #40]	; (8002c9c <TIM_Base_SetConfig+0x78>)
 8002c72:	4298      	cmp	r0, r3
 8002c74:	d008      	beq.n	8002c88 <TIM_Base_SetConfig+0x64>
 8002c76:	4b0c      	ldr	r3, [pc, #48]	; (8002ca8 <TIM_Base_SetConfig+0x84>)
 8002c78:	4298      	cmp	r0, r3
 8002c7a:	d005      	beq.n	8002c88 <TIM_Base_SetConfig+0x64>
 8002c7c:	4b0b      	ldr	r3, [pc, #44]	; (8002cac <TIM_Base_SetConfig+0x88>)
 8002c7e:	4298      	cmp	r0, r3
 8002c80:	d002      	beq.n	8002c88 <TIM_Base_SetConfig+0x64>
 8002c82:	4b0b      	ldr	r3, [pc, #44]	; (8002cb0 <TIM_Base_SetConfig+0x8c>)
 8002c84:	4298      	cmp	r0, r3
 8002c86:	d101      	bne.n	8002c8c <TIM_Base_SetConfig+0x68>
  {
    /* Set the Repetition Counter value */
    TIMx->RCR = Structure->RepetitionCounter;
 8002c88:	690b      	ldr	r3, [r1, #16]
 8002c8a:	6303      	str	r3, [r0, #48]	; 0x30
  }

  /* Generate an update event to reload the Prescaler 
     and the repetition counter(only for TIM1 and TIM8) value immediatly */
  TIMx->EGR = TIM_EGR_UG;
 8002c8c:	2301      	movs	r3, #1
 8002c8e:	6143      	str	r3, [r0, #20]
}
 8002c90:	4770      	bx	lr
    tmpcr1 &= ~(TIM_CR1_DIR | TIM_CR1_CMS);
 8002c92:	2270      	movs	r2, #112	; 0x70
 8002c94:	4393      	bics	r3, r2
    tmpcr1 |= Structure->CounterMode;
 8002c96:	684a      	ldr	r2, [r1, #4]
 8002c98:	4313      	orrs	r3, r2
 8002c9a:	e7ca      	b.n	8002c32 <TIM_Base_SetConfig+0xe>
 8002c9c:	40012c00 	.word	0x40012c00
 8002ca0:	40000400 	.word	0x40000400
 8002ca4:	40002000 	.word	0x40002000
 8002ca8:	40014000 	.word	0x40014000
 8002cac:	40014400 	.word	0x40014400
 8002cb0:	40014800 	.word	0x40014800
 8002cb4:	fffffcff 	.word	0xfffffcff

08002cb8 <HAL_TIM_Base_Init>:
{
 8002cb8:	b570      	push	{r4, r5, r6, lr}
 8002cba:	1e04      	subs	r4, r0, #0
  if(htim == NULL)
 8002cbc:	d014      	beq.n	8002ce8 <HAL_TIM_Base_Init+0x30>
  if(htim->State == HAL_TIM_STATE_RESET)
 8002cbe:	233d      	movs	r3, #61	; 0x3d
 8002cc0:	5cc3      	ldrb	r3, [r0, r3]
 8002cc2:	2b00      	cmp	r3, #0
 8002cc4:	d00a      	beq.n	8002cdc <HAL_TIM_Base_Init+0x24>
  htim->State= HAL_TIM_STATE_BUSY;
 8002cc6:	253d      	movs	r5, #61	; 0x3d
 8002cc8:	2302      	movs	r3, #2
 8002cca:	5563      	strb	r3, [r4, r5]
  TIM_Base_SetConfig(htim->Instance, &htim->Init);
 8002ccc:	1d21      	adds	r1, r4, #4
 8002cce:	6820      	ldr	r0, [r4, #0]
 8002cd0:	f7ff ffa8 	bl	8002c24 <TIM_Base_SetConfig>
  htim->State= HAL_TIM_STATE_READY;
 8002cd4:	2301      	movs	r3, #1
 8002cd6:	5563      	strb	r3, [r4, r5]
  return HAL_OK;
 8002cd8:	2000      	movs	r0, #0
}
 8002cda:	bd70      	pop	{r4, r5, r6, pc}
    htim->Lock = HAL_UNLOCKED;
 8002cdc:	2200      	movs	r2, #0
 8002cde:	333c      	adds	r3, #60	; 0x3c
 8002ce0:	54c2      	strb	r2, [r0, r3]
    HAL_TIM_Base_MspInit(htim);
 8002ce2:	f7ff ff91 	bl	8002c08 <HAL_TIM_Base_MspInit>
 8002ce6:	e7ee      	b.n	8002cc6 <HAL_TIM_Base_Init+0xe>
    return HAL_ERROR;
 8002ce8:	2001      	movs	r0, #1
 8002cea:	e7f6      	b.n	8002cda <HAL_TIM_Base_Init+0x22>

08002cec <TIM_CCxChannelCmd>:
  * @param  ChannelState specifies the TIM Channel CCxE bit new state.
  *          This parameter can be: TIM_CCx_ENABLE or TIM_CCx_Disable.
  * @retval None
  */
void TIM_CCxChannelCmd(TIM_TypeDef* TIMx, uint32_t Channel, uint32_t ChannelState)
{
 8002cec:	b510      	push	{r4, lr}

  /* Check the parameters */
  assert_param(IS_TIM_CC1_INSTANCE(TIMx));
  assert_param(IS_TIM_CHANNELS(Channel));

  tmp = TIM_CCER_CC1E << Channel;
 8002cee:	2401      	movs	r4, #1
 8002cf0:	408c      	lsls	r4, r1

  /* Reset the CCxE Bit */
  TIMx->CCER &= ~tmp;
 8002cf2:	6a03      	ldr	r3, [r0, #32]
 8002cf4:	43a3      	bics	r3, r4
 8002cf6:	6203      	str	r3, [r0, #32]

  /* Set or reset the CCxE Bit */
  TIMx->CCER |=  (uint32_t)(ChannelState << Channel);
 8002cf8:	6a03      	ldr	r3, [r0, #32]
 8002cfa:	408a      	lsls	r2, r1
 8002cfc:	431a      	orrs	r2, r3
 8002cfe:	6202      	str	r2, [r0, #32]
}
 8002d00:	bd10      	pop	{r4, pc}
	...

08002d04 <HAL_TIM_OC_Start>:
{
 8002d04:	b510      	push	{r4, lr}
 8002d06:	0004      	movs	r4, r0
  TIM_CCxChannelCmd(htim->Instance, Channel, TIM_CCx_ENABLE);
 8002d08:	2201      	movs	r2, #1
 8002d0a:	6800      	ldr	r0, [r0, #0]
 8002d0c:	f7ff ffee 	bl	8002cec <TIM_CCxChannelCmd>
  if(IS_TIM_BREAK_INSTANCE(htim->Instance) != RESET)
 8002d10:	6823      	ldr	r3, [r4, #0]
 8002d12:	4a11      	ldr	r2, [pc, #68]	; (8002d58 <HAL_TIM_OC_Start+0x54>)
 8002d14:	4293      	cmp	r3, r2
 8002d16:	d019      	beq.n	8002d4c <HAL_TIM_OC_Start+0x48>
 8002d18:	4a10      	ldr	r2, [pc, #64]	; (8002d5c <HAL_TIM_OC_Start+0x58>)
 8002d1a:	4293      	cmp	r3, r2
 8002d1c:	d018      	beq.n	8002d50 <HAL_TIM_OC_Start+0x4c>
 8002d1e:	4a10      	ldr	r2, [pc, #64]	; (8002d60 <HAL_TIM_OC_Start+0x5c>)
 8002d20:	4293      	cmp	r3, r2
 8002d22:	d017      	beq.n	8002d54 <HAL_TIM_OC_Start+0x50>
 8002d24:	4a0f      	ldr	r2, [pc, #60]	; (8002d64 <HAL_TIM_OC_Start+0x60>)
 8002d26:	4293      	cmp	r3, r2
 8002d28:	d00e      	beq.n	8002d48 <HAL_TIM_OC_Start+0x44>
 8002d2a:	2200      	movs	r2, #0
 8002d2c:	2a00      	cmp	r2, #0
 8002d2e:	d004      	beq.n	8002d3a <HAL_TIM_OC_Start+0x36>
    __HAL_TIM_MOE_ENABLE(htim);
 8002d30:	6c59      	ldr	r1, [r3, #68]	; 0x44
 8002d32:	2280      	movs	r2, #128	; 0x80
 8002d34:	0212      	lsls	r2, r2, #8
 8002d36:	430a      	orrs	r2, r1
 8002d38:	645a      	str	r2, [r3, #68]	; 0x44
  __HAL_TIM_ENABLE(htim);
 8002d3a:	6822      	ldr	r2, [r4, #0]
 8002d3c:	6813      	ldr	r3, [r2, #0]
 8002d3e:	2101      	movs	r1, #1
 8002d40:	430b      	orrs	r3, r1
 8002d42:	6013      	str	r3, [r2, #0]
}
 8002d44:	2000      	movs	r0, #0
 8002d46:	bd10      	pop	{r4, pc}
  if(IS_TIM_BREAK_INSTANCE(htim->Instance) != RESET)
 8002d48:	2201      	movs	r2, #1
 8002d4a:	e7ef      	b.n	8002d2c <HAL_TIM_OC_Start+0x28>
 8002d4c:	2201      	movs	r2, #1
 8002d4e:	e7ed      	b.n	8002d2c <HAL_TIM_OC_Start+0x28>
 8002d50:	2201      	movs	r2, #1
 8002d52:	e7eb      	b.n	8002d2c <HAL_TIM_OC_Start+0x28>
 8002d54:	2201      	movs	r2, #1
 8002d56:	e7e9      	b.n	8002d2c <HAL_TIM_OC_Start+0x28>
 8002d58:	40012c00 	.word	0x40012c00
 8002d5c:	40014000 	.word	0x40014000
 8002d60:	40014400 	.word	0x40014400
 8002d64:	40014800 	.word	0x40014800

08002d68 <HAL_UART_MspInit>:
  UNUSED(huart);

  /* NOTE : This function should not be modified, when the callback is needed,
            the HAL_UART_MspInit can be implemented in the user file
   */
}
 8002d68:	4770      	bx	lr
	...

08002d6c <UART_SetConfig>:
  * @brief Configure the UART peripheral.
  * @param huart UART handle.
  * @retval HAL status
  */
HAL_StatusTypeDef UART_SetConfig(UART_HandleTypeDef *huart)
{
 8002d6c:	b570      	push	{r4, r5, r6, lr}
 8002d6e:	0004      	movs	r4, r0
   *  the UART Word Length, Parity, Mode and oversampling:
   *  set the M bits according to huart->Init.WordLength value
   *  set PCE and PS bits according to huart->Init.Parity value
   *  set TE and RE bits according to huart->Init.Mode value
   *  set OVER8 bit according to huart->Init.OverSampling value */
  tmpreg = (uint32_t)huart->Init.WordLength | huart->Init.Parity | huart->Init.Mode | huart->Init.OverSampling ;
 8002d70:	6883      	ldr	r3, [r0, #8]
 8002d72:	6902      	ldr	r2, [r0, #16]
 8002d74:	4313      	orrs	r3, r2
 8002d76:	6942      	ldr	r2, [r0, #20]
 8002d78:	4313      	orrs	r3, r2
 8002d7a:	69c2      	ldr	r2, [r0, #28]
 8002d7c:	4313      	orrs	r3, r2
  MODIFY_REG(huart->Instance->CR1, UART_CR1_FIELDS, tmpreg);
 8002d7e:	6801      	ldr	r1, [r0, #0]
 8002d80:	680a      	ldr	r2, [r1, #0]
 8002d82:	4864      	ldr	r0, [pc, #400]	; (8002f14 <UART_SetConfig+0x1a8>)
 8002d84:	4002      	ands	r2, r0
 8002d86:	4313      	orrs	r3, r2
 8002d88:	600b      	str	r3, [r1, #0]

  /*-------------------------- USART CR2 Configuration -----------------------*/
  /* Configure the UART Stop Bits: Set STOP[13:12] bits according
   * to huart->Init.StopBits value */
  MODIFY_REG(huart->Instance->CR2, USART_CR2_STOP, huart->Init.StopBits);
 8002d8a:	6822      	ldr	r2, [r4, #0]
 8002d8c:	6853      	ldr	r3, [r2, #4]
 8002d8e:	4962      	ldr	r1, [pc, #392]	; (8002f18 <UART_SetConfig+0x1ac>)
 8002d90:	400b      	ands	r3, r1
 8002d92:	68e1      	ldr	r1, [r4, #12]
 8002d94:	430b      	orrs	r3, r1
 8002d96:	6053      	str	r3, [r2, #4]
  /* Configure
   * - UART HardWare Flow Control: set CTSE and RTSE bits according
   *   to huart->Init.HwFlowCtl value
   * - one-bit sampling method versus three samples' majority rule according
   *   to huart->Init.OneBitSampling */
  tmpreg = (uint32_t)huart->Init.HwFlowCtl | huart->Init.OneBitSampling ;
 8002d98:	69a3      	ldr	r3, [r4, #24]
 8002d9a:	6a22      	ldr	r2, [r4, #32]
 8002d9c:	4313      	orrs	r3, r2
  MODIFY_REG(huart->Instance->CR3, (USART_CR3_RTSE | USART_CR3_CTSE | USART_CR3_ONEBIT), tmpreg);
 8002d9e:	6821      	ldr	r1, [r4, #0]
 8002da0:	688a      	ldr	r2, [r1, #8]
 8002da2:	485e      	ldr	r0, [pc, #376]	; (8002f1c <UART_SetConfig+0x1b0>)
 8002da4:	4002      	ands	r2, r0
 8002da6:	4313      	orrs	r3, r2
 8002da8:	608b      	str	r3, [r1, #8]

  /*-------------------------- USART BRR Configuration -----------------------*/
  UART_GETCLOCKSOURCE(huart, clocksource);
 8002daa:	6825      	ldr	r5, [r4, #0]
 8002dac:	4b5c      	ldr	r3, [pc, #368]	; (8002f20 <UART_SetConfig+0x1b4>)
 8002dae:	429d      	cmp	r5, r3
 8002db0:	d026      	beq.n	8002e00 <UART_SetConfig+0x94>
 8002db2:	4b5c      	ldr	r3, [pc, #368]	; (8002f24 <UART_SetConfig+0x1b8>)
 8002db4:	429d      	cmp	r5, r3
 8002db6:	d03b      	beq.n	8002e30 <UART_SetConfig+0xc4>
 8002db8:	4b5b      	ldr	r3, [pc, #364]	; (8002f28 <UART_SetConfig+0x1bc>)
 8002dba:	429d      	cmp	r5, r3
 8002dbc:	d03a      	beq.n	8002e34 <UART_SetConfig+0xc8>
 8002dbe:	4b5b      	ldr	r3, [pc, #364]	; (8002f2c <UART_SetConfig+0x1c0>)
 8002dc0:	429d      	cmp	r5, r3
 8002dc2:	d031      	beq.n	8002e28 <UART_SetConfig+0xbc>
 8002dc4:	2310      	movs	r3, #16
  
  /* Check UART Over Sampling to set Baud Rate Register */
  if (huart->Init.OverSampling == UART_OVERSAMPLING_8)
 8002dc6:	2280      	movs	r2, #128	; 0x80
 8002dc8:	0212      	lsls	r2, r2, #8
 8002dca:	69e1      	ldr	r1, [r4, #28]
 8002dcc:	4291      	cmp	r1, r2
 8002dce:	d033      	beq.n	8002e38 <UART_SetConfig+0xcc>
    brrtemp |= (uint16_t)((usartdiv & (uint16_t)0x000FU) >> 1U);
    huart->Instance->BRR = brrtemp;
  }
  else
  {
    switch (clocksource)
 8002dd0:	2b02      	cmp	r3, #2
 8002dd2:	d100      	bne.n	8002dd6 <UART_SetConfig+0x6a>
 8002dd4:	e083      	b.n	8002ede <UART_SetConfig+0x172>
 8002dd6:	d800      	bhi.n	8002dda <UART_SetConfig+0x6e>
 8002dd8:	e073      	b.n	8002ec2 <UART_SetConfig+0x156>
 8002dda:	2b04      	cmp	r3, #4
 8002ddc:	d100      	bne.n	8002de0 <UART_SetConfig+0x74>
 8002dde:	e08a      	b.n	8002ef6 <UART_SetConfig+0x18a>
 8002de0:	2b08      	cmp	r3, #8
 8002de2:	d000      	beq.n	8002de6 <UART_SetConfig+0x7a>
 8002de4:	e093      	b.n	8002f0e <UART_SetConfig+0x1a2>
        break;
      case UART_CLOCKSOURCE_SYSCLK:
        huart->Instance->BRR = (uint16_t)(UART_DIV_SAMPLING16(HAL_RCC_GetSysClockFreq(), huart->Init.BaudRate));
        break;
      case UART_CLOCKSOURCE_LSE:
        huart->Instance->BRR = (uint16_t)(UART_DIV_SAMPLING16(LSE_VALUE, huart->Init.BaudRate));
 8002de6:	6861      	ldr	r1, [r4, #4]
 8002de8:	0848      	lsrs	r0, r1, #1
 8002dea:	2380      	movs	r3, #128	; 0x80
 8002dec:	021b      	lsls	r3, r3, #8
 8002dee:	469c      	mov	ip, r3
 8002df0:	4460      	add	r0, ip
 8002df2:	f7fd f99b 	bl	800012c <__udivsi3>
 8002df6:	0400      	lsls	r0, r0, #16
 8002df8:	0c00      	lsrs	r0, r0, #16
 8002dfa:	60e8      	str	r0, [r5, #12]
  HAL_StatusTypeDef ret               = HAL_OK;
 8002dfc:	2000      	movs	r0, #0
        break;
 8002dfe:	e045      	b.n	8002e8c <UART_SetConfig+0x120>
  UART_GETCLOCKSOURCE(huart, clocksource);
 8002e00:	4b4b      	ldr	r3, [pc, #300]	; (8002f30 <UART_SetConfig+0x1c4>)
 8002e02:	6b1a      	ldr	r2, [r3, #48]	; 0x30
 8002e04:	2303      	movs	r3, #3
 8002e06:	4013      	ands	r3, r2
 8002e08:	2b01      	cmp	r3, #1
 8002e0a:	d009      	beq.n	8002e20 <UART_SetConfig+0xb4>
 8002e0c:	2b00      	cmp	r3, #0
 8002e0e:	d005      	beq.n	8002e1c <UART_SetConfig+0xb0>
 8002e10:	2b02      	cmp	r3, #2
 8002e12:	d007      	beq.n	8002e24 <UART_SetConfig+0xb8>
 8002e14:	2b03      	cmp	r3, #3
 8002e16:	d009      	beq.n	8002e2c <UART_SetConfig+0xc0>
 8002e18:	2310      	movs	r3, #16
 8002e1a:	e7d4      	b.n	8002dc6 <UART_SetConfig+0x5a>
 8002e1c:	2300      	movs	r3, #0
 8002e1e:	e7d2      	b.n	8002dc6 <UART_SetConfig+0x5a>
 8002e20:	2304      	movs	r3, #4
 8002e22:	e7d0      	b.n	8002dc6 <UART_SetConfig+0x5a>
 8002e24:	2308      	movs	r3, #8
 8002e26:	e7ce      	b.n	8002dc6 <UART_SetConfig+0x5a>
 8002e28:	2300      	movs	r3, #0
 8002e2a:	e7cc      	b.n	8002dc6 <UART_SetConfig+0x5a>
 8002e2c:	2302      	movs	r3, #2
 8002e2e:	e7ca      	b.n	8002dc6 <UART_SetConfig+0x5a>
 8002e30:	2300      	movs	r3, #0
 8002e32:	e7c8      	b.n	8002dc6 <UART_SetConfig+0x5a>
 8002e34:	2300      	movs	r3, #0
 8002e36:	e7c6      	b.n	8002dc6 <UART_SetConfig+0x5a>
    switch (clocksource)
 8002e38:	2b02      	cmp	r3, #2
 8002e3a:	d028      	beq.n	8002e8e <UART_SetConfig+0x122>
 8002e3c:	d90f      	bls.n	8002e5e <UART_SetConfig+0xf2>
 8002e3e:	2b04      	cmp	r3, #4
 8002e40:	d030      	beq.n	8002ea4 <UART_SetConfig+0x138>
 8002e42:	2b08      	cmp	r3, #8
 8002e44:	d13a      	bne.n	8002ebc <UART_SetConfig+0x150>
        usartdiv = (uint16_t)(UART_DIV_SAMPLING8(LSE_VALUE, huart->Init.BaudRate));
 8002e46:	6863      	ldr	r3, [r4, #4]
 8002e48:	0858      	lsrs	r0, r3, #1
 8002e4a:	2380      	movs	r3, #128	; 0x80
 8002e4c:	025b      	lsls	r3, r3, #9
 8002e4e:	469c      	mov	ip, r3
 8002e50:	4460      	add	r0, ip
 8002e52:	6861      	ldr	r1, [r4, #4]
 8002e54:	f7fd f96a 	bl	800012c <__udivsi3>
 8002e58:	b283      	uxth	r3, r0
  HAL_StatusTypeDef ret               = HAL_OK;
 8002e5a:	2000      	movs	r0, #0
        break;
 8002e5c:	e00c      	b.n	8002e78 <UART_SetConfig+0x10c>
    switch (clocksource)
 8002e5e:	2b00      	cmp	r3, #0
 8002e60:	d12c      	bne.n	8002ebc <UART_SetConfig+0x150>
        usartdiv = (uint16_t)(UART_DIV_SAMPLING8(HAL_RCC_GetPCLK1Freq(), huart->Init.BaudRate));
 8002e62:	f7ff fec1 	bl	8002be8 <HAL_RCC_GetPCLK1Freq>
 8002e66:	0040      	lsls	r0, r0, #1
 8002e68:	6863      	ldr	r3, [r4, #4]
 8002e6a:	085b      	lsrs	r3, r3, #1
 8002e6c:	18c0      	adds	r0, r0, r3
 8002e6e:	6861      	ldr	r1, [r4, #4]
 8002e70:	f7fd f95c 	bl	800012c <__udivsi3>
 8002e74:	b283      	uxth	r3, r0
  HAL_StatusTypeDef ret               = HAL_OK;
 8002e76:	2000      	movs	r0, #0
    brrtemp = usartdiv & 0xFFF0U;
 8002e78:	220f      	movs	r2, #15
 8002e7a:	0019      	movs	r1, r3
 8002e7c:	4391      	bics	r1, r2
 8002e7e:	000a      	movs	r2, r1
    brrtemp |= (uint16_t)((usartdiv & (uint16_t)0x000FU) >> 1U);
 8002e80:	105b      	asrs	r3, r3, #1
 8002e82:	2107      	movs	r1, #7
 8002e84:	400b      	ands	r3, r1
 8002e86:	4313      	orrs	r3, r2
    huart->Instance->BRR = brrtemp;
 8002e88:	6822      	ldr	r2, [r4, #0]
 8002e8a:	60d3      	str	r3, [r2, #12]
    }
  }

  return ret;

}
 8002e8c:	bd70      	pop	{r4, r5, r6, pc}
        usartdiv = (uint16_t)(UART_DIV_SAMPLING8(HSI_VALUE, huart->Init.BaudRate));
 8002e8e:	6863      	ldr	r3, [r4, #4]
 8002e90:	0858      	lsrs	r0, r3, #1
 8002e92:	4b28      	ldr	r3, [pc, #160]	; (8002f34 <UART_SetConfig+0x1c8>)
 8002e94:	469c      	mov	ip, r3
 8002e96:	4460      	add	r0, ip
 8002e98:	6861      	ldr	r1, [r4, #4]
 8002e9a:	f7fd f947 	bl	800012c <__udivsi3>
 8002e9e:	b283      	uxth	r3, r0
  HAL_StatusTypeDef ret               = HAL_OK;
 8002ea0:	2000      	movs	r0, #0
        break;
 8002ea2:	e7e9      	b.n	8002e78 <UART_SetConfig+0x10c>
        usartdiv = (uint16_t)(UART_DIV_SAMPLING8(HAL_RCC_GetSysClockFreq(), huart->Init.BaudRate));
 8002ea4:	f7ff fdb6 	bl	8002a14 <HAL_RCC_GetSysClockFreq>
 8002ea8:	0040      	lsls	r0, r0, #1
 8002eaa:	6863      	ldr	r3, [r4, #4]
 8002eac:	085b      	lsrs	r3, r3, #1
 8002eae:	18c0      	adds	r0, r0, r3
 8002eb0:	6861      	ldr	r1, [r4, #4]
 8002eb2:	f7fd f93b 	bl	800012c <__udivsi3>
 8002eb6:	b283      	uxth	r3, r0
  HAL_StatusTypeDef ret               = HAL_OK;
 8002eb8:	2000      	movs	r0, #0
        break;
 8002eba:	e7dd      	b.n	8002e78 <UART_SetConfig+0x10c>
        ret = HAL_ERROR;
 8002ebc:	2001      	movs	r0, #1
  uint16_t usartdiv                   = 0x0000U;
 8002ebe:	2300      	movs	r3, #0
 8002ec0:	e7da      	b.n	8002e78 <UART_SetConfig+0x10c>
    switch (clocksource)
 8002ec2:	2b00      	cmp	r3, #0
 8002ec4:	d123      	bne.n	8002f0e <UART_SetConfig+0x1a2>
        huart->Instance->BRR = (uint16_t)(UART_DIV_SAMPLING16(HAL_RCC_GetPCLK1Freq(), huart->Init.BaudRate));
 8002ec6:	f7ff fe8f 	bl	8002be8 <HAL_RCC_GetPCLK1Freq>
 8002eca:	6861      	ldr	r1, [r4, #4]
 8002ecc:	084b      	lsrs	r3, r1, #1
 8002ece:	18c0      	adds	r0, r0, r3
 8002ed0:	f7fd f92c 	bl	800012c <__udivsi3>
 8002ed4:	0400      	lsls	r0, r0, #16
 8002ed6:	0c00      	lsrs	r0, r0, #16
 8002ed8:	60e8      	str	r0, [r5, #12]
  HAL_StatusTypeDef ret               = HAL_OK;
 8002eda:	2000      	movs	r0, #0
        break;
 8002edc:	e7d6      	b.n	8002e8c <UART_SetConfig+0x120>
        huart->Instance->BRR = (uint16_t)(UART_DIV_SAMPLING16(HSI_VALUE, huart->Init.BaudRate));
 8002ede:	6861      	ldr	r1, [r4, #4]
 8002ee0:	0848      	lsrs	r0, r1, #1
 8002ee2:	4b15      	ldr	r3, [pc, #84]	; (8002f38 <UART_SetConfig+0x1cc>)
 8002ee4:	469c      	mov	ip, r3
 8002ee6:	4460      	add	r0, ip
 8002ee8:	f7fd f920 	bl	800012c <__udivsi3>
 8002eec:	0400      	lsls	r0, r0, #16
 8002eee:	0c00      	lsrs	r0, r0, #16
 8002ef0:	60e8      	str	r0, [r5, #12]
  HAL_StatusTypeDef ret               = HAL_OK;
 8002ef2:	2000      	movs	r0, #0
        break;
 8002ef4:	e7ca      	b.n	8002e8c <UART_SetConfig+0x120>
        huart->Instance->BRR = (uint16_t)(UART_DIV_SAMPLING16(HAL_RCC_GetSysClockFreq(), huart->Init.BaudRate));
 8002ef6:	f7ff fd8d 	bl	8002a14 <HAL_RCC_GetSysClockFreq>
 8002efa:	6861      	ldr	r1, [r4, #4]
 8002efc:	084b      	lsrs	r3, r1, #1
 8002efe:	18c0      	adds	r0, r0, r3
 8002f00:	f7fd f914 	bl	800012c <__udivsi3>
 8002f04:	0400      	lsls	r0, r0, #16
 8002f06:	0c00      	lsrs	r0, r0, #16
 8002f08:	60e8      	str	r0, [r5, #12]
  HAL_StatusTypeDef ret               = HAL_OK;
 8002f0a:	2000      	movs	r0, #0
        break;
 8002f0c:	e7be      	b.n	8002e8c <UART_SetConfig+0x120>
        ret = HAL_ERROR;
 8002f0e:	2001      	movs	r0, #1
 8002f10:	e7bc      	b.n	8002e8c <UART_SetConfig+0x120>
 8002f12:	46c0      	nop			; (mov r8, r8)
 8002f14:	efff69f3 	.word	0xefff69f3
 8002f18:	ffffcfff 	.word	0xffffcfff
 8002f1c:	fffff4ff 	.word	0xfffff4ff
 8002f20:	40013800 	.word	0x40013800
 8002f24:	40004400 	.word	0x40004400
 8002f28:	40004800 	.word	0x40004800
 8002f2c:	40004c00 	.word	0x40004c00
 8002f30:	40021000 	.word	0x40021000
 8002f34:	00f42400 	.word	0x00f42400
 8002f38:	007a1200 	.word	0x007a1200

08002f3c <UART_AdvFeatureConfig>:
{
  /* Check whether the set of advanced features to configure is properly set */
  assert_param(IS_UART_ADVFEATURE_INIT(huart->AdvancedInit.AdvFeatureInit));

  /* if required, configure TX pin active level inversion */
  if(HAL_IS_BIT_SET(huart->AdvancedInit.AdvFeatureInit, UART_ADVFEATURE_TXINVERT_INIT))
 8002f3c:	6a43      	ldr	r3, [r0, #36]	; 0x24
 8002f3e:	07db      	lsls	r3, r3, #31
 8002f40:	d506      	bpl.n	8002f50 <UART_AdvFeatureConfig+0x14>
  {
    assert_param(IS_UART_ADVFEATURE_TXINV(huart->AdvancedInit.TxPinLevelInvert));
    MODIFY_REG(huart->Instance->CR2, USART_CR2_TXINV, huart->AdvancedInit.TxPinLevelInvert);
 8002f42:	6802      	ldr	r2, [r0, #0]
 8002f44:	6853      	ldr	r3, [r2, #4]
 8002f46:	492c      	ldr	r1, [pc, #176]	; (8002ff8 <UART_AdvFeatureConfig+0xbc>)
 8002f48:	400b      	ands	r3, r1
 8002f4a:	6a81      	ldr	r1, [r0, #40]	; 0x28
 8002f4c:	430b      	orrs	r3, r1
 8002f4e:	6053      	str	r3, [r2, #4]
  }

  /* if required, configure RX pin active level inversion */
  if(HAL_IS_BIT_SET(huart->AdvancedInit.AdvFeatureInit, UART_ADVFEATURE_RXINVERT_INIT))
 8002f50:	6a43      	ldr	r3, [r0, #36]	; 0x24
 8002f52:	079b      	lsls	r3, r3, #30
 8002f54:	d506      	bpl.n	8002f64 <UART_AdvFeatureConfig+0x28>
  {
    assert_param(IS_UART_ADVFEATURE_RXINV(huart->AdvancedInit.RxPinLevelInvert));
    MODIFY_REG(huart->Instance->CR2, USART_CR2_RXINV, huart->AdvancedInit.RxPinLevelInvert);
 8002f56:	6802      	ldr	r2, [r0, #0]
 8002f58:	6853      	ldr	r3, [r2, #4]
 8002f5a:	4928      	ldr	r1, [pc, #160]	; (8002ffc <UART_AdvFeatureConfig+0xc0>)
 8002f5c:	400b      	ands	r3, r1
 8002f5e:	6ac1      	ldr	r1, [r0, #44]	; 0x2c
 8002f60:	430b      	orrs	r3, r1
 8002f62:	6053      	str	r3, [r2, #4]
  }

  /* if required, configure data inversion */
  if(HAL_IS_BIT_SET(huart->AdvancedInit.AdvFeatureInit, UART_ADVFEATURE_DATAINVERT_INIT))
 8002f64:	6a43      	ldr	r3, [r0, #36]	; 0x24
 8002f66:	075b      	lsls	r3, r3, #29
 8002f68:	d506      	bpl.n	8002f78 <UART_AdvFeatureConfig+0x3c>
  {
    assert_param(IS_UART_ADVFEATURE_DATAINV(huart->AdvancedInit.DataInvert));
    MODIFY_REG(huart->Instance->CR2, USART_CR2_DATAINV, huart->AdvancedInit.DataInvert);
 8002f6a:	6802      	ldr	r2, [r0, #0]
 8002f6c:	6853      	ldr	r3, [r2, #4]
 8002f6e:	4924      	ldr	r1, [pc, #144]	; (8003000 <UART_AdvFeatureConfig+0xc4>)
 8002f70:	400b      	ands	r3, r1
 8002f72:	6b01      	ldr	r1, [r0, #48]	; 0x30
 8002f74:	430b      	orrs	r3, r1
 8002f76:	6053      	str	r3, [r2, #4]
  }

  /* if required, configure RX/TX pins swap */
  if(HAL_IS_BIT_SET(huart->AdvancedInit.AdvFeatureInit, UART_ADVFEATURE_SWAP_INIT))
 8002f78:	6a43      	ldr	r3, [r0, #36]	; 0x24
 8002f7a:	071b      	lsls	r3, r3, #28
 8002f7c:	d506      	bpl.n	8002f8c <UART_AdvFeatureConfig+0x50>
  {
    assert_param(IS_UART_ADVFEATURE_SWAP(huart->AdvancedInit.Swap));
    MODIFY_REG(huart->Instance->CR2, USART_CR2_SWAP, huart->AdvancedInit.Swap);
 8002f7e:	6802      	ldr	r2, [r0, #0]
 8002f80:	6853      	ldr	r3, [r2, #4]
 8002f82:	4920      	ldr	r1, [pc, #128]	; (8003004 <UART_AdvFeatureConfig+0xc8>)
 8002f84:	400b      	ands	r3, r1
 8002f86:	6b41      	ldr	r1, [r0, #52]	; 0x34
 8002f88:	430b      	orrs	r3, r1
 8002f8a:	6053      	str	r3, [r2, #4]
  }

  /* if required, configure RX overrun detection disabling */
  if(HAL_IS_BIT_SET(huart->AdvancedInit.AdvFeatureInit, UART_ADVFEATURE_RXOVERRUNDISABLE_INIT))
 8002f8c:	6a43      	ldr	r3, [r0, #36]	; 0x24
 8002f8e:	06db      	lsls	r3, r3, #27
 8002f90:	d506      	bpl.n	8002fa0 <UART_AdvFeatureConfig+0x64>
  {
    assert_param(IS_UART_OVERRUN(huart->AdvancedInit.OverrunDisable));
    MODIFY_REG(huart->Instance->CR3, USART_CR3_OVRDIS, huart->AdvancedInit.OverrunDisable);
 8002f92:	6802      	ldr	r2, [r0, #0]
 8002f94:	6893      	ldr	r3, [r2, #8]
 8002f96:	491c      	ldr	r1, [pc, #112]	; (8003008 <UART_AdvFeatureConfig+0xcc>)
 8002f98:	400b      	ands	r3, r1
 8002f9a:	6b81      	ldr	r1, [r0, #56]	; 0x38
 8002f9c:	430b      	orrs	r3, r1
 8002f9e:	6093      	str	r3, [r2, #8]
  }

  /* if required, configure DMA disabling on reception error */
  if(HAL_IS_BIT_SET(huart->AdvancedInit.AdvFeatureInit, UART_ADVFEATURE_DMADISABLEONERROR_INIT))
 8002fa0:	6a43      	ldr	r3, [r0, #36]	; 0x24
 8002fa2:	069b      	lsls	r3, r3, #26
 8002fa4:	d506      	bpl.n	8002fb4 <UART_AdvFeatureConfig+0x78>
  {
    assert_param(IS_UART_ADVFEATURE_DMAONRXERROR(huart->AdvancedInit.DMADisableonRxError));
    MODIFY_REG(huart->Instance->CR3, USART_CR3_DDRE, huart->AdvancedInit.DMADisableonRxError);
 8002fa6:	6802      	ldr	r2, [r0, #0]
 8002fa8:	6893      	ldr	r3, [r2, #8]
 8002faa:	4918      	ldr	r1, [pc, #96]	; (800300c <UART_AdvFeatureConfig+0xd0>)
 8002fac:	400b      	ands	r3, r1
 8002fae:	6bc1      	ldr	r1, [r0, #60]	; 0x3c
 8002fb0:	430b      	orrs	r3, r1
 8002fb2:	6093      	str	r3, [r2, #8]
  }

  /* if required, configure auto Baud rate detection scheme */
  if(HAL_IS_BIT_SET(huart->AdvancedInit.AdvFeatureInit, UART_ADVFEATURE_AUTOBAUDRATE_INIT))
 8002fb4:	6a43      	ldr	r3, [r0, #36]	; 0x24
 8002fb6:	065b      	lsls	r3, r3, #25
 8002fb8:	d50b      	bpl.n	8002fd2 <UART_AdvFeatureConfig+0x96>
  {
    assert_param(IS_USART_AUTOBAUDRATE_DETECTION_INSTANCE(huart->Instance));
    assert_param(IS_UART_ADVFEATURE_AUTOBAUDRATE(huart->AdvancedInit.AutoBaudRateEnable));
    MODIFY_REG(huart->Instance->CR2, USART_CR2_ABREN, huart->AdvancedInit.AutoBaudRateEnable);
 8002fba:	6802      	ldr	r2, [r0, #0]
 8002fbc:	6853      	ldr	r3, [r2, #4]
 8002fbe:	4914      	ldr	r1, [pc, #80]	; (8003010 <UART_AdvFeatureConfig+0xd4>)
 8002fc0:	400b      	ands	r3, r1
 8002fc2:	6c01      	ldr	r1, [r0, #64]	; 0x40
 8002fc4:	430b      	orrs	r3, r1
 8002fc6:	6053      	str	r3, [r2, #4]
    /* set auto Baudrate detection parameters if detection is enabled */
    if(huart->AdvancedInit.AutoBaudRateEnable == UART_ADVFEATURE_AUTOBAUDRATE_ENABLE)
 8002fc8:	2380      	movs	r3, #128	; 0x80
 8002fca:	035b      	lsls	r3, r3, #13
 8002fcc:	6c02      	ldr	r2, [r0, #64]	; 0x40
 8002fce:	429a      	cmp	r2, r3
 8002fd0:	d00a      	beq.n	8002fe8 <UART_AdvFeatureConfig+0xac>
      MODIFY_REG(huart->Instance->CR2, USART_CR2_ABRMODE, huart->AdvancedInit.AutoBaudRateMode);
    }
  }

  /* if required, configure MSB first on communication line */
  if(HAL_IS_BIT_SET(huart->AdvancedInit.AdvFeatureInit, UART_ADVFEATURE_MSBFIRST_INIT))
 8002fd2:	6a43      	ldr	r3, [r0, #36]	; 0x24
 8002fd4:	061b      	lsls	r3, r3, #24
 8002fd6:	d506      	bpl.n	8002fe6 <UART_AdvFeatureConfig+0xaa>
  {
    assert_param(IS_UART_ADVFEATURE_MSBFIRST(huart->AdvancedInit.MSBFirst));
    MODIFY_REG(huart->Instance->CR2, USART_CR2_MSBFIRST, huart->AdvancedInit.MSBFirst);
 8002fd8:	6802      	ldr	r2, [r0, #0]
 8002fda:	6853      	ldr	r3, [r2, #4]
 8002fdc:	490d      	ldr	r1, [pc, #52]	; (8003014 <UART_AdvFeatureConfig+0xd8>)
 8002fde:	400b      	ands	r3, r1
 8002fe0:	6c81      	ldr	r1, [r0, #72]	; 0x48
 8002fe2:	430b      	orrs	r3, r1
 8002fe4:	6053      	str	r3, [r2, #4]
  }
}
 8002fe6:	4770      	bx	lr
      MODIFY_REG(huart->Instance->CR2, USART_CR2_ABRMODE, huart->AdvancedInit.AutoBaudRateMode);
 8002fe8:	6802      	ldr	r2, [r0, #0]
 8002fea:	6853      	ldr	r3, [r2, #4]
 8002fec:	490a      	ldr	r1, [pc, #40]	; (8003018 <UART_AdvFeatureConfig+0xdc>)
 8002fee:	400b      	ands	r3, r1
 8002ff0:	6c41      	ldr	r1, [r0, #68]	; 0x44
 8002ff2:	430b      	orrs	r3, r1
 8002ff4:	6053      	str	r3, [r2, #4]
 8002ff6:	e7ec      	b.n	8002fd2 <UART_AdvFeatureConfig+0x96>
 8002ff8:	fffdffff 	.word	0xfffdffff
 8002ffc:	fffeffff 	.word	0xfffeffff
 8003000:	fffbffff 	.word	0xfffbffff
 8003004:	ffff7fff 	.word	0xffff7fff
 8003008:	ffffefff 	.word	0xffffefff
 800300c:	ffffdfff 	.word	0xffffdfff
 8003010:	ffefffff 	.word	0xffefffff
 8003014:	fff7ffff 	.word	0xfff7ffff
 8003018:	ff9fffff 	.word	0xff9fffff

0800301c <UART_CheckIdleState>:
#if !defined(STM32F030x6) && !defined(STM32F030x8)&& !defined(STM32F070xB)&& !defined(STM32F070x6)&& !defined(STM32F030xC)
  uint32_t tickstart = 0U;
#endif /* !defined(STM32F030x6) && !defined(STM32F030x8)&& !defined(STM32F070xB)&& !defined(STM32F070x6)&& !defined(STM32F030xC) */

  /* Initialize the UART ErrorCode */
  huart->ErrorCode = HAL_UART_ERROR_NONE;
 800301c:	2300      	movs	r3, #0
 800301e:	66c3      	str	r3, [r0, #108]	; 0x6c
    }
  }
#endif /* !defined(STM32F030x6) && !defined(STM32F030x8)&& !defined(STM32F070xB)&& !defined(STM32F070x6)&& !defined(STM32F030xC) */

  /* Initialize the UART State */
  huart->gState  = HAL_UART_STATE_READY;
 8003020:	2220      	movs	r2, #32
 8003022:	2169      	movs	r1, #105	; 0x69
 8003024:	5442      	strb	r2, [r0, r1]
  huart->RxState = HAL_UART_STATE_READY;
 8003026:	3101      	adds	r1, #1
 8003028:	5442      	strb	r2, [r0, r1]

  /* Process Unlocked */
  __HAL_UNLOCK(huart);
 800302a:	3248      	adds	r2, #72	; 0x48
 800302c:	5483      	strb	r3, [r0, r2]

  return HAL_OK;
}
 800302e:	2000      	movs	r0, #0
 8003030:	4770      	bx	lr
	...

08003034 <HAL_UART_Init>:
{
 8003034:	b510      	push	{r4, lr}
 8003036:	1e04      	subs	r4, r0, #0
  if(huart == NULL)
 8003038:	d030      	beq.n	800309c <HAL_UART_Init+0x68>
  if(huart->gState == HAL_UART_STATE_RESET)
 800303a:	2369      	movs	r3, #105	; 0x69
 800303c:	5cc3      	ldrb	r3, [r0, r3]
 800303e:	2b00      	cmp	r3, #0
 8003040:	d022      	beq.n	8003088 <HAL_UART_Init+0x54>
  huart->gState = HAL_UART_STATE_BUSY;
 8003042:	2224      	movs	r2, #36	; 0x24
 8003044:	2369      	movs	r3, #105	; 0x69
 8003046:	54e2      	strb	r2, [r4, r3]
  __HAL_UART_DISABLE(huart);
 8003048:	6822      	ldr	r2, [r4, #0]
 800304a:	6813      	ldr	r3, [r2, #0]
 800304c:	2101      	movs	r1, #1
 800304e:	438b      	bics	r3, r1
 8003050:	6013      	str	r3, [r2, #0]
  if (UART_SetConfig(huart) == HAL_ERROR)
 8003052:	0020      	movs	r0, r4
 8003054:	f7ff fe8a 	bl	8002d6c <UART_SetConfig>
 8003058:	2801      	cmp	r0, #1
 800305a:	d014      	beq.n	8003086 <HAL_UART_Init+0x52>
  if (huart->AdvancedInit.AdvFeatureInit != UART_ADVFEATURE_NO_INIT)
 800305c:	6a63      	ldr	r3, [r4, #36]	; 0x24
 800305e:	2b00      	cmp	r3, #0
 8003060:	d118      	bne.n	8003094 <HAL_UART_Init+0x60>
  CLEAR_BIT(huart->Instance->CR2, USART_CR2_CLKEN);
 8003062:	6822      	ldr	r2, [r4, #0]
 8003064:	6853      	ldr	r3, [r2, #4]
 8003066:	490e      	ldr	r1, [pc, #56]	; (80030a0 <HAL_UART_Init+0x6c>)
 8003068:	400b      	ands	r3, r1
 800306a:	6053      	str	r3, [r2, #4]
  CLEAR_BIT(huart->Instance->CR3, USART_CR3_HDSEL);
 800306c:	6822      	ldr	r2, [r4, #0]
 800306e:	6893      	ldr	r3, [r2, #8]
 8003070:	2108      	movs	r1, #8
 8003072:	438b      	bics	r3, r1
 8003074:	6093      	str	r3, [r2, #8]
  __HAL_UART_ENABLE(huart);
 8003076:	6822      	ldr	r2, [r4, #0]
 8003078:	6813      	ldr	r3, [r2, #0]
 800307a:	3907      	subs	r1, #7
 800307c:	430b      	orrs	r3, r1
 800307e:	6013      	str	r3, [r2, #0]
  return (UART_CheckIdleState(huart));
 8003080:	0020      	movs	r0, r4
 8003082:	f7ff ffcb 	bl	800301c <UART_CheckIdleState>
}
 8003086:	bd10      	pop	{r4, pc}
    huart->Lock = HAL_UNLOCKED;
 8003088:	2200      	movs	r2, #0
 800308a:	3368      	adds	r3, #104	; 0x68
 800308c:	54c2      	strb	r2, [r0, r3]
    HAL_UART_MspInit(huart);
 800308e:	f7ff fe6b 	bl	8002d68 <HAL_UART_MspInit>
 8003092:	e7d6      	b.n	8003042 <HAL_UART_Init+0xe>
    UART_AdvFeatureConfig(huart);
 8003094:	0020      	movs	r0, r4
 8003096:	f7ff ff51 	bl	8002f3c <UART_AdvFeatureConfig>
 800309a:	e7e2      	b.n	8003062 <HAL_UART_Init+0x2e>
    return HAL_ERROR;
 800309c:	2001      	movs	r0, #1
 800309e:	e7f2      	b.n	8003086 <HAL_UART_Init+0x52>
 80030a0:	fffff7ff 	.word	0xfffff7ff

080030a4 <SystemCoreClockUpdate>:
  *
  * @param  None
  * @retval None
  */
void SystemCoreClockUpdate (void)
{
 80030a4:	b510      	push	{r4, lr}
  uint32_t tmp = 0, pllmull = 0, pllsource = 0, predivfactor = 0;

  /* Get SYSCLK source -------------------------------------------------------*/
  tmp = RCC->CFGR & RCC_CFGR_SWS;
 80030a6:	4b20      	ldr	r3, [pc, #128]	; (8003128 <SystemCoreClockUpdate+0x84>)
 80030a8:	685a      	ldr	r2, [r3, #4]
 80030aa:	230c      	movs	r3, #12
 80030ac:	4013      	ands	r3, r2

  switch (tmp)
 80030ae:	2b04      	cmp	r3, #4
 80030b0:	d016      	beq.n	80030e0 <SystemCoreClockUpdate+0x3c>
 80030b2:	2b08      	cmp	r3, #8
 80030b4:	d018      	beq.n	80030e8 <SystemCoreClockUpdate+0x44>
 80030b6:	2b00      	cmp	r3, #0
 80030b8:	d003      	beq.n	80030c2 <SystemCoreClockUpdate+0x1e>
          STM32F071xB || STM32F072xB || STM32F078xx || STM32F070xB ||
          STM32F091xC || STM32F098xx || STM32F030xC */
      }
      break;
    default: /* HSI used as system clock */
      SystemCoreClock = HSI_VALUE;
 80030ba:	4a1c      	ldr	r2, [pc, #112]	; (800312c <SystemCoreClockUpdate+0x88>)
 80030bc:	4b1c      	ldr	r3, [pc, #112]	; (8003130 <SystemCoreClockUpdate+0x8c>)
 80030be:	601a      	str	r2, [r3, #0]
      break;
 80030c0:	e002      	b.n	80030c8 <SystemCoreClockUpdate+0x24>
      SystemCoreClock = HSI_VALUE;
 80030c2:	4a1a      	ldr	r2, [pc, #104]	; (800312c <SystemCoreClockUpdate+0x88>)
 80030c4:	4b1a      	ldr	r3, [pc, #104]	; (8003130 <SystemCoreClockUpdate+0x8c>)
 80030c6:	601a      	str	r2, [r3, #0]
  }
  /* Compute HCLK clock frequency ----------------*/
  /* Get HCLK prescaler */
  tmp = AHBPrescTable[((RCC->CFGR & RCC_CFGR_HPRE) >> 4)];
 80030c8:	4b17      	ldr	r3, [pc, #92]	; (8003128 <SystemCoreClockUpdate+0x84>)
 80030ca:	685a      	ldr	r2, [r3, #4]
 80030cc:	0912      	lsrs	r2, r2, #4
 80030ce:	230f      	movs	r3, #15
 80030d0:	4013      	ands	r3, r2
 80030d2:	4a18      	ldr	r2, [pc, #96]	; (8003134 <SystemCoreClockUpdate+0x90>)
 80030d4:	5cd3      	ldrb	r3, [r2, r3]
  /* HCLK clock frequency */
  SystemCoreClock >>= tmp;
 80030d6:	4a16      	ldr	r2, [pc, #88]	; (8003130 <SystemCoreClockUpdate+0x8c>)
 80030d8:	6811      	ldr	r1, [r2, #0]
 80030da:	40d9      	lsrs	r1, r3
 80030dc:	6011      	str	r1, [r2, #0]
}
 80030de:	bd10      	pop	{r4, pc}
      SystemCoreClock = HSE_VALUE;
 80030e0:	4a12      	ldr	r2, [pc, #72]	; (800312c <SystemCoreClockUpdate+0x88>)
 80030e2:	4b13      	ldr	r3, [pc, #76]	; (8003130 <SystemCoreClockUpdate+0x8c>)
 80030e4:	601a      	str	r2, [r3, #0]
      break;
 80030e6:	e7ef      	b.n	80030c8 <SystemCoreClockUpdate+0x24>
      pllmull = RCC->CFGR & RCC_CFGR_PLLMUL;
 80030e8:	4a0f      	ldr	r2, [pc, #60]	; (8003128 <SystemCoreClockUpdate+0x84>)
 80030ea:	6854      	ldr	r4, [r2, #4]
      pllsource = RCC->CFGR & RCC_CFGR_PLLSRC;
 80030ec:	6853      	ldr	r3, [r2, #4]
 80030ee:	21c0      	movs	r1, #192	; 0xc0
 80030f0:	0249      	lsls	r1, r1, #9
 80030f2:	400b      	ands	r3, r1
      pllmull = ( pllmull >> 18) + 2;
 80030f4:	0ca4      	lsrs	r4, r4, #18
 80030f6:	210f      	movs	r1, #15
 80030f8:	400c      	ands	r4, r1
 80030fa:	3402      	adds	r4, #2
      predivfactor = (RCC->CFGR2 & RCC_CFGR2_PREDIV) + 1;
 80030fc:	6ad2      	ldr	r2, [r2, #44]	; 0x2c
 80030fe:	4011      	ands	r1, r2
 8003100:	3101      	adds	r1, #1
      if (pllsource == RCC_CFGR_PLLSRC_HSE_PREDIV)
 8003102:	2280      	movs	r2, #128	; 0x80
 8003104:	0252      	lsls	r2, r2, #9
 8003106:	4293      	cmp	r3, r2
 8003108:	d006      	beq.n	8003118 <SystemCoreClockUpdate+0x74>
        SystemCoreClock = (HSI_VALUE/predivfactor) * pllmull;
 800310a:	4808      	ldr	r0, [pc, #32]	; (800312c <SystemCoreClockUpdate+0x88>)
 800310c:	f7fd f80e 	bl	800012c <__udivsi3>
 8003110:	4344      	muls	r4, r0
 8003112:	4b07      	ldr	r3, [pc, #28]	; (8003130 <SystemCoreClockUpdate+0x8c>)
 8003114:	601c      	str	r4, [r3, #0]
 8003116:	e7d7      	b.n	80030c8 <SystemCoreClockUpdate+0x24>
        SystemCoreClock = (HSE_VALUE/predivfactor) * pllmull;
 8003118:	4804      	ldr	r0, [pc, #16]	; (800312c <SystemCoreClockUpdate+0x88>)
 800311a:	f7fd f807 	bl	800012c <__udivsi3>
 800311e:	4344      	muls	r4, r0
 8003120:	4b03      	ldr	r3, [pc, #12]	; (8003130 <SystemCoreClockUpdate+0x8c>)
 8003122:	601c      	str	r4, [r3, #0]
 8003124:	e7d0      	b.n	80030c8 <SystemCoreClockUpdate+0x24>
 8003126:	46c0      	nop			; (mov r8, r8)
 8003128:	40021000 	.word	0x40021000
 800312c:	007a1200 	.word	0x007a1200
 8003130:	200001cc 	.word	0x200001cc
 8003134:	080059d4 	.word	0x080059d4

08003138 <uart_irq>:
/******************************************************************************
 * INTERRUPTS HANDLING
 ******************************************************************************/

static void uart_irq(UARTName uart_name)
{
 8003138:	b510      	push	{r4, lr}
    int8_t id = get_uart_index(uart_name);
 800313a:	f000 fb41 	bl	80037c0 <get_uart_index>
 800313e:	1e04      	subs	r4, r0, #0

    if (id >= 0) {
 8003140:	db27      	blt.n	8003192 <uart_irq+0x5a>
        UART_HandleTypeDef *huart = &uart_handlers[id];
        if (serial_irq_ids[id] != 0) {
 8003142:	0083      	lsls	r3, r0, #2
 8003144:	4a1a      	ldr	r2, [pc, #104]	; (80031b0 <uart_irq+0x78>)
 8003146:	5898      	ldr	r0, [r3, r2]
 8003148:	2800      	cmp	r0, #0
 800314a:	d022      	beq.n	8003192 <uart_irq+0x5a>
            if (__HAL_UART_GET_FLAG(huart, UART_FLAG_TXE) != RESET) {
 800314c:	00e3      	lsls	r3, r4, #3
 800314e:	1b1b      	subs	r3, r3, r4
 8003150:	011a      	lsls	r2, r3, #4
 8003152:	4b18      	ldr	r3, [pc, #96]	; (80031b4 <uart_irq+0x7c>)
 8003154:	58d3      	ldr	r3, [r2, r3]
 8003156:	69da      	ldr	r2, [r3, #28]
 8003158:	0612      	lsls	r2, r2, #24
 800315a:	d502      	bpl.n	8003162 <uart_irq+0x2a>
                if (__HAL_UART_GET_IT(huart, UART_IT_TXE) != RESET) {
 800315c:	69db      	ldr	r3, [r3, #28]
 800315e:	061b      	lsls	r3, r3, #24
 8003160:	d418      	bmi.n	8003194 <uart_irq+0x5c>
                    irq_handler(serial_irq_ids[id], TxIrq);
                }
            }
            if (__HAL_UART_GET_FLAG(huart, UART_FLAG_RXNE) != RESET) {
 8003162:	00e3      	lsls	r3, r4, #3
 8003164:	1b1b      	subs	r3, r3, r4
 8003166:	011a      	lsls	r2, r3, #4
 8003168:	4b12      	ldr	r3, [pc, #72]	; (80031b4 <uart_irq+0x7c>)
 800316a:	58d3      	ldr	r3, [r2, r3]
 800316c:	69da      	ldr	r2, [r3, #28]
 800316e:	0692      	lsls	r2, r2, #26
 8003170:	d502      	bpl.n	8003178 <uart_irq+0x40>
                if (__HAL_UART_GET_IT(huart, UART_IT_RXNE) != RESET) {
 8003172:	69db      	ldr	r3, [r3, #28]
 8003174:	069b      	lsls	r3, r3, #26
 8003176:	d412      	bmi.n	800319e <uart_irq+0x66>
                    irq_handler(serial_irq_ids[id], RxIrq);
                    /* Flag has been cleared when reading the content */
                }
            }
            if (__HAL_UART_GET_FLAG(huart, UART_FLAG_ORE) != RESET) {
 8003178:	00e3      	lsls	r3, r4, #3
 800317a:	1b1c      	subs	r4, r3, r4
 800317c:	0123      	lsls	r3, r4, #4
 800317e:	4a0d      	ldr	r2, [pc, #52]	; (80031b4 <uart_irq+0x7c>)
 8003180:	589b      	ldr	r3, [r3, r2]
 8003182:	69da      	ldr	r2, [r3, #28]
 8003184:	0712      	lsls	r2, r2, #28
 8003186:	d504      	bpl.n	8003192 <uart_irq+0x5a>
                if (__HAL_UART_GET_IT(huart, UART_IT_ORE) != RESET) {
 8003188:	69da      	ldr	r2, [r3, #28]
 800318a:	0712      	lsls	r2, r2, #28
 800318c:	d501      	bpl.n	8003192 <uart_irq+0x5a>
                    __HAL_UART_CLEAR_FLAG(huart, UART_CLEAR_OREF);
 800318e:	2208      	movs	r2, #8
 8003190:	621a      	str	r2, [r3, #32]
                }
            }
        }
    }
}
 8003192:	bd10      	pop	{r4, pc}
                    irq_handler(serial_irq_ids[id], TxIrq);
 8003194:	4b08      	ldr	r3, [pc, #32]	; (80031b8 <uart_irq+0x80>)
 8003196:	681b      	ldr	r3, [r3, #0]
 8003198:	2101      	movs	r1, #1
 800319a:	4798      	blx	r3
 800319c:	e7e1      	b.n	8003162 <uart_irq+0x2a>
                    irq_handler(serial_irq_ids[id], RxIrq);
 800319e:	00a3      	lsls	r3, r4, #2
 80031a0:	4a03      	ldr	r2, [pc, #12]	; (80031b0 <uart_irq+0x78>)
 80031a2:	5898      	ldr	r0, [r3, r2]
 80031a4:	4b04      	ldr	r3, [pc, #16]	; (80031b8 <uart_irq+0x80>)
 80031a6:	681b      	ldr	r3, [r3, #0]
 80031a8:	2100      	movs	r1, #0
 80031aa:	4798      	blx	r3
 80031ac:	e7e4      	b.n	8003178 <uart_irq+0x40>
 80031ae:	46c0      	nop			; (mov r8, r8)
 80031b0:	20000a68 	.word	0x20000a68
 80031b4:	20000abc 	.word	0x20000abc
 80031b8:	20000a64 	.word	0x20000a64

080031bc <uart3_8_irq>:
}
#endif

// Used for both USART3_4_IRQn and USART3_8_IRQn
static void uart3_8_irq(void)
{
 80031bc:	b510      	push	{r4, lr}
        uart_irq(UART_8);
    }
#endif
#else // TARGET_STM32F070RB, TARGET_STM32F072RB
#if defined(USART3_BASE)
    if (USART3->ISR & (UART_FLAG_TXE | UART_FLAG_RXNE | UART_FLAG_ORE)) {
 80031be:	4b09      	ldr	r3, [pc, #36]	; (80031e4 <uart3_8_irq+0x28>)
 80031c0:	69db      	ldr	r3, [r3, #28]
 80031c2:	22a8      	movs	r2, #168	; 0xa8
 80031c4:	421a      	tst	r2, r3
 80031c6:	d105      	bne.n	80031d4 <uart3_8_irq+0x18>
        uart_irq(UART_3);
    }
#endif
#if defined(USART4_BASE)
    if (USART4->ISR & (UART_FLAG_TXE | UART_FLAG_RXNE | UART_FLAG_ORE)) {
 80031c8:	4b07      	ldr	r3, [pc, #28]	; (80031e8 <uart3_8_irq+0x2c>)
 80031ca:	69db      	ldr	r3, [r3, #28]
 80031cc:	22a8      	movs	r2, #168	; 0xa8
 80031ce:	421a      	tst	r2, r3
 80031d0:	d104      	bne.n	80031dc <uart3_8_irq+0x20>
        uart_irq(UART_4);
    }
#endif
#endif
}
 80031d2:	bd10      	pop	{r4, pc}
        uart_irq(UART_3);
 80031d4:	4803      	ldr	r0, [pc, #12]	; (80031e4 <uart3_8_irq+0x28>)
 80031d6:	f7ff ffaf 	bl	8003138 <uart_irq>
 80031da:	e7f5      	b.n	80031c8 <uart3_8_irq+0xc>
        uart_irq(UART_4);
 80031dc:	4802      	ldr	r0, [pc, #8]	; (80031e8 <uart3_8_irq+0x2c>)
 80031de:	f7ff ffab 	bl	8003138 <uart_irq>
}
 80031e2:	e7f6      	b.n	80031d2 <uart3_8_irq+0x16>
 80031e4:	40004800 	.word	0x40004800
 80031e8:	40004c00 	.word	0x40004c00

080031ec <uart2_irq>:
{
 80031ec:	b510      	push	{r4, lr}
    uart_irq(UART_2);
 80031ee:	4802      	ldr	r0, [pc, #8]	; (80031f8 <uart2_irq+0xc>)
 80031f0:	f7ff ffa2 	bl	8003138 <uart_irq>
}
 80031f4:	bd10      	pop	{r4, pc}
 80031f6:	46c0      	nop			; (mov r8, r8)
 80031f8:	40004400 	.word	0x40004400

080031fc <uart1_irq>:
{
 80031fc:	b510      	push	{r4, lr}
    uart_irq(UART_1);
 80031fe:	4802      	ldr	r0, [pc, #8]	; (8003208 <uart1_irq+0xc>)
 8003200:	f7ff ff9a 	bl	8003138 <uart_irq>
}
 8003204:	bd10      	pop	{r4, pc}
 8003206:	46c0      	nop			; (mov r8, r8)
 8003208:	40013800 	.word	0x40013800

0800320c <serial_irq_handler>:

void serial_irq_handler(serial_t *obj, uart_irq_handler handler, uint32_t id)
{
    struct serial_s *obj_s = SERIAL_S(obj);

    irq_handler = handler;
 800320c:	4b03      	ldr	r3, [pc, #12]	; (800321c <serial_irq_handler+0x10>)
 800320e:	6019      	str	r1, [r3, #0]
    serial_irq_ids[obj_s->index] = id;
 8003210:	6843      	ldr	r3, [r0, #4]
 8003212:	009b      	lsls	r3, r3, #2
 8003214:	4902      	ldr	r1, [pc, #8]	; (8003220 <serial_irq_handler+0x14>)
 8003216:	505a      	str	r2, [r3, r1]
}
 8003218:	4770      	bx	lr
 800321a:	46c0      	nop			; (mov r8, r8)
 800321c:	20000a64 	.word	0x20000a64
 8003220:	20000a68 	.word	0x20000a68

08003224 <serial_irq_set>:

void serial_irq_set(serial_t *obj, SerialIrq irq, uint32_t enable)
{
 8003224:	b570      	push	{r4, r5, r6, lr}
    struct serial_s *obj_s = SERIAL_S(obj);
    UART_HandleTypeDef *huart = &uart_handlers[obj_s->index];
 8003226:	6845      	ldr	r5, [r0, #4]
    IRQn_Type irq_n = (IRQn_Type)0;
    uint32_t vector = 0;

#if defined(USART1_BASE)
    if (obj_s->uart == UART_1) {
 8003228:	6803      	ldr	r3, [r0, #0]
 800322a:	4838      	ldr	r0, [pc, #224]	; (800330c <serial_irq_set+0xe8>)
 800322c:	4283      	cmp	r3, r0
 800322e:	d022      	beq.n	8003276 <serial_irq_set+0x52>
    uint32_t vector = 0;
 8003230:	2000      	movs	r0, #0
    IRQn_Type irq_n = (IRQn_Type)0;
 8003232:	2400      	movs	r4, #0
        vector = (uint32_t)&uart1_irq;
    }
#endif

#if defined(USART2_BASE)
    if (obj_s->uart == UART_2) {
 8003234:	4e36      	ldr	r6, [pc, #216]	; (8003310 <serial_irq_set+0xec>)
 8003236:	42b3      	cmp	r3, r6
 8003238:	d020      	beq.n	800327c <serial_irq_set+0x58>
        vector = (uint32_t)&uart2_irq;
    }
#endif

#if defined(USART3_BASE)
    if (obj_s->uart == UART_3) {
 800323a:	4e36      	ldr	r6, [pc, #216]	; (8003314 <serial_irq_set+0xf0>)
 800323c:	42b3      	cmp	r3, r6
 800323e:	d020      	beq.n	8003282 <serial_irq_set+0x5e>
        vector = (uint32_t)&uart3_8_irq;
    }
#endif

#if defined(USART4_BASE)
    if (obj_s->uart == UART_4) {
 8003240:	4e35      	ldr	r6, [pc, #212]	; (8003318 <serial_irq_set+0xf4>)
 8003242:	42b3      	cmp	r3, r6
 8003244:	d020      	beq.n	8003288 <serial_irq_set+0x64>
        irq_n = USART3_8_IRQn;
        vector = (uint32_t)&uart3_8_irq;
    }
#endif

    if (enable) {
 8003246:	2a00      	cmp	r2, #0
 8003248:	d02b      	beq.n	80032a2 <serial_irq_set+0x7e>
        if (irq == RxIrq) {
 800324a:	2900      	cmp	r1, #0
 800324c:	d11f      	bne.n	800328e <serial_irq_set+0x6a>
            __HAL_UART_ENABLE_IT(huart, UART_IT_RXNE);
 800324e:	00eb      	lsls	r3, r5, #3
 8003250:	1b5d      	subs	r5, r3, r5
 8003252:	012b      	lsls	r3, r5, #4
 8003254:	4a31      	ldr	r2, [pc, #196]	; (800331c <serial_irq_set+0xf8>)
 8003256:	589a      	ldr	r2, [r3, r2]
 8003258:	6813      	ldr	r3, [r2, #0]
 800325a:	3120      	adds	r1, #32
 800325c:	430b      	orrs	r3, r1
 800325e:	6013      	str	r3, [r2, #0]
        } else { // TxIrq
            __HAL_UART_ENABLE_IT(huart, UART_IT_TXE);
        }
        NVIC_SetVector(irq_n, vector);
 8003260:	0001      	movs	r1, r0
 8003262:	0020      	movs	r0, r4
 8003264:	f7ff f8b4 	bl	80023d0 <NVIC_SetVector>
  \param [in]      IRQn  Device specific interrupt number.
  \note    IRQn must not be negative.
 */
__STATIC_INLINE void __NVIC_EnableIRQ(IRQn_Type IRQn)
{
  if ((int32_t)(IRQn) >= 0)
 8003268:	2c00      	cmp	r4, #0
 800326a:	db03      	blt.n	8003274 <serial_irq_set+0x50>
  {
    NVIC->ISER[0U] = (uint32_t)(1UL << (((uint32_t)IRQn) & 0x1FUL));
 800326c:	2301      	movs	r3, #1
 800326e:	40a3      	lsls	r3, r4
 8003270:	4a2b      	ldr	r2, [pc, #172]	; (8003320 <serial_irq_set+0xfc>)
 8003272:	6013      	str	r3, [r2, #0]

        if (all_disabled) {
            NVIC_DisableIRQ(irq_n);
        }
    }
}
 8003274:	bd70      	pop	{r4, r5, r6, pc}
        vector = (uint32_t)&uart1_irq;
 8003276:	482b      	ldr	r0, [pc, #172]	; (8003324 <serial_irq_set+0x100>)
        irq_n = USART1_IRQn;
 8003278:	241b      	movs	r4, #27
 800327a:	e7db      	b.n	8003234 <serial_irq_set+0x10>
        vector = (uint32_t)&uart2_irq;
 800327c:	482a      	ldr	r0, [pc, #168]	; (8003328 <serial_irq_set+0x104>)
        irq_n = USART2_IRQn;
 800327e:	241c      	movs	r4, #28
 8003280:	e7db      	b.n	800323a <serial_irq_set+0x16>
        vector = (uint32_t)&uart3_8_irq;
 8003282:	482a      	ldr	r0, [pc, #168]	; (800332c <serial_irq_set+0x108>)
        irq_n = USART3_4_IRQn;
 8003284:	241d      	movs	r4, #29
 8003286:	e7db      	b.n	8003240 <serial_irq_set+0x1c>
        vector = (uint32_t)&uart3_8_irq;
 8003288:	4828      	ldr	r0, [pc, #160]	; (800332c <serial_irq_set+0x108>)
        irq_n = USART3_4_IRQn;
 800328a:	241d      	movs	r4, #29
 800328c:	e7db      	b.n	8003246 <serial_irq_set+0x22>
            __HAL_UART_ENABLE_IT(huart, UART_IT_TXE);
 800328e:	00eb      	lsls	r3, r5, #3
 8003290:	1b5d      	subs	r5, r3, r5
 8003292:	012b      	lsls	r3, r5, #4
 8003294:	4a21      	ldr	r2, [pc, #132]	; (800331c <serial_irq_set+0xf8>)
 8003296:	589a      	ldr	r2, [r3, r2]
 8003298:	6813      	ldr	r3, [r2, #0]
 800329a:	2180      	movs	r1, #128	; 0x80
 800329c:	430b      	orrs	r3, r1
 800329e:	6013      	str	r3, [r2, #0]
 80032a0:	e7de      	b.n	8003260 <serial_irq_set+0x3c>
        if (irq == RxIrq) {
 80032a2:	2900      	cmp	r1, #0
 80032a4:	d11d      	bne.n	80032e2 <serial_irq_set+0xbe>
            __HAL_UART_DISABLE_IT(huart, UART_IT_RXNE);
 80032a6:	491d      	ldr	r1, [pc, #116]	; (800331c <serial_irq_set+0xf8>)
 80032a8:	00eb      	lsls	r3, r5, #3
 80032aa:	1b58      	subs	r0, r3, r5
 80032ac:	0102      	lsls	r2, r0, #4
 80032ae:	5850      	ldr	r0, [r2, r1]
 80032b0:	6802      	ldr	r2, [r0, #0]
 80032b2:	2620      	movs	r6, #32
 80032b4:	43b2      	bics	r2, r6
 80032b6:	6002      	str	r2, [r0, #0]
            if ((huart->Instance->CR1 & USART_CR1_TXEIE) == 0) {
 80032b8:	1b5d      	subs	r5, r3, r5
 80032ba:	012b      	lsls	r3, r5, #4
 80032bc:	585b      	ldr	r3, [r3, r1]
 80032be:	681b      	ldr	r3, [r3, #0]
 80032c0:	061b      	lsls	r3, r3, #24
 80032c2:	d51f      	bpl.n	8003304 <serial_irq_set+0xe0>
        int all_disabled = 0;
 80032c4:	2300      	movs	r3, #0
        if (all_disabled) {
 80032c6:	2b00      	cmp	r3, #0
 80032c8:	d0d4      	beq.n	8003274 <serial_irq_set+0x50>
  \param [in]      IRQn  Device specific interrupt number.
  \note    IRQn must not be negative.
 */
__STATIC_INLINE void __NVIC_DisableIRQ(IRQn_Type IRQn)
{
  if ((int32_t)(IRQn) >= 0)
 80032ca:	2c00      	cmp	r4, #0
 80032cc:	dbd2      	blt.n	8003274 <serial_irq_set+0x50>
  {
    NVIC->ICER[0U] = (uint32_t)(1UL << (((uint32_t)IRQn) & 0x1FUL));
 80032ce:	2301      	movs	r3, #1
 80032d0:	40a3      	lsls	r3, r4
 80032d2:	2280      	movs	r2, #128	; 0x80
 80032d4:	4912      	ldr	r1, [pc, #72]	; (8003320 <serial_irq_set+0xfc>)
 80032d6:	508b      	str	r3, [r1, r2]
  __ASM volatile ("dsb 0xF":::"memory");
 80032d8:	f3bf 8f4f 	dsb	sy
  __ASM volatile ("isb 0xF":::"memory");
 80032dc:	f3bf 8f6f 	isb	sy
}
 80032e0:	e7c8      	b.n	8003274 <serial_irq_set+0x50>
            __HAL_UART_DISABLE_IT(huart, UART_IT_TXE);
 80032e2:	490e      	ldr	r1, [pc, #56]	; (800331c <serial_irq_set+0xf8>)
 80032e4:	00eb      	lsls	r3, r5, #3
 80032e6:	1b58      	subs	r0, r3, r5
 80032e8:	0102      	lsls	r2, r0, #4
 80032ea:	5850      	ldr	r0, [r2, r1]
 80032ec:	6802      	ldr	r2, [r0, #0]
 80032ee:	2680      	movs	r6, #128	; 0x80
 80032f0:	43b2      	bics	r2, r6
 80032f2:	6002      	str	r2, [r0, #0]
            if ((huart->Instance->CR1 & USART_CR1_RXNEIE) == 0) {
 80032f4:	1b5d      	subs	r5, r3, r5
 80032f6:	012b      	lsls	r3, r5, #4
 80032f8:	585b      	ldr	r3, [r3, r1]
 80032fa:	681b      	ldr	r3, [r3, #0]
 80032fc:	069b      	lsls	r3, r3, #26
 80032fe:	d503      	bpl.n	8003308 <serial_irq_set+0xe4>
        int all_disabled = 0;
 8003300:	2300      	movs	r3, #0
 8003302:	e7e0      	b.n	80032c6 <serial_irq_set+0xa2>
                all_disabled = 1;
 8003304:	2301      	movs	r3, #1
 8003306:	e7de      	b.n	80032c6 <serial_irq_set+0xa2>
                all_disabled = 1;
 8003308:	2301      	movs	r3, #1
 800330a:	e7dc      	b.n	80032c6 <serial_irq_set+0xa2>
 800330c:	40013800 	.word	0x40013800
 8003310:	40004400 	.word	0x40004400
 8003314:	40004800 	.word	0x40004800
 8003318:	40004c00 	.word	0x40004c00
 800331c:	20000abc 	.word	0x20000abc
 8003320:	e000e100 	.word	0xe000e100
 8003324:	080031fd 	.word	0x080031fd
 8003328:	080031ed 	.word	0x080031ed
 800332c:	080031bd 	.word	0x080031bd

08003330 <serial_getc>:
/******************************************************************************
 * READ/WRITE
 ******************************************************************************/

int serial_getc(serial_t *obj)
{
 8003330:	b570      	push	{r4, r5, r6, lr}
 8003332:	0004      	movs	r4, r0
    struct serial_s *obj_s = SERIAL_S(obj);
    UART_HandleTypeDef *huart = &uart_handlers[obj_s->index];
 8003334:	6845      	ldr	r5, [r0, #4]

    while (!serial_readable(obj));
 8003336:	0020      	movs	r0, r4
 8003338:	f000 f9d6 	bl	80036e8 <serial_readable>
 800333c:	2800      	cmp	r0, #0
 800333e:	d0fa      	beq.n	8003336 <serial_getc+0x6>
    return (int)(huart->Instance->RDR & (uint16_t)0xFF);
 8003340:	00eb      	lsls	r3, r5, #3
 8003342:	1b5b      	subs	r3, r3, r5
 8003344:	011a      	lsls	r2, r3, #4
 8003346:	4b03      	ldr	r3, [pc, #12]	; (8003354 <serial_getc+0x24>)
 8003348:	58d3      	ldr	r3, [r2, r3]
 800334a:	8c98      	ldrh	r0, [r3, #36]	; 0x24
 800334c:	23ff      	movs	r3, #255	; 0xff
 800334e:	4018      	ands	r0, r3
}
 8003350:	bd70      	pop	{r4, r5, r6, pc}
 8003352:	46c0      	nop			; (mov r8, r8)
 8003354:	20000abc 	.word	0x20000abc

08003358 <serial_putc>:

void serial_putc(serial_t *obj, int c)
{
 8003358:	b570      	push	{r4, r5, r6, lr}
 800335a:	0004      	movs	r4, r0
 800335c:	000e      	movs	r6, r1
    struct serial_s *obj_s = SERIAL_S(obj);
    UART_HandleTypeDef *huart = &uart_handlers[obj_s->index];
 800335e:	6845      	ldr	r5, [r0, #4]

    while (!serial_writable(obj));
 8003360:	0020      	movs	r0, r4
 8003362:	f000 f9d9 	bl	8003718 <serial_writable>
 8003366:	2800      	cmp	r0, #0
 8003368:	d0fa      	beq.n	8003360 <serial_putc+0x8>
    huart->Instance->TDR = (uint32_t)(c & (uint16_t)0xFF);
 800336a:	00eb      	lsls	r3, r5, #3
 800336c:	1b5b      	subs	r3, r3, r5
 800336e:	011a      	lsls	r2, r3, #4
 8003370:	4b02      	ldr	r3, [pc, #8]	; (800337c <serial_putc+0x24>)
 8003372:	58d3      	ldr	r3, [r2, r3]
 8003374:	21ff      	movs	r1, #255	; 0xff
 8003376:	4031      	ands	r1, r6
 8003378:	8519      	strh	r1, [r3, #40]	; 0x28
}
 800337a:	bd70      	pop	{r4, r5, r6, pc}
 800337c:	20000abc 	.word	0x20000abc

08003380 <Set_GPIO_Clock>:

extern const uint32_t ll_pin_defines[16];

// Enable GPIO clock and return GPIO base address
GPIO_TypeDef *Set_GPIO_Clock(uint32_t port_idx)
{
 8003380:	b500      	push	{lr}
 8003382:	b087      	sub	sp, #28
    uint32_t gpio_add = 0;
    switch (port_idx) {
 8003384:	2805      	cmp	r0, #5
 8003386:	d841      	bhi.n	800340c <Set_GPIO_Clock+0x8c>
 8003388:	0080      	lsls	r0, r0, #2
 800338a:	4b23      	ldr	r3, [pc, #140]	; (8003418 <Set_GPIO_Clock+0x98>)
 800338c:	581b      	ldr	r3, [r3, r0]
 800338e:	469f      	mov	pc, r3
        case PortA:
            gpio_add = GPIOA_BASE;
            __HAL_RCC_GPIOA_CLK_ENABLE();
 8003390:	4a22      	ldr	r2, [pc, #136]	; (800341c <Set_GPIO_Clock+0x9c>)
 8003392:	6951      	ldr	r1, [r2, #20]
 8003394:	2080      	movs	r0, #128	; 0x80
 8003396:	0280      	lsls	r0, r0, #10
 8003398:	4301      	orrs	r1, r0
 800339a:	6151      	str	r1, [r2, #20]
 800339c:	6953      	ldr	r3, [r2, #20]
 800339e:	4003      	ands	r3, r0
 80033a0:	9301      	str	r3, [sp, #4]
 80033a2:	9b01      	ldr	r3, [sp, #4]
            gpio_add = GPIOA_BASE;
 80033a4:	2090      	movs	r0, #144	; 0x90
 80033a6:	05c0      	lsls	r0, r0, #23
        default:
            error("Pinmap error: wrong port number.");
            break;
    }
    return (GPIO_TypeDef *) gpio_add;
}
 80033a8:	b007      	add	sp, #28
 80033aa:	bd00      	pop	{pc}
            __HAL_RCC_GPIOB_CLK_ENABLE();
 80033ac:	4a1b      	ldr	r2, [pc, #108]	; (800341c <Set_GPIO_Clock+0x9c>)
 80033ae:	6951      	ldr	r1, [r2, #20]
 80033b0:	2080      	movs	r0, #128	; 0x80
 80033b2:	02c0      	lsls	r0, r0, #11
 80033b4:	4301      	orrs	r1, r0
 80033b6:	6151      	str	r1, [r2, #20]
 80033b8:	6953      	ldr	r3, [r2, #20]
 80033ba:	4003      	ands	r3, r0
 80033bc:	9302      	str	r3, [sp, #8]
 80033be:	9b02      	ldr	r3, [sp, #8]
            gpio_add = GPIOB_BASE;
 80033c0:	4817      	ldr	r0, [pc, #92]	; (8003420 <Set_GPIO_Clock+0xa0>)
            break;
 80033c2:	e7f1      	b.n	80033a8 <Set_GPIO_Clock+0x28>
            __HAL_RCC_GPIOC_CLK_ENABLE();
 80033c4:	4a15      	ldr	r2, [pc, #84]	; (800341c <Set_GPIO_Clock+0x9c>)
 80033c6:	6951      	ldr	r1, [r2, #20]
 80033c8:	2080      	movs	r0, #128	; 0x80
 80033ca:	0300      	lsls	r0, r0, #12
 80033cc:	4301      	orrs	r1, r0
 80033ce:	6151      	str	r1, [r2, #20]
 80033d0:	6953      	ldr	r3, [r2, #20]
 80033d2:	4003      	ands	r3, r0
 80033d4:	9303      	str	r3, [sp, #12]
 80033d6:	9b03      	ldr	r3, [sp, #12]
            gpio_add = GPIOC_BASE;
 80033d8:	4812      	ldr	r0, [pc, #72]	; (8003424 <Set_GPIO_Clock+0xa4>)
            break;
 80033da:	e7e5      	b.n	80033a8 <Set_GPIO_Clock+0x28>
            __HAL_RCC_GPIOD_CLK_ENABLE();
 80033dc:	4a0f      	ldr	r2, [pc, #60]	; (800341c <Set_GPIO_Clock+0x9c>)
 80033de:	6951      	ldr	r1, [r2, #20]
 80033e0:	2080      	movs	r0, #128	; 0x80
 80033e2:	0340      	lsls	r0, r0, #13
 80033e4:	4301      	orrs	r1, r0
 80033e6:	6151      	str	r1, [r2, #20]
 80033e8:	6953      	ldr	r3, [r2, #20]
 80033ea:	4003      	ands	r3, r0
 80033ec:	9304      	str	r3, [sp, #16]
 80033ee:	9b04      	ldr	r3, [sp, #16]
            gpio_add = GPIOD_BASE;
 80033f0:	480d      	ldr	r0, [pc, #52]	; (8003428 <Set_GPIO_Clock+0xa8>)
            break;
 80033f2:	e7d9      	b.n	80033a8 <Set_GPIO_Clock+0x28>
            __HAL_RCC_GPIOF_CLK_ENABLE();
 80033f4:	4a09      	ldr	r2, [pc, #36]	; (800341c <Set_GPIO_Clock+0x9c>)
 80033f6:	6951      	ldr	r1, [r2, #20]
 80033f8:	2080      	movs	r0, #128	; 0x80
 80033fa:	03c0      	lsls	r0, r0, #15
 80033fc:	4301      	orrs	r1, r0
 80033fe:	6151      	str	r1, [r2, #20]
 8003400:	6953      	ldr	r3, [r2, #20]
 8003402:	4003      	ands	r3, r0
 8003404:	9305      	str	r3, [sp, #20]
 8003406:	9b05      	ldr	r3, [sp, #20]
            gpio_add = GPIOF_BASE;
 8003408:	4808      	ldr	r0, [pc, #32]	; (800342c <Set_GPIO_Clock+0xac>)
            break;
 800340a:	e7cd      	b.n	80033a8 <Set_GPIO_Clock+0x28>
            error("Pinmap error: wrong port number.");
 800340c:	4808      	ldr	r0, [pc, #32]	; (8003430 <Set_GPIO_Clock+0xb0>)
 800340e:	f7fe fb67 	bl	8001ae0 <error>
    uint32_t gpio_add = 0;
 8003412:	2000      	movs	r0, #0
            break;
 8003414:	e7c8      	b.n	80033a8 <Set_GPIO_Clock+0x28>
 8003416:	46c0      	nop			; (mov r8, r8)
 8003418:	080059ec 	.word	0x080059ec
 800341c:	40021000 	.word	0x40021000
 8003420:	48000400 	.word	0x48000400
 8003424:	48000800 	.word	0x48000800
 8003428:	48000c00 	.word	0x48000c00
 800342c:	48001400 	.word	0x48001400
 8003430:	08005a04 	.word	0x08005a04

08003434 <gpio_set>:

uint32_t gpio_set(PinName pin)
{
 8003434:	b510      	push	{r4, lr}
 8003436:	0004      	movs	r4, r0
    MBED_ASSERT(pin != (PinName)NC);

    pin_function(pin, STM_PIN_DATA(STM_MODE_INPUT, GPIO_NOPULL, 0));
 8003438:	2100      	movs	r1, #0
 800343a:	f000 f885 	bl	8003548 <pin_function>

    return (uint32_t)(1 << ((uint32_t)pin & 0xF)); // Return the pin mask
 800343e:	230f      	movs	r3, #15
 8003440:	401c      	ands	r4, r3
 8003442:	2001      	movs	r0, #1
 8003444:	40a0      	lsls	r0, r4
}
 8003446:	bd10      	pop	{r4, pc}

08003448 <gpio_init>:


void gpio_init(gpio_t *obj, PinName pin)
{
 8003448:	b570      	push	{r4, r5, r6, lr}
 800344a:	0004      	movs	r4, r0
 800344c:	000e      	movs	r6, r1
    obj->pin = pin;
 800344e:	8221      	strh	r1, [r4, #16]
    if (pin == (PinName)NC) {
 8003450:	1c4b      	adds	r3, r1, #1
 8003452:	d018      	beq.n	8003486 <gpio_init+0x3e>
        return;
    }

    uint32_t port_index = STM_PORT(pin);
 8003454:	090b      	lsrs	r3, r1, #4
 8003456:	200f      	movs	r0, #15
 8003458:	4018      	ands	r0, r3

    // Enable GPIO clock
    GPIO_TypeDef *gpio = Set_GPIO_Clock(port_index);
 800345a:	f7ff ff91 	bl	8003380 <Set_GPIO_Clock>
 800345e:	0005      	movs	r5, r0

    // Fill GPIO object structure for future use
    obj->mask    = gpio_set(pin);
 8003460:	0030      	movs	r0, r6
 8003462:	f7ff ffe7 	bl	8003434 <gpio_set>
 8003466:	6020      	str	r0, [r4, #0]
    obj->gpio  = gpio;
 8003468:	6165      	str	r5, [r4, #20]
    obj->ll_pin  = ll_pin_defines[STM_PIN(obj->pin)];
 800346a:	8a22      	ldrh	r2, [r4, #16]
 800346c:	230f      	movs	r3, #15
 800346e:	4013      	ands	r3, r2
 8003470:	009b      	lsls	r3, r3, #2
 8003472:	4a05      	ldr	r2, [pc, #20]	; (8003488 <gpio_init+0x40>)
 8003474:	589b      	ldr	r3, [r3, r2]
 8003476:	61a3      	str	r3, [r4, #24]
    obj->reg_in  = &gpio->IDR;
 8003478:	002b      	movs	r3, r5
 800347a:	3310      	adds	r3, #16
 800347c:	6063      	str	r3, [r4, #4]
    obj->reg_set = &gpio->BSRR;
 800347e:	3308      	adds	r3, #8
 8003480:	60a3      	str	r3, [r4, #8]
#ifdef GPIO_IP_WITHOUT_BRR
    obj->reg_clr = &gpio->BSRR;
#else
    obj->reg_clr = &gpio->BRR;
 8003482:	3528      	adds	r5, #40	; 0x28
 8003484:	60e5      	str	r5, [r4, #12]
#endif
}
 8003486:	bd70      	pop	{r4, r5, r6, pc}
 8003488:	08005a28 	.word	0x08005a28

0800348c <gpio_mode>:

void gpio_mode(gpio_t *obj, PinMode mode)
{
 800348c:	b510      	push	{r4, lr}
    pin_mode(obj->pin, mode);
 800348e:	2310      	movs	r3, #16
 8003490:	5ec0      	ldrsh	r0, [r0, r3]
 8003492:	f000 f8e3 	bl	800365c <pin_mode>
}
 8003496:	bd10      	pop	{r4, pc}

08003498 <gpio_dir>:

inline void gpio_dir(gpio_t *obj, PinDirection direction)
{
 8003498:	b510      	push	{r4, lr}
    if (direction == PIN_INPUT) {
 800349a:	2900      	cmp	r1, #0
 800349c:	d009      	beq.n	80034b2 <gpio_dir+0x1a>
        LL_GPIO_SetPinMode(obj->gpio, obj->ll_pin, LL_GPIO_MODE_INPUT);
    } else {
        LL_GPIO_SetPinMode(obj->gpio, obj->ll_pin, LL_GPIO_MODE_OUTPUT);
 800349e:	6944      	ldr	r4, [r0, #20]
 80034a0:	6983      	ldr	r3, [r0, #24]
  *         @arg @ref LL_GPIO_MODE_ANALOG
  * @retval None
  */
__STATIC_INLINE void LL_GPIO_SetPinMode(GPIO_TypeDef *GPIOx, uint32_t Pin, uint32_t Mode)
{
  MODIFY_REG(GPIOx->MODER, ((Pin * Pin) * GPIO_MODER_MODER0), ((Pin * Pin) * Mode));
 80034a2:	6822      	ldr	r2, [r4, #0]
 80034a4:	435b      	muls	r3, r3
 80034a6:	0059      	lsls	r1, r3, #1
 80034a8:	18c9      	adds	r1, r1, r3
 80034aa:	438a      	bics	r2, r1
 80034ac:	4313      	orrs	r3, r2
 80034ae:	6023      	str	r3, [r4, #0]
    }
}
 80034b0:	bd10      	pop	{r4, pc}
        LL_GPIO_SetPinMode(obj->gpio, obj->ll_pin, LL_GPIO_MODE_INPUT);
 80034b2:	6944      	ldr	r4, [r0, #20]
 80034b4:	6983      	ldr	r3, [r0, #24]
 80034b6:	6822      	ldr	r2, [r4, #0]
 80034b8:	435b      	muls	r3, r3
 80034ba:	0059      	lsls	r1, r3, #1
 80034bc:	18cb      	adds	r3, r1, r3
 80034be:	439a      	bics	r2, r3
 80034c0:	6022      	str	r2, [r4, #0]
 80034c2:	e7f5      	b.n	80034b0 <gpio_dir+0x18>

080034c4 <HAL_InitTick>:
#endif

// Overwrite default HAL functions defined as "weak"

HAL_StatusTypeDef HAL_InitTick(uint32_t TickPriority)
{
 80034c4:	b510      	push	{r4, lr}
#if TIM_MST_BIT_WIDTH == 16
    init_16bit_timer();
 80034c6:	f000 fa69 	bl	800399c <init_16bit_timer>
#else
    init_32bit_timer();
#endif
    return HAL_OK;
}
 80034ca:	2000      	movs	r0, #0
 80034cc:	bd10      	pop	{r4, pc}
	...

080034d0 <HAL_GetTick>:

uint32_t HAL_GetTick()
{
 80034d0:	b510      	push	{r4, lr}
#if TIM_MST_BIT_WIDTH == 16
    uint32_t new_time;
    if (mbed_sdk_inited) {
 80034d2:	4b12      	ldr	r3, [pc, #72]	; (800351c <HAL_GetTick+0x4c>)
 80034d4:	681b      	ldr	r3, [r3, #0]
 80034d6:	2b00      	cmp	r3, #0
 80034d8:	d111      	bne.n	80034fe <HAL_GetTick+0x2e>
        new_time = ticker_read_us(get_us_ticker_data()) + prev_time;
        prev_time = 0; // Use this time only once
        return (new_time / 1000);
    }
    else {
        new_time = us_ticker_read();
 80034da:	f000 fadd 	bl	8003a98 <us_ticker_read>
 80034de:	0001      	movs	r1, r0
        elapsed_time += (new_time - prev_time) & 0xFFFF; // Only use the lower 16 bits
 80034e0:	4a0f      	ldr	r2, [pc, #60]	; (8003520 <HAL_GetTick+0x50>)
 80034e2:	6813      	ldr	r3, [r2, #0]
 80034e4:	1ac3      	subs	r3, r0, r3
 80034e6:	041b      	lsls	r3, r3, #16
 80034e8:	0c1b      	lsrs	r3, r3, #16
 80034ea:	4c0e      	ldr	r4, [pc, #56]	; (8003524 <HAL_GetTick+0x54>)
 80034ec:	6820      	ldr	r0, [r4, #0]
 80034ee:	1818      	adds	r0, r3, r0
 80034f0:	6020      	str	r0, [r4, #0]
        prev_time = new_time;
 80034f2:	6011      	str	r1, [r2, #0]
        return (elapsed_time / 1000);
 80034f4:	21fa      	movs	r1, #250	; 0xfa
 80034f6:	0089      	lsls	r1, r1, #2
 80034f8:	f7fc fe18 	bl	800012c <__udivsi3>
    }
    else {
        return (us_ticker_read() / 1000);
    }
#endif
}
 80034fc:	bd10      	pop	{r4, pc}
        new_time = ticker_read_us(get_us_ticker_data()) + prev_time;
 80034fe:	f7fe f84f 	bl	80015a0 <get_us_ticker_data>
 8003502:	f7fe f83a 	bl	800157a <ticker_read_us>
 8003506:	4b06      	ldr	r3, [pc, #24]	; (8003520 <HAL_GetTick+0x50>)
 8003508:	681a      	ldr	r2, [r3, #0]
 800350a:	4694      	mov	ip, r2
 800350c:	4460      	add	r0, ip
        prev_time = 0; // Use this time only once
 800350e:	2200      	movs	r2, #0
 8003510:	601a      	str	r2, [r3, #0]
        return (new_time / 1000);
 8003512:	21fa      	movs	r1, #250	; 0xfa
 8003514:	0089      	lsls	r1, r1, #2
 8003516:	f7fc fe09 	bl	800012c <__udivsi3>
 800351a:	e7ef      	b.n	80034fc <HAL_GetTick+0x2c>
 800351c:	20000a80 	.word	0x20000a80
 8003520:	20000a7c 	.word	0x20000a7c
 8003524:	20000a78 	.word	0x20000a78

08003528 <mbed_sdk_init>:

int mbed_sdk_inited = 0;

// This function is called after RAM initialization and before main.
void mbed_sdk_init()
{
 8003528:	b510      	push	{r4, lr}
        SCB_EnableDCache();
    }
#endif /* TARGET_STM32F7 */

    // Update the SystemCoreClock variable.
    SystemCoreClockUpdate();
 800352a:	f7ff fdbb 	bl	80030a4 <SystemCoreClockUpdate>
    HAL_Init();
 800352e:	f7ff f831 	bl	8002594 <HAL_Init>

    /* Configure the System clock source, PLL Multiplier and Divider factors,
       AHB/APBx prescalers and Flash settings */
    SetSysClock();
 8003532:	f7ff f81b 	bl	800256c <SetSysClock>
    SystemCoreClockUpdate();
 8003536:	f7ff fdb5 	bl	80030a4 <SystemCoreClockUpdate>

    mbed_sdk_inited = 1;
 800353a:	2201      	movs	r2, #1
 800353c:	4b01      	ldr	r3, [pc, #4]	; (8003544 <mbed_sdk_init+0x1c>)
 800353e:	601a      	str	r2, [r3, #0]
}
 8003540:	bd10      	pop	{r4, pc}
 8003542:	46c0      	nop			; (mov r8, r8)
 8003544:	20000a80 	.word	0x20000a80

08003548 <pin_function>:

/**
 * Configure pin (mode, speed, output type and pull-up/pull-down)
 */
void pin_function(PinName pin, int data)
{
 8003548:	b5f0      	push	{r4, r5, r6, r7, lr}
 800354a:	46d6      	mov	lr, sl
 800354c:	464f      	mov	r7, r9
 800354e:	4646      	mov	r6, r8
 8003550:	b5c0      	push	{r6, r7, lr}
 8003552:	0007      	movs	r7, r0
 8003554:	000e      	movs	r6, r1
    MBED_ASSERT(pin != (PinName)NC);

    // Get the pin informations
    uint32_t mode  = STM_PIN_FUNCTION(data);
 8003556:	2507      	movs	r5, #7
 8003558:	400d      	ands	r5, r1
    uint32_t afnum = STM_PIN_AFNUM(data);
 800355a:	120b      	asrs	r3, r1, #8
 800355c:	200f      	movs	r0, #15
 800355e:	4003      	ands	r3, r0
 8003560:	4698      	mov	r8, r3
    uint32_t port = STM_PORT(pin);
 8003562:	093b      	lsrs	r3, r7, #4
 8003564:	4018      	ands	r0, r3
    uint32_t ll_pin  = ll_pin_defines[STM_PIN(pin)];
 8003566:	230f      	movs	r3, #15
 8003568:	403b      	ands	r3, r7
 800356a:	009b      	lsls	r3, r3, #2
 800356c:	4a3a      	ldr	r2, [pc, #232]	; (8003658 <pin_function+0x110>)
 800356e:	589c      	ldr	r4, [r3, r2]
    uint32_t ll_mode = 0;

    // Enable GPIO clock
    GPIO_TypeDef *gpio = Set_GPIO_Clock(port);
 8003570:	f7ff ff06 	bl	8003380 <Set_GPIO_Clock>
  *         @arg @ref LL_GPIO_SPEED_FREQ_HIGH
  * @retval None
  */
__STATIC_INLINE void LL_GPIO_SetPinSpeed(GPIO_TypeDef *GPIOx, uint32_t Pin, uint32_t  Speed)
{
  MODIFY_REG(GPIOx->OSPEEDR, ((Pin * Pin) * GPIO_OSPEEDR_OSPEEDR0), ((Pin * Pin) * Speed));
 8003574:	6883      	ldr	r3, [r0, #8]
 8003576:	4699      	mov	r9, r3
 8003578:	0022      	movs	r2, r4
 800357a:	4362      	muls	r2, r4
 800357c:	0053      	lsls	r3, r2, #1
 800357e:	469a      	mov	sl, r3
 8003580:	4492      	add	sl, r2
 8003582:	4653      	mov	r3, sl
 8003584:	43d9      	mvns	r1, r3
 8003586:	468c      	mov	ip, r1
 8003588:	464b      	mov	r3, r9
 800358a:	400b      	ands	r3, r1
 800358c:	0019      	movs	r1, r3
 800358e:	4653      	mov	r3, sl
 8003590:	430b      	orrs	r3, r1
 8003592:	6083      	str	r3, [r0, #8]
        LL_GPIO_SetPinSpeed(gpio, ll_pin, LL_GPIO_SPEED_FREQ_HIGH);
#if defined (TARGET_STM32F1)
    }
#endif

    switch (mode) {
 8003594:	2d02      	cmp	r5, #2
 8003596:	d005      	beq.n	80035a4 <pin_function+0x5c>
 8003598:	2d03      	cmp	r5, #3
 800359a:	d027      	beq.n	80035ec <pin_function+0xa4>
 800359c:	2d01      	cmp	r5, #1
 800359e:	d025      	beq.n	80035ec <pin_function+0xa4>
    uint32_t ll_mode = 0;
 80035a0:	2100      	movs	r1, #0
 80035a2:	e024      	b.n	80035ee <pin_function+0xa6>
 80035a4:	230f      	movs	r3, #15
 80035a6:	401f      	ands	r7, r3
    }
}

static inline void stm_pin_SetAFPin(GPIO_TypeDef *gpio, PinName pin, uint32_t afnum)
{
    uint32_t ll_pin  = ll_pin_defines[STM_PIN(pin)];
 80035a8:	00b9      	lsls	r1, r7, #2
 80035aa:	4b2b      	ldr	r3, [pc, #172]	; (8003658 <pin_function+0x110>)
 80035ac:	58c9      	ldr	r1, [r1, r3]

    if (STM_PIN(pin) > 7) {
 80035ae:	2f07      	cmp	r7, #7
 80035b0:	d80d      	bhi.n	80035ce <pin_function+0x86>
  *         @arg @ref LL_GPIO_AF_7
  * @retval None
  */
__STATIC_INLINE void LL_GPIO_SetAFPin_0_7(GPIO_TypeDef *GPIOx, uint32_t Pin, uint32_t Alternate)
{
  MODIFY_REG(GPIOx->AFR[0], ((((Pin * Pin) * Pin) * Pin) * GPIO_AFRL_AFSEL0),
 80035b2:	6a07      	ldr	r7, [r0, #32]
 80035b4:	000b      	movs	r3, r1
 80035b6:	434b      	muls	r3, r1
 80035b8:	434b      	muls	r3, r1
 80035ba:	434b      	muls	r3, r1
 80035bc:	0119      	lsls	r1, r3, #4
 80035be:	1ac9      	subs	r1, r1, r3
 80035c0:	438f      	bics	r7, r1
 80035c2:	4641      	mov	r1, r8
 80035c4:	434b      	muls	r3, r1
 80035c6:	433b      	orrs	r3, r7
 80035c8:	6203      	str	r3, [r0, #32]
            break;
        case STM_PIN_OUTPUT:
            ll_mode = LL_GPIO_MODE_OUTPUT;
            break;
        case STM_PIN_ALTERNATE:
            ll_mode = LL_GPIO_MODE_ALTERNATE;
 80035ca:	0029      	movs	r1, r5
 80035cc:	e00f      	b.n	80035ee <pin_function+0xa6>
  *         @arg @ref LL_GPIO_AF_7
  * @retval None
  */
__STATIC_INLINE void LL_GPIO_SetAFPin_8_15(GPIO_TypeDef *GPIOx, uint32_t Pin, uint32_t Alternate)
{
  MODIFY_REG(GPIOx->AFR[1], (((((Pin >> 8U) * (Pin >> 8U)) * (Pin >> 8U)) * (Pin >> 8U)) * GPIO_AFRH_AFSEL8),
 80035ce:	6a47      	ldr	r7, [r0, #36]	; 0x24
 80035d0:	0a0b      	lsrs	r3, r1, #8
 80035d2:	0019      	movs	r1, r3
 80035d4:	4359      	muls	r1, r3
 80035d6:	4359      	muls	r1, r3
 80035d8:	434b      	muls	r3, r1
 80035da:	0119      	lsls	r1, r3, #4
 80035dc:	1ac9      	subs	r1, r1, r3
 80035de:	438f      	bics	r7, r1
 80035e0:	4641      	mov	r1, r8
 80035e2:	434b      	muls	r3, r1
 80035e4:	433b      	orrs	r3, r7
 80035e6:	6243      	str	r3, [r0, #36]	; 0x24
 80035e8:	0029      	movs	r1, r5
 80035ea:	e000      	b.n	80035ee <pin_function+0xa6>
            ll_mode = LL_GPIO_MODE_OUTPUT;
 80035ec:	0029      	movs	r1, r5
  MODIFY_REG(GPIOx->MODER, ((Pin * Pin) * GPIO_MODER_MODER0), ((Pin * Pin) * Mode));
 80035ee:	6803      	ldr	r3, [r0, #0]
 80035f0:	4667      	mov	r7, ip
 80035f2:	403b      	ands	r3, r7
 80035f4:	434a      	muls	r2, r1
 80035f6:	4313      	orrs	r3, r2
 80035f8:	6003      	str	r3, [r0, #0]
        LL_GPIO_DisablePinAnalogControl(gpio, ll_pin);
    }
#endif

    /*  For now by default use Speed HIGH for output or alt modes */
    if ((mode == STM_PIN_OUTPUT) || (mode == STM_PIN_ALTERNATE)) {
 80035fa:	3d01      	subs	r5, #1
 80035fc:	2d01      	cmp	r5, #1
 80035fe:	d90d      	bls.n	800361c <pin_function+0xd4>
        } else {
            LL_GPIO_SetPinOutputType(gpio, ll_pin, LL_GPIO_OUTPUT_PUSHPULL);
        }
    }

    stm_pin_PullConfig(gpio, ll_pin, STM_PIN_PUPD(data));
 8003600:	1136      	asrs	r6, r6, #4
 8003602:	2303      	movs	r3, #3
 8003604:	401e      	ands	r6, r3
    switch (pull_config) {
 8003606:	2e01      	cmp	r6, #1
 8003608:	d012      	beq.n	8003630 <pin_function+0xe8>
 800360a:	2e02      	cmp	r6, #2
 800360c:	d01c      	beq.n	8003648 <pin_function+0x100>
  MODIFY_REG(GPIOx->PUPDR, ((Pin * Pin) * GPIO_PUPDR_PUPDR0), ((Pin * Pin) * Pull));
 800360e:	68c3      	ldr	r3, [r0, #12]
 8003610:	4364      	muls	r4, r4
 8003612:	0062      	lsls	r2, r4, #1
 8003614:	1914      	adds	r4, r2, r4
 8003616:	43a3      	bics	r3, r4
 8003618:	60c3      	str	r3, [r0, #12]

    stm_pin_DisconnectDebug(pin);
}
 800361a:	e010      	b.n	800363e <pin_function+0xf6>
        if (STM_PIN_OD(data)) {
 800361c:	0733      	lsls	r3, r6, #28
 800361e:	d403      	bmi.n	8003628 <pin_function+0xe0>
  MODIFY_REG(GPIOx->OTYPER, PinMask, (PinMask * OutputType));
 8003620:	6843      	ldr	r3, [r0, #4]
 8003622:	43a3      	bics	r3, r4
 8003624:	6043      	str	r3, [r0, #4]
 8003626:	e7eb      	b.n	8003600 <pin_function+0xb8>
 8003628:	6843      	ldr	r3, [r0, #4]
 800362a:	4323      	orrs	r3, r4
 800362c:	6043      	str	r3, [r0, #4]
 800362e:	e7e7      	b.n	8003600 <pin_function+0xb8>
  MODIFY_REG(GPIOx->PUPDR, ((Pin * Pin) * GPIO_PUPDR_PUPDR0), ((Pin * Pin) * Pull));
 8003630:	68c3      	ldr	r3, [r0, #12]
 8003632:	4364      	muls	r4, r4
 8003634:	0062      	lsls	r2, r4, #1
 8003636:	1912      	adds	r2, r2, r4
 8003638:	4393      	bics	r3, r2
 800363a:	431c      	orrs	r4, r3
 800363c:	60c4      	str	r4, [r0, #12]
}
 800363e:	bc1c      	pop	{r2, r3, r4}
 8003640:	4690      	mov	r8, r2
 8003642:	4699      	mov	r9, r3
 8003644:	46a2      	mov	sl, r4
 8003646:	bdf0      	pop	{r4, r5, r6, r7, pc}
 8003648:	68c3      	ldr	r3, [r0, #12]
 800364a:	4364      	muls	r4, r4
 800364c:	0062      	lsls	r2, r4, #1
 800364e:	1914      	adds	r4, r2, r4
 8003650:	43a3      	bics	r3, r4
 8003652:	4313      	orrs	r3, r2
 8003654:	60c3      	str	r3, [r0, #12]
 8003656:	e7f2      	b.n	800363e <pin_function+0xf6>
 8003658:	08005a28 	.word	0x08005a28

0800365c <pin_mode>:

/**
 * Configure pin pull-up/pull-down
 */
void pin_mode(PinName pin, PinMode mode)
{
 800365c:	b5f0      	push	{r4, r5, r6, r7, lr}
 800365e:	46c6      	mov	lr, r8
 8003660:	b500      	push	{lr}
 8003662:	0003      	movs	r3, r0
 8003664:	000f      	movs	r7, r1
    MBED_ASSERT(pin != (PinName)NC);

    uint32_t port_index = STM_PORT(pin);
 8003666:	0902      	lsrs	r2, r0, #4
 8003668:	200f      	movs	r0, #15
 800366a:	4010      	ands	r0, r2
    uint32_t ll_pin  = ll_pin_defines[STM_PIN(pin)];
 800366c:	220f      	movs	r2, #15
 800366e:	4013      	ands	r3, r2
 8003670:	009b      	lsls	r3, r3, #2
 8003672:	4a1c      	ldr	r2, [pc, #112]	; (80036e4 <pin_mode+0x88>)
 8003674:	589b      	ldr	r3, [r3, r2]
 8003676:	4698      	mov	r8, r3
    // Enable GPIO clock
    GPIO_TypeDef *gpio = Set_GPIO_Clock(port_index);
 8003678:	f7ff fe82 	bl	8003380 <Set_GPIO_Clock>
 800367c:	0006      	movs	r6, r0
  return (uint32_t)(READ_BIT(GPIOx->MODER, ((Pin * Pin) * GPIO_MODER_MODER0)) / (Pin * Pin));
 800367e:	6800      	ldr	r0, [r0, #0]
 8003680:	4644      	mov	r4, r8
 8003682:	4364      	muls	r4, r4
 8003684:	0065      	lsls	r5, r4, #1
 8003686:	192d      	adds	r5, r5, r4
 8003688:	4028      	ands	r0, r5
 800368a:	0021      	movs	r1, r4
 800368c:	f7fc fd4e 	bl	800012c <__udivsi3>
    uint32_t function = LL_GPIO_GetPinMode(gpio, ll_pin);

    if ((function == LL_GPIO_MODE_OUTPUT) || (function == LL_GPIO_MODE_ALTERNATE)) {
 8003690:	3801      	subs	r0, #1
 8003692:	2801      	cmp	r0, #1
 8003694:	d90d      	bls.n	80036b2 <pin_mode+0x56>
        } else {
            LL_GPIO_SetPinOutputType(gpio, ll_pin, LL_GPIO_OUTPUT_PUSHPULL);
        }
    }

    if ((mode == OpenDrainPullUp) || (mode == PullUp)) {
 8003696:	2f03      	cmp	r7, #3
 8003698:	d019      	beq.n	80036ce <pin_mode+0x72>
 800369a:	2f01      	cmp	r7, #1
 800369c:	d017      	beq.n	80036ce <pin_mode+0x72>
        stm_pin_PullConfig(gpio, ll_pin, GPIO_PULLUP);
    } else if ((mode == OpenDrainPullDown) || (mode == PullDown)) {
 800369e:	2f05      	cmp	r7, #5
 80036a0:	d01a      	beq.n	80036d8 <pin_mode+0x7c>
 80036a2:	2f02      	cmp	r7, #2
 80036a4:	d018      	beq.n	80036d8 <pin_mode+0x7c>
  MODIFY_REG(GPIOx->PUPDR, ((Pin * Pin) * GPIO_PUPDR_PUPDR0), ((Pin * Pin) * Pull));
 80036a6:	68f3      	ldr	r3, [r6, #12]
 80036a8:	43ab      	bics	r3, r5
 80036aa:	60f3      	str	r3, [r6, #12]
        stm_pin_PullConfig(gpio, ll_pin, GPIO_PULLDOWN);
    } else {
        stm_pin_PullConfig(gpio, ll_pin, GPIO_NOPULL);
    }
}
 80036ac:	bc04      	pop	{r2}
 80036ae:	4690      	mov	r8, r2
 80036b0:	bdf0      	pop	{r4, r5, r6, r7, pc}
        if ((mode == OpenDrainNoPull) || (mode == OpenDrainPullUp) || (mode == OpenDrainPullDown)) {
 80036b2:	1efb      	subs	r3, r7, #3
 80036b4:	b2db      	uxtb	r3, r3
 80036b6:	2b02      	cmp	r3, #2
 80036b8:	d804      	bhi.n	80036c4 <pin_mode+0x68>
  MODIFY_REG(GPIOx->OTYPER, PinMask, (PinMask * OutputType));
 80036ba:	6873      	ldr	r3, [r6, #4]
 80036bc:	4642      	mov	r2, r8
 80036be:	431a      	orrs	r2, r3
 80036c0:	6072      	str	r2, [r6, #4]
 80036c2:	e7e8      	b.n	8003696 <pin_mode+0x3a>
 80036c4:	6873      	ldr	r3, [r6, #4]
 80036c6:	4642      	mov	r2, r8
 80036c8:	4393      	bics	r3, r2
 80036ca:	6073      	str	r3, [r6, #4]
 80036cc:	e7e3      	b.n	8003696 <pin_mode+0x3a>
  MODIFY_REG(GPIOx->PUPDR, ((Pin * Pin) * GPIO_PUPDR_PUPDR0), ((Pin * Pin) * Pull));
 80036ce:	68f3      	ldr	r3, [r6, #12]
 80036d0:	43ab      	bics	r3, r5
 80036d2:	431c      	orrs	r4, r3
 80036d4:	60f4      	str	r4, [r6, #12]
 80036d6:	e7e9      	b.n	80036ac <pin_mode+0x50>
 80036d8:	68f3      	ldr	r3, [r6, #12]
 80036da:	43ab      	bics	r3, r5
 80036dc:	0064      	lsls	r4, r4, #1
 80036de:	431c      	orrs	r4, r3
 80036e0:	60f4      	str	r4, [r6, #12]
 80036e2:	e7e3      	b.n	80036ac <pin_mode+0x50>
 80036e4:	08005a28 	.word	0x08005a28

080036e8 <serial_readable>:
 ******************************************************************************/

int serial_readable(serial_t *obj)
{
    struct serial_s *obj_s = SERIAL_S(obj);
    UART_HandleTypeDef *huart = &uart_handlers[obj_s->index];
 80036e8:	6842      	ldr	r2, [r0, #4]
    /*  To avoid a target blocking case, let's check for
     *  possible OVERRUN error and discard it
     */
    if (__HAL_UART_GET_FLAG(huart, UART_FLAG_ORE)) {
 80036ea:	00d3      	lsls	r3, r2, #3
 80036ec:	1a9b      	subs	r3, r3, r2
 80036ee:	0119      	lsls	r1, r3, #4
 80036f0:	4b08      	ldr	r3, [pc, #32]	; (8003714 <serial_readable+0x2c>)
 80036f2:	58cb      	ldr	r3, [r1, r3]
 80036f4:	69d9      	ldr	r1, [r3, #28]
 80036f6:	0709      	lsls	r1, r1, #28
 80036f8:	d501      	bpl.n	80036fe <serial_readable+0x16>
        __HAL_UART_CLEAR_OREFLAG(huart);
 80036fa:	2108      	movs	r1, #8
 80036fc:	6219      	str	r1, [r3, #32]
    }
    // Check if data is received
    return (__HAL_UART_GET_FLAG(huart, UART_FLAG_RXNE) != RESET) ? 1 : 0;
 80036fe:	00d3      	lsls	r3, r2, #3
 8003700:	1a9b      	subs	r3, r3, r2
 8003702:	011a      	lsls	r2, r3, #4
 8003704:	4b03      	ldr	r3, [pc, #12]	; (8003714 <serial_readable+0x2c>)
 8003706:	58d3      	ldr	r3, [r2, r3]
 8003708:	69db      	ldr	r3, [r3, #28]
 800370a:	2020      	movs	r0, #32
 800370c:	4018      	ands	r0, r3
 800370e:	1e43      	subs	r3, r0, #1
 8003710:	4198      	sbcs	r0, r3
}
 8003712:	4770      	bx	lr
 8003714:	20000abc 	.word	0x20000abc

08003718 <serial_writable>:

int serial_writable(serial_t *obj)
{
    struct serial_s *obj_s = SERIAL_S(obj);
    UART_HandleTypeDef *huart = &uart_handlers[obj_s->index];
 8003718:	6842      	ldr	r2, [r0, #4]

    // Check if data is transmitted
    return (__HAL_UART_GET_FLAG(huart, UART_FLAG_TXE) != RESET) ? 1 : 0;
 800371a:	00d3      	lsls	r3, r2, #3
 800371c:	1a9b      	subs	r3, r3, r2
 800371e:	011a      	lsls	r2, r3, #4
 8003720:	4b03      	ldr	r3, [pc, #12]	; (8003730 <serial_writable+0x18>)
 8003722:	58d3      	ldr	r3, [r2, r3]
 8003724:	69db      	ldr	r3, [r3, #28]
 8003726:	2080      	movs	r0, #128	; 0x80
 8003728:	4018      	ands	r0, r3
 800372a:	1e43      	subs	r3, r0, #1
 800372c:	4198      	sbcs	r0, r3
}
 800372e:	4770      	bx	lr
 8003730:	20000abc 	.word	0x20000abc

08003734 <init_uart>:
/******************************************************************************
 * UTILITY FUNCTIONS
 ******************************************************************************/

HAL_StatusTypeDef init_uart(serial_t *obj)
{
 8003734:	b570      	push	{r4, r5, r6, lr}
 8003736:	0003      	movs	r3, r0
    struct serial_s *obj_s = SERIAL_S(obj);
    UART_HandleTypeDef *huart = &uart_handlers[obj_s->index];
 8003738:	6841      	ldr	r1, [r0, #4]
 800373a:	00ca      	lsls	r2, r1, #3
 800373c:	1a54      	subs	r4, r2, r1
 800373e:	0120      	lsls	r0, r4, #4
 8003740:	4c1b      	ldr	r4, [pc, #108]	; (80037b0 <init_uart+0x7c>)
 8003742:	1900      	adds	r0, r0, r4
    huart->Instance = (USART_TypeDef *)(obj_s->uart);
 8003744:	1a52      	subs	r2, r2, r1
 8003746:	0115      	lsls	r5, r2, #4
 8003748:	681a      	ldr	r2, [r3, #0]
 800374a:	512a      	str	r2, [r5, r4]

    huart->Init.BaudRate     = obj_s->baudrate;
 800374c:	689a      	ldr	r2, [r3, #8]
 800374e:	6042      	str	r2, [r0, #4]
    huart->Init.WordLength   = obj_s->databits;
 8003750:	68da      	ldr	r2, [r3, #12]
 8003752:	6082      	str	r2, [r0, #8]
    huart->Init.StopBits     = obj_s->stopbits;
 8003754:	691a      	ldr	r2, [r3, #16]
 8003756:	60c2      	str	r2, [r0, #12]
    huart->Init.Parity       = obj_s->parity;
 8003758:	695a      	ldr	r2, [r3, #20]
 800375a:	6102      	str	r2, [r0, #16]
#if DEVICE_SERIAL_FC
    huart->Init.HwFlowCtl    = obj_s->hw_flow_ctl;
 800375c:	6a1a      	ldr	r2, [r3, #32]
 800375e:	6182      	str	r2, [r0, #24]
#else
    huart->Init.HwFlowCtl    = UART_HWCONTROL_NONE;
#endif
    huart->Init.OverSampling = UART_OVERSAMPLING_16;
 8003760:	2200      	movs	r2, #0
 8003762:	61c2      	str	r2, [r0, #28]
    huart->TxXferCount       = 0;
 8003764:	0004      	movs	r4, r0
 8003766:	3452      	adds	r4, #82	; 0x52
 8003768:	8022      	strh	r2, [r4, #0]
    huart->TxXferSize        = 0;
 800376a:	3c02      	subs	r4, #2
 800376c:	8022      	strh	r2, [r4, #0]
    huart->RxXferCount       = 0;
 800376e:	340a      	adds	r4, #10
 8003770:	8022      	strh	r2, [r4, #0]
    huart->RxXferSize        = 0;
 8003772:	3c02      	subs	r4, #2
 8003774:	8022      	strh	r2, [r4, #0]

    if (obj_s->pin_rx == NC) {
 8003776:	241a      	movs	r4, #26
 8003778:	5f1a      	ldrsh	r2, [r3, r4]
 800377a:	3201      	adds	r2, #1
 800377c:	d00d      	beq.n	800379a <init_uart+0x66>
        huart->Init.Mode = UART_MODE_TX;
    } else if (obj_s->pin_tx == NC) {
 800377e:	2218      	movs	r2, #24
 8003780:	5e9b      	ldrsh	r3, [r3, r2]
 8003782:	3301      	adds	r3, #1
 8003784:	d00c      	beq.n	80037a0 <init_uart+0x6c>
        huart->Init.Mode = UART_MODE_RX;
    } else {
        huart->Init.Mode = UART_MODE_TX_RX;
 8003786:	00cb      	lsls	r3, r1, #3
 8003788:	1a59      	subs	r1, r3, r1
 800378a:	010a      	lsls	r2, r1, #4
 800378c:	4b08      	ldr	r3, [pc, #32]	; (80037b0 <init_uart+0x7c>)
 800378e:	189b      	adds	r3, r3, r2
 8003790:	220c      	movs	r2, #12
 8003792:	615a      	str	r2, [r3, #20]
            HAL_UARTEx_DisableStopMode(huart);
        }
    }
#endif

    return HAL_UART_Init(huart);
 8003794:	f7ff fc4e 	bl	8003034 <HAL_UART_Init>
}
 8003798:	bd70      	pop	{r4, r5, r6, pc}
        huart->Init.Mode = UART_MODE_TX;
 800379a:	2208      	movs	r2, #8
 800379c:	6142      	str	r2, [r0, #20]
 800379e:	e7f9      	b.n	8003794 <init_uart+0x60>
        huart->Init.Mode = UART_MODE_RX;
 80037a0:	00cb      	lsls	r3, r1, #3
 80037a2:	1a59      	subs	r1, r3, r1
 80037a4:	010a      	lsls	r2, r1, #4
 80037a6:	4b02      	ldr	r3, [pc, #8]	; (80037b0 <init_uart+0x7c>)
 80037a8:	189b      	adds	r3, r3, r2
 80037aa:	2204      	movs	r2, #4
 80037ac:	615a      	str	r2, [r3, #20]
 80037ae:	e7f1      	b.n	8003794 <init_uart+0x60>
 80037b0:	20000abc 	.word	0x20000abc

080037b4 <serial_baud>:
{
 80037b4:	b510      	push	{r4, lr}
    obj_s->baudrate = baudrate;
 80037b6:	6081      	str	r1, [r0, #8]
    if (init_uart(obj) != HAL_OK) {
 80037b8:	f7ff ffbc 	bl	8003734 <init_uart>
}
 80037bc:	bd10      	pop	{r4, pc}
	...

080037c0 <get_uart_index>:
int8_t get_uart_index(UARTName uart_name)
{
    uint8_t index = 0;

#if defined(USART1_BASE)
    if (uart_name == UART_1) {
 80037c0:	4b0b      	ldr	r3, [pc, #44]	; (80037f0 <get_uart_index+0x30>)
 80037c2:	4298      	cmp	r0, r3
 80037c4:	d00a      	beq.n	80037dc <get_uart_index+0x1c>
    }
    index++;
#endif

#if defined(USART2_BASE)
    if (uart_name == UART_2) {
 80037c6:	4b0b      	ldr	r3, [pc, #44]	; (80037f4 <get_uart_index+0x34>)
 80037c8:	4298      	cmp	r0, r3
 80037ca:	d009      	beq.n	80037e0 <get_uart_index+0x20>
    }
    index++;
#endif

#if defined(USART3_BASE)
    if (uart_name == UART_3) {
 80037cc:	4b0a      	ldr	r3, [pc, #40]	; (80037f8 <get_uart_index+0x38>)
 80037ce:	4298      	cmp	r0, r3
 80037d0:	d008      	beq.n	80037e4 <get_uart_index+0x24>
    }
    index++;
#endif

#if defined(USART4_BASE)
    if (uart_name == UART_4) {
 80037d2:	4b0a      	ldr	r3, [pc, #40]	; (80037fc <get_uart_index+0x3c>)
 80037d4:	4298      	cmp	r0, r3
 80037d6:	d107      	bne.n	80037e8 <get_uart_index+0x28>
        return index;
 80037d8:	2003      	movs	r0, #3
    }
    index++;
#endif

    return -1;
}
 80037da:	4770      	bx	lr
        return index;
 80037dc:	2000      	movs	r0, #0
 80037de:	e7fc      	b.n	80037da <get_uart_index+0x1a>
        return index;
 80037e0:	2001      	movs	r0, #1
 80037e2:	e7fa      	b.n	80037da <get_uart_index+0x1a>
        return index;
 80037e4:	2002      	movs	r0, #2
 80037e6:	e7f8      	b.n	80037da <get_uart_index+0x1a>
    return -1;
 80037e8:	2001      	movs	r0, #1
 80037ea:	4240      	negs	r0, r0
 80037ec:	e7f5      	b.n	80037da <get_uart_index+0x1a>
 80037ee:	46c0      	nop			; (mov r8, r8)
 80037f0:	40013800 	.word	0x40013800
 80037f4:	40004400 	.word	0x40004400
 80037f8:	40004800 	.word	0x40004800
 80037fc:	40004c00 	.word	0x40004c00

08003800 <serial_init>:
{
 8003800:	b5f0      	push	{r4, r5, r6, r7, lr}
 8003802:	b085      	sub	sp, #20
 8003804:	0004      	movs	r4, r0
 8003806:	000d      	movs	r5, r1
 8003808:	0016      	movs	r6, r2
    UARTName uart_tx = (UARTName)pinmap_peripheral(tx, PinMap_UART_TX);
 800380a:	4948      	ldr	r1, [pc, #288]	; (800392c <serial_init+0x12c>)
 800380c:	0028      	movs	r0, r5
 800380e:	f7fd fc03 	bl	8001018 <pinmap_peripheral>
 8003812:	0007      	movs	r7, r0
    UARTName uart_rx = (UARTName)pinmap_peripheral(rx, PinMap_UART_RX);
 8003814:	4946      	ldr	r1, [pc, #280]	; (8003930 <serial_init+0x130>)
 8003816:	0030      	movs	r0, r6
 8003818:	f7fd fbfe 	bl	8001018 <pinmap_peripheral>
 800381c:	0001      	movs	r1, r0
    obj_s->uart = (UARTName)pinmap_merge(uart_tx, uart_rx);
 800381e:	0038      	movs	r0, r7
 8003820:	f7fd fbd4 	bl	8000fcc <pinmap_merge>
 8003824:	6020      	str	r0, [r4, #0]
    if ((tx == STDIO_UART_TX) || (rx == STDIO_UART_RX)) {
 8003826:	2d02      	cmp	r5, #2
 8003828:	d00e      	beq.n	8003848 <serial_init+0x48>
 800382a:	2e03      	cmp	r6, #3
 800382c:	d00e      	beq.n	800384c <serial_init+0x4c>
        if (uart_tx == pinmap_peripheral(STDIO_UART_TX, PinMap_UART_TX)) {
 800382e:	493f      	ldr	r1, [pc, #252]	; (800392c <serial_init+0x12c>)
 8003830:	2002      	movs	r0, #2
 8003832:	f7fd fbf1 	bl	8001018 <pinmap_peripheral>
 8003836:	4287      	cmp	r7, r0
 8003838:	d001      	beq.n	800383e <serial_init+0x3e>
    uint8_t stdio_config = 0;
 800383a:	2700      	movs	r7, #0
 800383c:	e007      	b.n	800384e <serial_init+0x4e>
            error("Error: new serial object is using same UART as STDIO");
 800383e:	483d      	ldr	r0, [pc, #244]	; (8003934 <serial_init+0x134>)
 8003840:	f7fe f94e 	bl	8001ae0 <error>
    uint8_t stdio_config = 0;
 8003844:	2700      	movs	r7, #0
 8003846:	e002      	b.n	800384e <serial_init+0x4e>
        stdio_config = 1;
 8003848:	2701      	movs	r7, #1
 800384a:	e000      	b.n	800384e <serial_init+0x4e>
 800384c:	2701      	movs	r7, #1
    if (obj_s->uart == UART_1) {
 800384e:	4b3a      	ldr	r3, [pc, #232]	; (8003938 <serial_init+0x138>)
 8003850:	6822      	ldr	r2, [r4, #0]
 8003852:	429a      	cmp	r2, r3
 8003854:	d034      	beq.n	80038c0 <serial_init+0xc0>
    if (obj_s->uart == UART_2) {
 8003856:	4b39      	ldr	r3, [pc, #228]	; (800393c <serial_init+0x13c>)
 8003858:	6822      	ldr	r2, [r4, #0]
 800385a:	429a      	cmp	r2, r3
 800385c:	d03b      	beq.n	80038d6 <serial_init+0xd6>
    if (obj_s->uart == UART_3) {
 800385e:	4b38      	ldr	r3, [pc, #224]	; (8003940 <serial_init+0x140>)
 8003860:	6822      	ldr	r2, [r4, #0]
 8003862:	429a      	cmp	r2, r3
 8003864:	d042      	beq.n	80038ec <serial_init+0xec>
    if (obj_s->uart == UART_4) {
 8003866:	4b37      	ldr	r3, [pc, #220]	; (8003944 <serial_init+0x144>)
 8003868:	6822      	ldr	r2, [r4, #0]
 800386a:	429a      	cmp	r2, r3
 800386c:	d049      	beq.n	8003902 <serial_init+0x102>
    obj_s->index = get_uart_index(obj_s->uart);
 800386e:	6820      	ldr	r0, [r4, #0]
 8003870:	f7ff ffa6 	bl	80037c0 <get_uart_index>
 8003874:	6060      	str	r0, [r4, #4]
    pinmap_pinout(tx, PinMap_UART_TX);
 8003876:	492d      	ldr	r1, [pc, #180]	; (800392c <serial_init+0x12c>)
 8003878:	0028      	movs	r0, r5
 800387a:	f7fd fb85 	bl	8000f88 <pinmap_pinout>
    pinmap_pinout(rx, PinMap_UART_RX);
 800387e:	492c      	ldr	r1, [pc, #176]	; (8003930 <serial_init+0x130>)
 8003880:	0030      	movs	r0, r6
 8003882:	f7fd fb81 	bl	8000f88 <pinmap_pinout>
    if (tx != NC) {
 8003886:	1c6b      	adds	r3, r5, #1
 8003888:	d003      	beq.n	8003892 <serial_init+0x92>
        pin_mode(tx, PullUp);
 800388a:	2101      	movs	r1, #1
 800388c:	0028      	movs	r0, r5
 800388e:	f7ff fee5 	bl	800365c <pin_mode>
    if (rx != NC) {
 8003892:	1c73      	adds	r3, r6, #1
 8003894:	d003      	beq.n	800389e <serial_init+0x9e>
        pin_mode(rx, PullUp);
 8003896:	2101      	movs	r1, #1
 8003898:	0030      	movs	r0, r6
 800389a:	f7ff fedf 	bl	800365c <pin_mode>
    obj_s->baudrate = 9600; // baudrate default value
 800389e:	2396      	movs	r3, #150	; 0x96
 80038a0:	019b      	lsls	r3, r3, #6
 80038a2:	60a3      	str	r3, [r4, #8]
    obj_s->databits = UART_WORDLENGTH_8B;
 80038a4:	2300      	movs	r3, #0
 80038a6:	60e3      	str	r3, [r4, #12]
    obj_s->stopbits = UART_STOPBITS_1;
 80038a8:	6123      	str	r3, [r4, #16]
    obj_s->parity   = UART_PARITY_NONE;
 80038aa:	6163      	str	r3, [r4, #20]
    obj_s->hw_flow_ctl = UART_HWCONTROL_NONE;
 80038ac:	6223      	str	r3, [r4, #32]
    obj_s->pin_tx = tx;
 80038ae:	8325      	strh	r5, [r4, #24]
    obj_s->pin_rx = rx;
 80038b0:	8366      	strh	r6, [r4, #26]
    init_uart(obj); /* init_uart will be called again in serial_baud function, so don't worry if init_uart returns HAL_ERROR */
 80038b2:	0020      	movs	r0, r4
 80038b4:	f7ff ff3e 	bl	8003734 <init_uart>
    if (stdio_config) {
 80038b8:	2f00      	cmp	r7, #0
 80038ba:	d12d      	bne.n	8003918 <serial_init+0x118>
}
 80038bc:	b005      	add	sp, #20
 80038be:	bdf0      	pop	{r4, r5, r6, r7, pc}
        __HAL_RCC_USART1_CLK_ENABLE();
 80038c0:	4a21      	ldr	r2, [pc, #132]	; (8003948 <serial_init+0x148>)
 80038c2:	6991      	ldr	r1, [r2, #24]
 80038c4:	2080      	movs	r0, #128	; 0x80
 80038c6:	01c0      	lsls	r0, r0, #7
 80038c8:	4301      	orrs	r1, r0
 80038ca:	6191      	str	r1, [r2, #24]
 80038cc:	6993      	ldr	r3, [r2, #24]
 80038ce:	4003      	ands	r3, r0
 80038d0:	9300      	str	r3, [sp, #0]
 80038d2:	9b00      	ldr	r3, [sp, #0]
 80038d4:	e7bf      	b.n	8003856 <serial_init+0x56>
        __HAL_RCC_USART2_CLK_ENABLE();
 80038d6:	4a1c      	ldr	r2, [pc, #112]	; (8003948 <serial_init+0x148>)
 80038d8:	69d1      	ldr	r1, [r2, #28]
 80038da:	2080      	movs	r0, #128	; 0x80
 80038dc:	0280      	lsls	r0, r0, #10
 80038de:	4301      	orrs	r1, r0
 80038e0:	61d1      	str	r1, [r2, #28]
 80038e2:	69d3      	ldr	r3, [r2, #28]
 80038e4:	4003      	ands	r3, r0
 80038e6:	9301      	str	r3, [sp, #4]
 80038e8:	9b01      	ldr	r3, [sp, #4]
 80038ea:	e7b8      	b.n	800385e <serial_init+0x5e>
        __HAL_RCC_USART3_CLK_ENABLE();
 80038ec:	4a16      	ldr	r2, [pc, #88]	; (8003948 <serial_init+0x148>)
 80038ee:	69d1      	ldr	r1, [r2, #28]
 80038f0:	2080      	movs	r0, #128	; 0x80
 80038f2:	02c0      	lsls	r0, r0, #11
 80038f4:	4301      	orrs	r1, r0
 80038f6:	61d1      	str	r1, [r2, #28]
 80038f8:	69d3      	ldr	r3, [r2, #28]
 80038fa:	4003      	ands	r3, r0
 80038fc:	9302      	str	r3, [sp, #8]
 80038fe:	9b02      	ldr	r3, [sp, #8]
 8003900:	e7b1      	b.n	8003866 <serial_init+0x66>
        __HAL_RCC_USART4_CLK_ENABLE();
 8003902:	4a11      	ldr	r2, [pc, #68]	; (8003948 <serial_init+0x148>)
 8003904:	69d1      	ldr	r1, [r2, #28]
 8003906:	2080      	movs	r0, #128	; 0x80
 8003908:	0300      	lsls	r0, r0, #12
 800390a:	4301      	orrs	r1, r0
 800390c:	61d1      	str	r1, [r2, #28]
 800390e:	69d3      	ldr	r3, [r2, #28]
 8003910:	4003      	ands	r3, r0
 8003912:	9303      	str	r3, [sp, #12]
 8003914:	9b03      	ldr	r3, [sp, #12]
 8003916:	e7aa      	b.n	800386e <serial_init+0x6e>
        stdio_uart_inited = 1;
 8003918:	2201      	movs	r2, #1
 800391a:	4b0c      	ldr	r3, [pc, #48]	; (800394c <serial_init+0x14c>)
 800391c:	601a      	str	r2, [r3, #0]
        memcpy(&stdio_uart, obj, sizeof(serial_t));
 800391e:	324b      	adds	r2, #75	; 0x4b
 8003920:	0021      	movs	r1, r4
 8003922:	480b      	ldr	r0, [pc, #44]	; (8003950 <serial_init+0x150>)
 8003924:	f001 f9ca 	bl	8004cbc <memcpy>
}
 8003928:	e7c8      	b.n	80038bc <serial_init+0xbc>
 800392a:	46c0      	nop			; (mov r8, r8)
 800392c:	08005928 	.word	0x08005928
 8003930:	080058b0 	.word	0x080058b0
 8003934:	08005a68 	.word	0x08005a68
 8003938:	40013800 	.word	0x40013800
 800393c:	40004400 	.word	0x40004400
 8003940:	40004800 	.word	0x40004800
 8003944:	40004c00 	.word	0x40004c00
 8003948:	40021000 	.word	0x40021000
 800394c:	20000a84 	.word	0x20000a84
 8003950:	20000c7c 	.word	0x20000c7c

08003954 <timer_update_irq_handler>:
{
#else
void timer_irq_handler(void)
{
#endif
    TimMasterHandle.Instance = TIM_MST;
 8003954:	4a01      	ldr	r2, [pc, #4]	; (800395c <timer_update_irq_handler+0x8>)
 8003956:	4b02      	ldr	r3, [pc, #8]	; (8003960 <timer_update_irq_handler+0xc>)
 8003958:	601a      	str	r2, [r3, #0]

#if defined(TARGET_STM32F0)
} // end timer_update_irq_handler function
 800395a:	4770      	bx	lr
 800395c:	40012c00 	.word	0x40012c00
 8003960:	20000ccc 	.word	0x20000ccc

08003964 <timer_oc_irq_handler>:

void timer_oc_irq_handler(void)
{
 8003964:	b510      	push	{r4, lr}
    TimMasterHandle.Instance = TIM_MST;
 8003966:	4b09      	ldr	r3, [pc, #36]	; (800398c <timer_oc_irq_handler+0x28>)
 8003968:	4a09      	ldr	r2, [pc, #36]	; (8003990 <timer_oc_irq_handler+0x2c>)
 800396a:	6013      	str	r3, [r2, #0]
#endif
    if (__HAL_TIM_GET_FLAG(&TimMasterHandle, TIM_FLAG_CC1) == SET) {
 800396c:	691b      	ldr	r3, [r3, #16]
 800396e:	079b      	lsls	r3, r3, #30
 8003970:	d503      	bpl.n	800397a <timer_oc_irq_handler+0x16>
        if (__HAL_TIM_GET_IT_SOURCE(&TimMasterHandle, TIM_IT_CC1) == SET) {
 8003972:	4b06      	ldr	r3, [pc, #24]	; (800398c <timer_oc_irq_handler+0x28>)
 8003974:	68db      	ldr	r3, [r3, #12]
 8003976:	079b      	lsls	r3, r3, #30
 8003978:	d400      	bmi.n	800397c <timer_oc_irq_handler+0x18>
            __HAL_TIM_CLEAR_IT(&TimMasterHandle, TIM_IT_CC1);
            us_ticker_irq_handler();
        }
    }
}
 800397a:	bd10      	pop	{r4, pc}
            __HAL_TIM_CLEAR_IT(&TimMasterHandle, TIM_IT_CC1);
 800397c:	2203      	movs	r2, #3
 800397e:	4252      	negs	r2, r2
 8003980:	4b02      	ldr	r3, [pc, #8]	; (800398c <timer_oc_irq_handler+0x28>)
 8003982:	611a      	str	r2, [r3, #16]
            us_ticker_irq_handler();
 8003984:	f7fd fe10 	bl	80015a8 <us_ticker_irq_handler>
}
 8003988:	e7f7      	b.n	800397a <timer_oc_irq_handler+0x16>
 800398a:	46c0      	nop			; (mov r8, r8)
 800398c:	40012c00 	.word	0x40012c00
 8003990:	20000ccc 	.word	0x20000ccc

08003994 <us_ticker_get_info>:
}
 8003994:	4800      	ldr	r0, [pc, #0]	; (8003998 <us_ticker_get_info+0x4>)
 8003996:	4770      	bx	lr
 8003998:	08005aa0 	.word	0x08005aa0

0800399c <init_16bit_timer>:

void init_16bit_timer(void)
{
 800399c:	b5f0      	push	{r4, r5, r6, r7, lr}
 800399e:	b083      	sub	sp, #12
    // Enable timer clock
    TIM_MST_RCC;
 80039a0:	4b2a      	ldr	r3, [pc, #168]	; (8003a4c <init_16bit_timer+0xb0>)
 80039a2:	6999      	ldr	r1, [r3, #24]
 80039a4:	2280      	movs	r2, #128	; 0x80
 80039a6:	0112      	lsls	r2, r2, #4
 80039a8:	4311      	orrs	r1, r2
 80039aa:	6199      	str	r1, [r3, #24]
 80039ac:	6999      	ldr	r1, [r3, #24]
 80039ae:	4011      	ands	r1, r2
 80039b0:	9101      	str	r1, [sp, #4]
 80039b2:	9901      	ldr	r1, [sp, #4]

    // Reset timer
    TIM_MST_RESET_ON;
 80039b4:	68d9      	ldr	r1, [r3, #12]
 80039b6:	430a      	orrs	r2, r1
 80039b8:	60da      	str	r2, [r3, #12]
    TIM_MST_RESET_OFF;
 80039ba:	68da      	ldr	r2, [r3, #12]
 80039bc:	4924      	ldr	r1, [pc, #144]	; (8003a50 <init_16bit_timer+0xb4>)
 80039be:	400a      	ands	r2, r1
 80039c0:	60da      	str	r2, [r3, #12]

    // Update the SystemCoreClock variable
    SystemCoreClockUpdate();
 80039c2:	f7ff fb6f 	bl	80030a4 <SystemCoreClockUpdate>

    // Configure time base
    TimMasterHandle.Instance           = TIM_MST;
 80039c6:	4c23      	ldr	r4, [pc, #140]	; (8003a54 <init_16bit_timer+0xb8>)
 80039c8:	4b23      	ldr	r3, [pc, #140]	; (8003a58 <init_16bit_timer+0xbc>)
 80039ca:	6023      	str	r3, [r4, #0]
    TimMasterHandle.Init.Period        = 0xFFFF;
 80039cc:	4b23      	ldr	r3, [pc, #140]	; (8003a5c <init_16bit_timer+0xc0>)
 80039ce:	60e3      	str	r3, [r4, #12]
    TimMasterHandle.Init.Prescaler     = (uint32_t)(SystemCoreClock / 1000000) - 1; // 1 us tick
 80039d0:	4b23      	ldr	r3, [pc, #140]	; (8003a60 <init_16bit_timer+0xc4>)
 80039d2:	6818      	ldr	r0, [r3, #0]
 80039d4:	4923      	ldr	r1, [pc, #140]	; (8003a64 <init_16bit_timer+0xc8>)
 80039d6:	f7fc fba9 	bl	800012c <__udivsi3>
 80039da:	3801      	subs	r0, #1
 80039dc:	6060      	str	r0, [r4, #4]
    TimMasterHandle.Init.ClockDivision = 0;
 80039de:	2500      	movs	r5, #0
 80039e0:	6125      	str	r5, [r4, #16]
    TimMasterHandle.Init.CounterMode   = TIM_COUNTERMODE_UP;
 80039e2:	60a5      	str	r5, [r4, #8]
#if !defined(TARGET_STM32L0) && !defined(TARGET_STM32L1)
    TimMasterHandle.Init.RepetitionCounter = 0;
 80039e4:	6165      	str	r5, [r4, #20]
#endif
#ifdef TIM_AUTORELOAD_PRELOAD_DISABLE
    TimMasterHandle.Init.AutoReloadPreload = TIM_AUTORELOAD_PRELOAD_DISABLE;
 80039e6:	61a5      	str	r5, [r4, #24]
#endif
    HAL_TIM_Base_Init(&TimMasterHandle);
 80039e8:	0020      	movs	r0, r4
 80039ea:	f7ff f965 	bl	8002cb8 <HAL_TIM_Base_Init>

    // Configure output compare channel 1 for mbed timeout (enabled later when used)
    HAL_TIM_OC_Start(&TimMasterHandle, TIM_CHANNEL_1);
 80039ee:	2100      	movs	r1, #0
 80039f0:	0020      	movs	r0, r4
 80039f2:	f7ff f987 	bl	8002d04 <HAL_TIM_OC_Start>

    // Output compare channel 1 interrupt for mbed timeout
#if defined(TARGET_STM32F0)
    NVIC_SetVector(TIM_MST_UP_IRQ, (uint32_t)timer_update_irq_handler);
 80039f6:	491c      	ldr	r1, [pc, #112]	; (8003a68 <init_16bit_timer+0xcc>)
 80039f8:	200d      	movs	r0, #13
 80039fa:	f7fe fce9 	bl	80023d0 <NVIC_SetVector>
    NVIC->ISER[0U] = (uint32_t)(1UL << (((uint32_t)IRQn) & 0x1FUL));
 80039fe:	4e1b      	ldr	r6, [pc, #108]	; (8003a6c <init_16bit_timer+0xd0>)
 8003a00:	2380      	movs	r3, #128	; 0x80
 8003a02:	019b      	lsls	r3, r3, #6
 8003a04:	6033      	str	r3, [r6, #0]
 */
__STATIC_INLINE void __NVIC_SetPriority(IRQn_Type IRQn, uint32_t priority)
{
  if ((int32_t)(IRQn) >= 0)
  {
    NVIC->IP[_IP_IDX(IRQn)]  = ((uint32_t)(NVIC->IP[_IP_IDX(IRQn)]  & ~(0xFFUL << _BIT_SHIFT(IRQn))) |
 8003a06:	27c3      	movs	r7, #195	; 0xc3
 8003a08:	00bf      	lsls	r7, r7, #2
 8003a0a:	59f3      	ldr	r3, [r6, r7]
 8003a0c:	4a18      	ldr	r2, [pc, #96]	; (8003a70 <init_16bit_timer+0xd4>)
 8003a0e:	4013      	ands	r3, r2
 8003a10:	51f3      	str	r3, [r6, r7]
    NVIC_EnableIRQ(TIM_MST_UP_IRQ);
    NVIC_SetPriority(TIM_MST_UP_IRQ, 0);
    NVIC_SetVector(TIM_MST_OC_IRQ, (uint32_t)timer_oc_irq_handler);
 8003a12:	4918      	ldr	r1, [pc, #96]	; (8003a74 <init_16bit_timer+0xd8>)
 8003a14:	200e      	movs	r0, #14
 8003a16:	f7fe fcdb 	bl	80023d0 <NVIC_SetVector>
    NVIC->ISER[0U] = (uint32_t)(1UL << (((uint32_t)IRQn) & 0x1FUL));
 8003a1a:	2380      	movs	r3, #128	; 0x80
 8003a1c:	01db      	lsls	r3, r3, #7
 8003a1e:	6033      	str	r3, [r6, #0]
    NVIC->IP[_IP_IDX(IRQn)]  = ((uint32_t)(NVIC->IP[_IP_IDX(IRQn)]  & ~(0xFFUL << _BIT_SHIFT(IRQn))) |
 8003a20:	59f3      	ldr	r3, [r6, r7]
 8003a22:	4a15      	ldr	r2, [pc, #84]	; (8003a78 <init_16bit_timer+0xdc>)
 8003a24:	401a      	ands	r2, r3
 8003a26:	2380      	movs	r3, #128	; 0x80
 8003a28:	03db      	lsls	r3, r3, #15
 8003a2a:	4313      	orrs	r3, r2
 8003a2c:	51f3      	str	r3, [r6, r7]
    NVIC_SetVector(TIM_MST_IRQ, (uint32_t)timer_irq_handler);
    NVIC_EnableIRQ(TIM_MST_IRQ);
#endif

    // Enable timer
    HAL_TIM_Base_Start(&TimMasterHandle);
 8003a2e:	0020      	movs	r0, r4
 8003a30:	f7ff f8eb 	bl	8002c0a <HAL_TIM_Base_Start>
    // Define the FREEZE_TIMER_ON_DEBUG macro in mbed_app.json for example
#if !defined(NDEBUG) && defined(FREEZE_TIMER_ON_DEBUG) && defined(TIM_MST_DBGMCU_FREEZE)
    TIM_MST_DBGMCU_FREEZE;
#endif

    __HAL_TIM_DISABLE_IT(&TimMasterHandle, TIM_IT_CC1);
 8003a34:	6822      	ldr	r2, [r4, #0]
 8003a36:	68d3      	ldr	r3, [r2, #12]
 8003a38:	2102      	movs	r1, #2
 8003a3a:	438b      	bics	r3, r1
 8003a3c:	60d3      	str	r3, [r2, #12]

    // Used by HAL_GetTick()
    prev_time = 0;
 8003a3e:	4b0f      	ldr	r3, [pc, #60]	; (8003a7c <init_16bit_timer+0xe0>)
 8003a40:	601d      	str	r5, [r3, #0]
    elapsed_time = 0;
 8003a42:	4b0f      	ldr	r3, [pc, #60]	; (8003a80 <init_16bit_timer+0xe4>)
 8003a44:	601d      	str	r5, [r3, #0]
}
 8003a46:	b003      	add	sp, #12
 8003a48:	bdf0      	pop	{r4, r5, r6, r7, pc}
 8003a4a:	46c0      	nop			; (mov r8, r8)
 8003a4c:	40021000 	.word	0x40021000
 8003a50:	fffff7ff 	.word	0xfffff7ff
 8003a54:	20000ccc 	.word	0x20000ccc
 8003a58:	40012c00 	.word	0x40012c00
 8003a5c:	0000ffff 	.word	0x0000ffff
 8003a60:	200001cc 	.word	0x200001cc
 8003a64:	000f4240 	.word	0x000f4240
 8003a68:	08003955 	.word	0x08003955
 8003a6c:	e000e100 	.word	0xe000e100
 8003a70:	ffff00ff 	.word	0xffff00ff
 8003a74:	08003965 	.word	0x08003965
 8003a78:	ff00ffff 	.word	0xff00ffff
 8003a7c:	20000a7c 	.word	0x20000a7c
 8003a80:	20000a78 	.word	0x20000a78

08003a84 <us_ticker_init>:
#endif // 16-bit/32-bit timer

void us_ticker_init(void)
{
    // Timer is already initialized in HAL_InitTick()
    __HAL_TIM_DISABLE_IT(&TimMasterHandle, TIM_IT_CC1);
 8003a84:	4b03      	ldr	r3, [pc, #12]	; (8003a94 <us_ticker_init+0x10>)
 8003a86:	681a      	ldr	r2, [r3, #0]
 8003a88:	68d3      	ldr	r3, [r2, #12]
 8003a8a:	2102      	movs	r1, #2
 8003a8c:	438b      	bics	r3, r1
 8003a8e:	60d3      	str	r3, [r2, #12]
}
 8003a90:	4770      	bx	lr
 8003a92:	46c0      	nop			; (mov r8, r8)
 8003a94:	20000ccc 	.word	0x20000ccc

08003a98 <us_ticker_read>:

uint32_t us_ticker_read()
{
    return TIM_MST->CNT;
 8003a98:	4b01      	ldr	r3, [pc, #4]	; (8003aa0 <us_ticker_read+0x8>)
 8003a9a:	6a58      	ldr	r0, [r3, #36]	; 0x24
}
 8003a9c:	4770      	bx	lr
 8003a9e:	46c0      	nop			; (mov r8, r8)
 8003aa0:	40012c00 	.word	0x40012c00

08003aa4 <us_ticker_set_interrupt>:
void us_ticker_set_interrupt(timestamp_t timestamp)
{
    // NOTE: This function must be called with interrupts disabled to keep our
    //       timer interrupt setup atomic
    // Set new output compare value
    __HAL_TIM_SET_COMPARE(&TimMasterHandle, TIM_CHANNEL_1, (uint32_t)timestamp);
 8003aa4:	4b05      	ldr	r3, [pc, #20]	; (8003abc <us_ticker_set_interrupt+0x18>)
 8003aa6:	681b      	ldr	r3, [r3, #0]
 8003aa8:	6358      	str	r0, [r3, #52]	; 0x34
    // Ensure the compare event starts clear
    __HAL_TIM_CLEAR_FLAG(&TimMasterHandle, TIM_FLAG_CC1);
 8003aaa:	2203      	movs	r2, #3
 8003aac:	4252      	negs	r2, r2
 8003aae:	611a      	str	r2, [r3, #16]
    // Enable IT
    __HAL_TIM_ENABLE_IT(&TimMasterHandle, TIM_IT_CC1);
 8003ab0:	68da      	ldr	r2, [r3, #12]
 8003ab2:	2102      	movs	r1, #2
 8003ab4:	430a      	orrs	r2, r1
 8003ab6:	60da      	str	r2, [r3, #12]
}
 8003ab8:	4770      	bx	lr
 8003aba:	46c0      	nop			; (mov r8, r8)
 8003abc:	20000ccc 	.word	0x20000ccc

08003ac0 <us_ticker_fire_interrupt>:

void us_ticker_fire_interrupt(void)
{
    __HAL_TIM_CLEAR_FLAG(&TimMasterHandle, TIM_FLAG_CC1);
 8003ac0:	4b06      	ldr	r3, [pc, #24]	; (8003adc <us_ticker_fire_interrupt+0x1c>)
 8003ac2:	681b      	ldr	r3, [r3, #0]
 8003ac4:	2203      	movs	r2, #3
 8003ac6:	4252      	negs	r2, r2
 8003ac8:	611a      	str	r2, [r3, #16]
  * @param  TIMx Timer instance
  * @retval None
  */
__STATIC_INLINE void LL_TIM_GenerateEvent_CC1(TIM_TypeDef *TIMx)
{
  SET_BIT(TIMx->EGR, TIM_EGR_CC1G);
 8003aca:	6959      	ldr	r1, [r3, #20]
 8003acc:	2002      	movs	r0, #2
 8003ace:	4301      	orrs	r1, r0
 8003ad0:	6159      	str	r1, [r3, #20]
    LL_TIM_GenerateEvent_CC1(TimMasterHandle.Instance);
    __HAL_TIM_ENABLE_IT(&TimMasterHandle, TIM_IT_CC1);
 8003ad2:	68da      	ldr	r2, [r3, #12]
 8003ad4:	4302      	orrs	r2, r0
 8003ad6:	60da      	str	r2, [r3, #12]
}
 8003ad8:	4770      	bx	lr
 8003ada:	46c0      	nop			; (mov r8, r8)
 8003adc:	20000ccc 	.word	0x20000ccc

08003ae0 <us_ticker_disable_interrupt>:

void us_ticker_disable_interrupt(void)
{
    __HAL_TIM_DISABLE_IT(&TimMasterHandle, TIM_IT_CC1);
 8003ae0:	4b03      	ldr	r3, [pc, #12]	; (8003af0 <us_ticker_disable_interrupt+0x10>)
 8003ae2:	681a      	ldr	r2, [r3, #0]
 8003ae4:	68d3      	ldr	r3, [r2, #12]
 8003ae6:	2102      	movs	r1, #2
 8003ae8:	438b      	bics	r3, r1
 8003aea:	60d3      	str	r3, [r2, #12]
}
 8003aec:	4770      	bx	lr
 8003aee:	46c0      	nop			; (mov r8, r8)
 8003af0:	20000ccc 	.word	0x20000ccc

08003af4 <us_ticker_clear_interrupt>:

/* NOTE: must be called with interrupts disabled! */
void us_ticker_clear_interrupt(void)
{
    __HAL_TIM_CLEAR_FLAG(&TimMasterHandle, TIM_FLAG_CC1);
 8003af4:	4b02      	ldr	r3, [pc, #8]	; (8003b00 <us_ticker_clear_interrupt+0xc>)
 8003af6:	681b      	ldr	r3, [r3, #0]
 8003af8:	2203      	movs	r2, #3
 8003afa:	4252      	negs	r2, r2
 8003afc:	611a      	str	r2, [r3, #16]
}
 8003afe:	4770      	bx	lr
 8003b00:	20000ccc 	.word	0x20000ccc

08003b04 <__errno>:
 8003b04:	4b01      	ldr	r3, [pc, #4]	; (8003b0c <__errno+0x8>)
 8003b06:	6818      	ldr	r0, [r3, #0]
 8003b08:	4770      	bx	lr
 8003b0a:	46c0      	nop			; (mov r8, r8)
 8003b0c:	200001d0 	.word	0x200001d0

08003b10 <exit>:
 8003b10:	b510      	push	{r4, lr}
 8003b12:	2100      	movs	r1, #0
 8003b14:	0004      	movs	r4, r0
 8003b16:	f001 fc63 	bl	80053e0 <__call_exitprocs>
 8003b1a:	4b04      	ldr	r3, [pc, #16]	; (8003b2c <exit+0x1c>)
 8003b1c:	6818      	ldr	r0, [r3, #0]
 8003b1e:	6a83      	ldr	r3, [r0, #40]	; 0x28
 8003b20:	2b00      	cmp	r3, #0
 8003b22:	d000      	beq.n	8003b26 <exit+0x16>
 8003b24:	4798      	blx	r3
 8003b26:	0020      	movs	r0, r4
 8003b28:	f7fe fb9a 	bl	8002260 <_exit>
 8003b2c:	08005b08 	.word	0x08005b08

08003b30 <_fclose_r>:
 8003b30:	b570      	push	{r4, r5, r6, lr}
 8003b32:	0005      	movs	r5, r0
 8003b34:	1e0c      	subs	r4, r1, #0
 8003b36:	d102      	bne.n	8003b3e <_fclose_r+0xe>
 8003b38:	2600      	movs	r6, #0
 8003b3a:	0030      	movs	r0, r6
 8003b3c:	bd70      	pop	{r4, r5, r6, pc}
 8003b3e:	2800      	cmp	r0, #0
 8003b40:	d004      	beq.n	8003b4c <_fclose_r+0x1c>
 8003b42:	6983      	ldr	r3, [r0, #24]
 8003b44:	2b00      	cmp	r3, #0
 8003b46:	d101      	bne.n	8003b4c <_fclose_r+0x1c>
 8003b48:	f000 fa08 	bl	8003f5c <__sinit>
 8003b4c:	4b2e      	ldr	r3, [pc, #184]	; (8003c08 <_fclose_r+0xd8>)
 8003b4e:	429c      	cmp	r4, r3
 8003b50:	d115      	bne.n	8003b7e <_fclose_r+0x4e>
 8003b52:	686c      	ldr	r4, [r5, #4]
 8003b54:	6e63      	ldr	r3, [r4, #100]	; 0x64
 8003b56:	07db      	lsls	r3, r3, #31
 8003b58:	d405      	bmi.n	8003b66 <_fclose_r+0x36>
 8003b5a:	89a3      	ldrh	r3, [r4, #12]
 8003b5c:	059b      	lsls	r3, r3, #22
 8003b5e:	d402      	bmi.n	8003b66 <_fclose_r+0x36>
 8003b60:	6da0      	ldr	r0, [r4, #88]	; 0x58
 8003b62:	f000 fe1d 	bl	80047a0 <__retarget_lock_acquire_recursive>
 8003b66:	220c      	movs	r2, #12
 8003b68:	5ea3      	ldrsh	r3, [r4, r2]
 8003b6a:	2b00      	cmp	r3, #0
 8003b6c:	d111      	bne.n	8003b92 <_fclose_r+0x62>
 8003b6e:	2601      	movs	r6, #1
 8003b70:	6e63      	ldr	r3, [r4, #100]	; 0x64
 8003b72:	401e      	ands	r6, r3
 8003b74:	d1e0      	bne.n	8003b38 <_fclose_r+0x8>
 8003b76:	6da0      	ldr	r0, [r4, #88]	; 0x58
 8003b78:	f000 fe13 	bl	80047a2 <__retarget_lock_release_recursive>
 8003b7c:	e7dd      	b.n	8003b3a <_fclose_r+0xa>
 8003b7e:	4b23      	ldr	r3, [pc, #140]	; (8003c0c <_fclose_r+0xdc>)
 8003b80:	429c      	cmp	r4, r3
 8003b82:	d101      	bne.n	8003b88 <_fclose_r+0x58>
 8003b84:	68ac      	ldr	r4, [r5, #8]
 8003b86:	e7e5      	b.n	8003b54 <_fclose_r+0x24>
 8003b88:	4b21      	ldr	r3, [pc, #132]	; (8003c10 <_fclose_r+0xe0>)
 8003b8a:	429c      	cmp	r4, r3
 8003b8c:	d1e2      	bne.n	8003b54 <_fclose_r+0x24>
 8003b8e:	68ec      	ldr	r4, [r5, #12]
 8003b90:	e7e0      	b.n	8003b54 <_fclose_r+0x24>
 8003b92:	0021      	movs	r1, r4
 8003b94:	0028      	movs	r0, r5
 8003b96:	f000 f847 	bl	8003c28 <__sflush_r>
 8003b9a:	6b23      	ldr	r3, [r4, #48]	; 0x30
 8003b9c:	0006      	movs	r6, r0
 8003b9e:	2b00      	cmp	r3, #0
 8003ba0:	d006      	beq.n	8003bb0 <_fclose_r+0x80>
 8003ba2:	6a21      	ldr	r1, [r4, #32]
 8003ba4:	0028      	movs	r0, r5
 8003ba6:	4798      	blx	r3
 8003ba8:	2800      	cmp	r0, #0
 8003baa:	da01      	bge.n	8003bb0 <_fclose_r+0x80>
 8003bac:	2601      	movs	r6, #1
 8003bae:	4276      	negs	r6, r6
 8003bb0:	89a3      	ldrh	r3, [r4, #12]
 8003bb2:	061b      	lsls	r3, r3, #24
 8003bb4:	d503      	bpl.n	8003bbe <_fclose_r+0x8e>
 8003bb6:	6921      	ldr	r1, [r4, #16]
 8003bb8:	0028      	movs	r0, r5
 8003bba:	f000 fb45 	bl	8004248 <_free_r>
 8003bbe:	6b61      	ldr	r1, [r4, #52]	; 0x34
 8003bc0:	2900      	cmp	r1, #0
 8003bc2:	d008      	beq.n	8003bd6 <_fclose_r+0xa6>
 8003bc4:	0023      	movs	r3, r4
 8003bc6:	3344      	adds	r3, #68	; 0x44
 8003bc8:	4299      	cmp	r1, r3
 8003bca:	d002      	beq.n	8003bd2 <_fclose_r+0xa2>
 8003bcc:	0028      	movs	r0, r5
 8003bce:	f000 fb3b 	bl	8004248 <_free_r>
 8003bd2:	2300      	movs	r3, #0
 8003bd4:	6363      	str	r3, [r4, #52]	; 0x34
 8003bd6:	6ca1      	ldr	r1, [r4, #72]	; 0x48
 8003bd8:	2900      	cmp	r1, #0
 8003bda:	d004      	beq.n	8003be6 <_fclose_r+0xb6>
 8003bdc:	0028      	movs	r0, r5
 8003bde:	f000 fb33 	bl	8004248 <_free_r>
 8003be2:	2300      	movs	r3, #0
 8003be4:	64a3      	str	r3, [r4, #72]	; 0x48
 8003be6:	f000 f999 	bl	8003f1c <__sfp_lock_acquire>
 8003bea:	2300      	movs	r3, #0
 8003bec:	81a3      	strh	r3, [r4, #12]
 8003bee:	6e63      	ldr	r3, [r4, #100]	; 0x64
 8003bf0:	07db      	lsls	r3, r3, #31
 8003bf2:	d402      	bmi.n	8003bfa <_fclose_r+0xca>
 8003bf4:	6da0      	ldr	r0, [r4, #88]	; 0x58
 8003bf6:	f000 fdd4 	bl	80047a2 <__retarget_lock_release_recursive>
 8003bfa:	6da0      	ldr	r0, [r4, #88]	; 0x58
 8003bfc:	f000 fdcf 	bl	800479e <__retarget_lock_close_recursive>
 8003c00:	f000 f994 	bl	8003f2c <__sfp_lock_release>
 8003c04:	e799      	b.n	8003b3a <_fclose_r+0xa>
 8003c06:	46c0      	nop			; (mov r8, r8)
 8003c08:	08005ac8 	.word	0x08005ac8
 8003c0c:	08005ae8 	.word	0x08005ae8
 8003c10:	08005aa8 	.word	0x08005aa8

08003c14 <fclose>:
 8003c14:	b510      	push	{r4, lr}
 8003c16:	4b03      	ldr	r3, [pc, #12]	; (8003c24 <fclose+0x10>)
 8003c18:	0001      	movs	r1, r0
 8003c1a:	6818      	ldr	r0, [r3, #0]
 8003c1c:	f7ff ff88 	bl	8003b30 <_fclose_r>
 8003c20:	bd10      	pop	{r4, pc}
 8003c22:	46c0      	nop			; (mov r8, r8)
 8003c24:	200001d0 	.word	0x200001d0

08003c28 <__sflush_r>:
 8003c28:	b5f7      	push	{r0, r1, r2, r4, r5, r6, r7, lr}
 8003c2a:	220c      	movs	r2, #12
 8003c2c:	5e8b      	ldrsh	r3, [r1, r2]
 8003c2e:	000c      	movs	r4, r1
 8003c30:	b299      	uxth	r1, r3
 8003c32:	0005      	movs	r5, r0
 8003c34:	070a      	lsls	r2, r1, #28
 8003c36:	d500      	bpl.n	8003c3a <__sflush_r+0x12>
 8003c38:	e068      	b.n	8003d0c <__sflush_r+0xe4>
 8003c3a:	2280      	movs	r2, #128	; 0x80
 8003c3c:	0112      	lsls	r2, r2, #4
 8003c3e:	431a      	orrs	r2, r3
 8003c40:	6863      	ldr	r3, [r4, #4]
 8003c42:	81a2      	strh	r2, [r4, #12]
 8003c44:	2b00      	cmp	r3, #0
 8003c46:	dc04      	bgt.n	8003c52 <__sflush_r+0x2a>
 8003c48:	6c23      	ldr	r3, [r4, #64]	; 0x40
 8003c4a:	2b00      	cmp	r3, #0
 8003c4c:	dc01      	bgt.n	8003c52 <__sflush_r+0x2a>
 8003c4e:	2000      	movs	r0, #0
 8003c50:	bdfe      	pop	{r1, r2, r3, r4, r5, r6, r7, pc}
 8003c52:	6ae7      	ldr	r7, [r4, #44]	; 0x2c
 8003c54:	2f00      	cmp	r7, #0
 8003c56:	d0fa      	beq.n	8003c4e <__sflush_r+0x26>
 8003c58:	2300      	movs	r3, #0
 8003c5a:	682e      	ldr	r6, [r5, #0]
 8003c5c:	602b      	str	r3, [r5, #0]
 8003c5e:	2380      	movs	r3, #128	; 0x80
 8003c60:	015b      	lsls	r3, r3, #5
 8003c62:	401a      	ands	r2, r3
 8003c64:	d038      	beq.n	8003cd8 <__sflush_r+0xb0>
 8003c66:	6d60      	ldr	r0, [r4, #84]	; 0x54
 8003c68:	89a3      	ldrh	r3, [r4, #12]
 8003c6a:	075b      	lsls	r3, r3, #29
 8003c6c:	d506      	bpl.n	8003c7c <__sflush_r+0x54>
 8003c6e:	6863      	ldr	r3, [r4, #4]
 8003c70:	1ac0      	subs	r0, r0, r3
 8003c72:	6b63      	ldr	r3, [r4, #52]	; 0x34
 8003c74:	2b00      	cmp	r3, #0
 8003c76:	d001      	beq.n	8003c7c <__sflush_r+0x54>
 8003c78:	6c23      	ldr	r3, [r4, #64]	; 0x40
 8003c7a:	1ac0      	subs	r0, r0, r3
 8003c7c:	0002      	movs	r2, r0
 8003c7e:	6a21      	ldr	r1, [r4, #32]
 8003c80:	2300      	movs	r3, #0
 8003c82:	0028      	movs	r0, r5
 8003c84:	6ae7      	ldr	r7, [r4, #44]	; 0x2c
 8003c86:	47b8      	blx	r7
 8003c88:	89a1      	ldrh	r1, [r4, #12]
 8003c8a:	1c43      	adds	r3, r0, #1
 8003c8c:	d106      	bne.n	8003c9c <__sflush_r+0x74>
 8003c8e:	682b      	ldr	r3, [r5, #0]
 8003c90:	2b1d      	cmp	r3, #29
 8003c92:	d835      	bhi.n	8003d00 <__sflush_r+0xd8>
 8003c94:	4a2e      	ldr	r2, [pc, #184]	; (8003d50 <__sflush_r+0x128>)
 8003c96:	40da      	lsrs	r2, r3
 8003c98:	07d3      	lsls	r3, r2, #31
 8003c9a:	d531      	bpl.n	8003d00 <__sflush_r+0xd8>
 8003c9c:	2200      	movs	r2, #0
 8003c9e:	4b2d      	ldr	r3, [pc, #180]	; (8003d54 <__sflush_r+0x12c>)
 8003ca0:	6062      	str	r2, [r4, #4]
 8003ca2:	400b      	ands	r3, r1
 8003ca4:	6922      	ldr	r2, [r4, #16]
 8003ca6:	b21b      	sxth	r3, r3
 8003ca8:	81a3      	strh	r3, [r4, #12]
 8003caa:	6022      	str	r2, [r4, #0]
 8003cac:	04db      	lsls	r3, r3, #19
 8003cae:	d505      	bpl.n	8003cbc <__sflush_r+0x94>
 8003cb0:	1c43      	adds	r3, r0, #1
 8003cb2:	d102      	bne.n	8003cba <__sflush_r+0x92>
 8003cb4:	682b      	ldr	r3, [r5, #0]
 8003cb6:	2b00      	cmp	r3, #0
 8003cb8:	d100      	bne.n	8003cbc <__sflush_r+0x94>
 8003cba:	6560      	str	r0, [r4, #84]	; 0x54
 8003cbc:	6b61      	ldr	r1, [r4, #52]	; 0x34
 8003cbe:	602e      	str	r6, [r5, #0]
 8003cc0:	2900      	cmp	r1, #0
 8003cc2:	d0c4      	beq.n	8003c4e <__sflush_r+0x26>
 8003cc4:	0023      	movs	r3, r4
 8003cc6:	3344      	adds	r3, #68	; 0x44
 8003cc8:	4299      	cmp	r1, r3
 8003cca:	d002      	beq.n	8003cd2 <__sflush_r+0xaa>
 8003ccc:	0028      	movs	r0, r5
 8003cce:	f000 fabb 	bl	8004248 <_free_r>
 8003cd2:	2000      	movs	r0, #0
 8003cd4:	6360      	str	r0, [r4, #52]	; 0x34
 8003cd6:	e7bb      	b.n	8003c50 <__sflush_r+0x28>
 8003cd8:	2301      	movs	r3, #1
 8003cda:	6a21      	ldr	r1, [r4, #32]
 8003cdc:	0028      	movs	r0, r5
 8003cde:	47b8      	blx	r7
 8003ce0:	1c43      	adds	r3, r0, #1
 8003ce2:	d1c1      	bne.n	8003c68 <__sflush_r+0x40>
 8003ce4:	682b      	ldr	r3, [r5, #0]
 8003ce6:	2b00      	cmp	r3, #0
 8003ce8:	d0be      	beq.n	8003c68 <__sflush_r+0x40>
 8003cea:	2b1d      	cmp	r3, #29
 8003cec:	d001      	beq.n	8003cf2 <__sflush_r+0xca>
 8003cee:	2b16      	cmp	r3, #22
 8003cf0:	d101      	bne.n	8003cf6 <__sflush_r+0xce>
 8003cf2:	602e      	str	r6, [r5, #0]
 8003cf4:	e7ab      	b.n	8003c4e <__sflush_r+0x26>
 8003cf6:	2340      	movs	r3, #64	; 0x40
 8003cf8:	89a2      	ldrh	r2, [r4, #12]
 8003cfa:	4313      	orrs	r3, r2
 8003cfc:	81a3      	strh	r3, [r4, #12]
 8003cfe:	e7a7      	b.n	8003c50 <__sflush_r+0x28>
 8003d00:	2340      	movs	r3, #64	; 0x40
 8003d02:	430b      	orrs	r3, r1
 8003d04:	2001      	movs	r0, #1
 8003d06:	81a3      	strh	r3, [r4, #12]
 8003d08:	4240      	negs	r0, r0
 8003d0a:	e7a1      	b.n	8003c50 <__sflush_r+0x28>
 8003d0c:	6927      	ldr	r7, [r4, #16]
 8003d0e:	2f00      	cmp	r7, #0
 8003d10:	d09d      	beq.n	8003c4e <__sflush_r+0x26>
 8003d12:	6823      	ldr	r3, [r4, #0]
 8003d14:	6027      	str	r7, [r4, #0]
 8003d16:	1bdb      	subs	r3, r3, r7
 8003d18:	9301      	str	r3, [sp, #4]
 8003d1a:	2300      	movs	r3, #0
 8003d1c:	078a      	lsls	r2, r1, #30
 8003d1e:	d100      	bne.n	8003d22 <__sflush_r+0xfa>
 8003d20:	6963      	ldr	r3, [r4, #20]
 8003d22:	60a3      	str	r3, [r4, #8]
 8003d24:	9b01      	ldr	r3, [sp, #4]
 8003d26:	2b00      	cmp	r3, #0
 8003d28:	dc00      	bgt.n	8003d2c <__sflush_r+0x104>
 8003d2a:	e790      	b.n	8003c4e <__sflush_r+0x26>
 8003d2c:	9b01      	ldr	r3, [sp, #4]
 8003d2e:	003a      	movs	r2, r7
 8003d30:	6a21      	ldr	r1, [r4, #32]
 8003d32:	0028      	movs	r0, r5
 8003d34:	6aa6      	ldr	r6, [r4, #40]	; 0x28
 8003d36:	47b0      	blx	r6
 8003d38:	2800      	cmp	r0, #0
 8003d3a:	dc03      	bgt.n	8003d44 <__sflush_r+0x11c>
 8003d3c:	2340      	movs	r3, #64	; 0x40
 8003d3e:	89a2      	ldrh	r2, [r4, #12]
 8003d40:	4313      	orrs	r3, r2
 8003d42:	e7df      	b.n	8003d04 <__sflush_r+0xdc>
 8003d44:	9b01      	ldr	r3, [sp, #4]
 8003d46:	183f      	adds	r7, r7, r0
 8003d48:	1a1b      	subs	r3, r3, r0
 8003d4a:	9301      	str	r3, [sp, #4]
 8003d4c:	e7ea      	b.n	8003d24 <__sflush_r+0xfc>
 8003d4e:	46c0      	nop			; (mov r8, r8)
 8003d50:	20400001 	.word	0x20400001
 8003d54:	fffff7ff 	.word	0xfffff7ff

08003d58 <_fflush_r>:
 8003d58:	690b      	ldr	r3, [r1, #16]
 8003d5a:	b570      	push	{r4, r5, r6, lr}
 8003d5c:	0005      	movs	r5, r0
 8003d5e:	000c      	movs	r4, r1
 8003d60:	2b00      	cmp	r3, #0
 8003d62:	d102      	bne.n	8003d6a <_fflush_r+0x12>
 8003d64:	2500      	movs	r5, #0
 8003d66:	0028      	movs	r0, r5
 8003d68:	bd70      	pop	{r4, r5, r6, pc}
 8003d6a:	2800      	cmp	r0, #0
 8003d6c:	d004      	beq.n	8003d78 <_fflush_r+0x20>
 8003d6e:	6983      	ldr	r3, [r0, #24]
 8003d70:	2b00      	cmp	r3, #0
 8003d72:	d101      	bne.n	8003d78 <_fflush_r+0x20>
 8003d74:	f000 f8f2 	bl	8003f5c <__sinit>
 8003d78:	4b14      	ldr	r3, [pc, #80]	; (8003dcc <_fflush_r+0x74>)
 8003d7a:	429c      	cmp	r4, r3
 8003d7c:	d11b      	bne.n	8003db6 <_fflush_r+0x5e>
 8003d7e:	686c      	ldr	r4, [r5, #4]
 8003d80:	220c      	movs	r2, #12
 8003d82:	5ea3      	ldrsh	r3, [r4, r2]
 8003d84:	2b00      	cmp	r3, #0
 8003d86:	d0ed      	beq.n	8003d64 <_fflush_r+0xc>
 8003d88:	6e62      	ldr	r2, [r4, #100]	; 0x64
 8003d8a:	07d2      	lsls	r2, r2, #31
 8003d8c:	d404      	bmi.n	8003d98 <_fflush_r+0x40>
 8003d8e:	059b      	lsls	r3, r3, #22
 8003d90:	d402      	bmi.n	8003d98 <_fflush_r+0x40>
 8003d92:	6da0      	ldr	r0, [r4, #88]	; 0x58
 8003d94:	f000 fd04 	bl	80047a0 <__retarget_lock_acquire_recursive>
 8003d98:	0028      	movs	r0, r5
 8003d9a:	0021      	movs	r1, r4
 8003d9c:	f7ff ff44 	bl	8003c28 <__sflush_r>
 8003da0:	6e63      	ldr	r3, [r4, #100]	; 0x64
 8003da2:	0005      	movs	r5, r0
 8003da4:	07db      	lsls	r3, r3, #31
 8003da6:	d4de      	bmi.n	8003d66 <_fflush_r+0xe>
 8003da8:	89a3      	ldrh	r3, [r4, #12]
 8003daa:	059b      	lsls	r3, r3, #22
 8003dac:	d4db      	bmi.n	8003d66 <_fflush_r+0xe>
 8003dae:	6da0      	ldr	r0, [r4, #88]	; 0x58
 8003db0:	f000 fcf7 	bl	80047a2 <__retarget_lock_release_recursive>
 8003db4:	e7d7      	b.n	8003d66 <_fflush_r+0xe>
 8003db6:	4b06      	ldr	r3, [pc, #24]	; (8003dd0 <_fflush_r+0x78>)
 8003db8:	429c      	cmp	r4, r3
 8003dba:	d101      	bne.n	8003dc0 <_fflush_r+0x68>
 8003dbc:	68ac      	ldr	r4, [r5, #8]
 8003dbe:	e7df      	b.n	8003d80 <_fflush_r+0x28>
 8003dc0:	4b04      	ldr	r3, [pc, #16]	; (8003dd4 <_fflush_r+0x7c>)
 8003dc2:	429c      	cmp	r4, r3
 8003dc4:	d1dc      	bne.n	8003d80 <_fflush_r+0x28>
 8003dc6:	68ec      	ldr	r4, [r5, #12]
 8003dc8:	e7da      	b.n	8003d80 <_fflush_r+0x28>
 8003dca:	46c0      	nop			; (mov r8, r8)
 8003dcc:	08005ac8 	.word	0x08005ac8
 8003dd0:	08005ae8 	.word	0x08005ae8
 8003dd4:	08005aa8 	.word	0x08005aa8

08003dd8 <fflush>:
 8003dd8:	b510      	push	{r4, lr}
 8003dda:	1e01      	subs	r1, r0, #0
 8003ddc:	d105      	bne.n	8003dea <fflush+0x12>
 8003dde:	4b05      	ldr	r3, [pc, #20]	; (8003df4 <fflush+0x1c>)
 8003de0:	4905      	ldr	r1, [pc, #20]	; (8003df8 <fflush+0x20>)
 8003de2:	6818      	ldr	r0, [r3, #0]
 8003de4:	f000 fc94 	bl	8004710 <_fwalk_reent>
 8003de8:	bd10      	pop	{r4, pc}
 8003dea:	4b04      	ldr	r3, [pc, #16]	; (8003dfc <fflush+0x24>)
 8003dec:	6818      	ldr	r0, [r3, #0]
 8003dee:	f7ff ffb3 	bl	8003d58 <_fflush_r>
 8003df2:	e7f9      	b.n	8003de8 <fflush+0x10>
 8003df4:	08005b08 	.word	0x08005b08
 8003df8:	08003d59 	.word	0x08003d59
 8003dfc:	200001d0 	.word	0x200001d0

08003e00 <_fgetc_r>:
 8003e00:	b570      	push	{r4, r5, r6, lr}
 8003e02:	0005      	movs	r5, r0
 8003e04:	000c      	movs	r4, r1
 8003e06:	2800      	cmp	r0, #0
 8003e08:	d004      	beq.n	8003e14 <_fgetc_r+0x14>
 8003e0a:	6983      	ldr	r3, [r0, #24]
 8003e0c:	2b00      	cmp	r3, #0
 8003e0e:	d101      	bne.n	8003e14 <_fgetc_r+0x14>
 8003e10:	f000 f8a4 	bl	8003f5c <__sinit>
 8003e14:	4b18      	ldr	r3, [pc, #96]	; (8003e78 <_fgetc_r+0x78>)
 8003e16:	429c      	cmp	r4, r3
 8003e18:	d11e      	bne.n	8003e58 <_fgetc_r+0x58>
 8003e1a:	686c      	ldr	r4, [r5, #4]
 8003e1c:	6e63      	ldr	r3, [r4, #100]	; 0x64
 8003e1e:	07db      	lsls	r3, r3, #31
 8003e20:	d405      	bmi.n	8003e2e <_fgetc_r+0x2e>
 8003e22:	89a3      	ldrh	r3, [r4, #12]
 8003e24:	059b      	lsls	r3, r3, #22
 8003e26:	d402      	bmi.n	8003e2e <_fgetc_r+0x2e>
 8003e28:	6da0      	ldr	r0, [r4, #88]	; 0x58
 8003e2a:	f000 fcb9 	bl	80047a0 <__retarget_lock_acquire_recursive>
 8003e2e:	6863      	ldr	r3, [r4, #4]
 8003e30:	3b01      	subs	r3, #1
 8003e32:	6063      	str	r3, [r4, #4]
 8003e34:	2b00      	cmp	r3, #0
 8003e36:	da19      	bge.n	8003e6c <_fgetc_r+0x6c>
 8003e38:	0028      	movs	r0, r5
 8003e3a:	0021      	movs	r1, r4
 8003e3c:	f001 f858 	bl	8004ef0 <__srget_r>
 8003e40:	0005      	movs	r5, r0
 8003e42:	6e63      	ldr	r3, [r4, #100]	; 0x64
 8003e44:	07db      	lsls	r3, r3, #31
 8003e46:	d405      	bmi.n	8003e54 <_fgetc_r+0x54>
 8003e48:	89a3      	ldrh	r3, [r4, #12]
 8003e4a:	059b      	lsls	r3, r3, #22
 8003e4c:	d402      	bmi.n	8003e54 <_fgetc_r+0x54>
 8003e4e:	6da0      	ldr	r0, [r4, #88]	; 0x58
 8003e50:	f000 fca7 	bl	80047a2 <__retarget_lock_release_recursive>
 8003e54:	0028      	movs	r0, r5
 8003e56:	bd70      	pop	{r4, r5, r6, pc}
 8003e58:	4b08      	ldr	r3, [pc, #32]	; (8003e7c <_fgetc_r+0x7c>)
 8003e5a:	429c      	cmp	r4, r3
 8003e5c:	d101      	bne.n	8003e62 <_fgetc_r+0x62>
 8003e5e:	68ac      	ldr	r4, [r5, #8]
 8003e60:	e7dc      	b.n	8003e1c <_fgetc_r+0x1c>
 8003e62:	4b07      	ldr	r3, [pc, #28]	; (8003e80 <_fgetc_r+0x80>)
 8003e64:	429c      	cmp	r4, r3
 8003e66:	d1d9      	bne.n	8003e1c <_fgetc_r+0x1c>
 8003e68:	68ec      	ldr	r4, [r5, #12]
 8003e6a:	e7d7      	b.n	8003e1c <_fgetc_r+0x1c>
 8003e6c:	6823      	ldr	r3, [r4, #0]
 8003e6e:	1c5a      	adds	r2, r3, #1
 8003e70:	6022      	str	r2, [r4, #0]
 8003e72:	781d      	ldrb	r5, [r3, #0]
 8003e74:	e7e5      	b.n	8003e42 <_fgetc_r+0x42>
 8003e76:	46c0      	nop			; (mov r8, r8)
 8003e78:	08005ac8 	.word	0x08005ac8
 8003e7c:	08005ae8 	.word	0x08005ae8
 8003e80:	08005aa8 	.word	0x08005aa8

08003e84 <fgetc>:
 8003e84:	b510      	push	{r4, lr}
 8003e86:	4b03      	ldr	r3, [pc, #12]	; (8003e94 <fgetc+0x10>)
 8003e88:	0001      	movs	r1, r0
 8003e8a:	6818      	ldr	r0, [r3, #0]
 8003e8c:	f7ff ffb8 	bl	8003e00 <_fgetc_r>
 8003e90:	bd10      	pop	{r4, pc}
 8003e92:	46c0      	nop			; (mov r8, r8)
 8003e94:	200001d0 	.word	0x200001d0

08003e98 <_cleanup_r>:
 8003e98:	b510      	push	{r4, lr}
 8003e9a:	4902      	ldr	r1, [pc, #8]	; (8003ea4 <_cleanup_r+0xc>)
 8003e9c:	f000 fc38 	bl	8004710 <_fwalk_reent>
 8003ea0:	bd10      	pop	{r4, pc}
 8003ea2:	46c0      	nop			; (mov r8, r8)
 8003ea4:	08003b31 	.word	0x08003b31

08003ea8 <std.isra.0>:
 8003ea8:	2300      	movs	r3, #0
 8003eaa:	b510      	push	{r4, lr}
 8003eac:	0004      	movs	r4, r0
 8003eae:	6003      	str	r3, [r0, #0]
 8003eb0:	6043      	str	r3, [r0, #4]
 8003eb2:	6083      	str	r3, [r0, #8]
 8003eb4:	8181      	strh	r1, [r0, #12]
 8003eb6:	6643      	str	r3, [r0, #100]	; 0x64
 8003eb8:	81c2      	strh	r2, [r0, #14]
 8003eba:	6103      	str	r3, [r0, #16]
 8003ebc:	6143      	str	r3, [r0, #20]
 8003ebe:	6183      	str	r3, [r0, #24]
 8003ec0:	0019      	movs	r1, r3
 8003ec2:	2208      	movs	r2, #8
 8003ec4:	305c      	adds	r0, #92	; 0x5c
 8003ec6:	f000 ff02 	bl	8004cce <memset>
 8003eca:	4b05      	ldr	r3, [pc, #20]	; (8003ee0 <std.isra.0+0x38>)
 8003ecc:	6224      	str	r4, [r4, #32]
 8003ece:	6263      	str	r3, [r4, #36]	; 0x24
 8003ed0:	4b04      	ldr	r3, [pc, #16]	; (8003ee4 <std.isra.0+0x3c>)
 8003ed2:	62a3      	str	r3, [r4, #40]	; 0x28
 8003ed4:	4b04      	ldr	r3, [pc, #16]	; (8003ee8 <std.isra.0+0x40>)
 8003ed6:	62e3      	str	r3, [r4, #44]	; 0x2c
 8003ed8:	4b04      	ldr	r3, [pc, #16]	; (8003eec <std.isra.0+0x44>)
 8003eda:	6323      	str	r3, [r4, #48]	; 0x30
 8003edc:	bd10      	pop	{r4, pc}
 8003ede:	46c0      	nop			; (mov r8, r8)
 8003ee0:	08005125 	.word	0x08005125
 8003ee4:	0800514d 	.word	0x0800514d
 8003ee8:	08005185 	.word	0x08005185
 8003eec:	080051b1 	.word	0x080051b1

08003ef0 <__sfmoreglue>:
 8003ef0:	b570      	push	{r4, r5, r6, lr}
 8003ef2:	2568      	movs	r5, #104	; 0x68
 8003ef4:	1e4a      	subs	r2, r1, #1
 8003ef6:	4355      	muls	r5, r2
 8003ef8:	000e      	movs	r6, r1
 8003efa:	0029      	movs	r1, r5
 8003efc:	3174      	adds	r1, #116	; 0x74
 8003efe:	f000 fcd9 	bl	80048b4 <_malloc_r>
 8003f02:	1e04      	subs	r4, r0, #0
 8003f04:	d008      	beq.n	8003f18 <__sfmoreglue+0x28>
 8003f06:	2100      	movs	r1, #0
 8003f08:	002a      	movs	r2, r5
 8003f0a:	6001      	str	r1, [r0, #0]
 8003f0c:	6046      	str	r6, [r0, #4]
 8003f0e:	300c      	adds	r0, #12
 8003f10:	60a0      	str	r0, [r4, #8]
 8003f12:	3268      	adds	r2, #104	; 0x68
 8003f14:	f000 fedb 	bl	8004cce <memset>
 8003f18:	0020      	movs	r0, r4
 8003f1a:	bd70      	pop	{r4, r5, r6, pc}

08003f1c <__sfp_lock_acquire>:
 8003f1c:	b510      	push	{r4, lr}
 8003f1e:	4802      	ldr	r0, [pc, #8]	; (8003f28 <__sfp_lock_acquire+0xc>)
 8003f20:	f000 fc3e 	bl	80047a0 <__retarget_lock_acquire_recursive>
 8003f24:	bd10      	pop	{r4, pc}
 8003f26:	46c0      	nop			; (mov r8, r8)
 8003f28:	20000d1c 	.word	0x20000d1c

08003f2c <__sfp_lock_release>:
 8003f2c:	b510      	push	{r4, lr}
 8003f2e:	4802      	ldr	r0, [pc, #8]	; (8003f38 <__sfp_lock_release+0xc>)
 8003f30:	f000 fc37 	bl	80047a2 <__retarget_lock_release_recursive>
 8003f34:	bd10      	pop	{r4, pc}
 8003f36:	46c0      	nop			; (mov r8, r8)
 8003f38:	20000d1c 	.word	0x20000d1c

08003f3c <__sinit_lock_acquire>:
 8003f3c:	b510      	push	{r4, lr}
 8003f3e:	4802      	ldr	r0, [pc, #8]	; (8003f48 <__sinit_lock_acquire+0xc>)
 8003f40:	f000 fc2e 	bl	80047a0 <__retarget_lock_acquire_recursive>
 8003f44:	bd10      	pop	{r4, pc}
 8003f46:	46c0      	nop			; (mov r8, r8)
 8003f48:	20000d17 	.word	0x20000d17

08003f4c <__sinit_lock_release>:
 8003f4c:	b510      	push	{r4, lr}
 8003f4e:	4802      	ldr	r0, [pc, #8]	; (8003f58 <__sinit_lock_release+0xc>)
 8003f50:	f000 fc27 	bl	80047a2 <__retarget_lock_release_recursive>
 8003f54:	bd10      	pop	{r4, pc}
 8003f56:	46c0      	nop			; (mov r8, r8)
 8003f58:	20000d17 	.word	0x20000d17

08003f5c <__sinit>:
 8003f5c:	b513      	push	{r0, r1, r4, lr}
 8003f5e:	0004      	movs	r4, r0
 8003f60:	f7ff ffec 	bl	8003f3c <__sinit_lock_acquire>
 8003f64:	69a3      	ldr	r3, [r4, #24]
 8003f66:	2b00      	cmp	r3, #0
 8003f68:	d002      	beq.n	8003f70 <__sinit+0x14>
 8003f6a:	f7ff ffef 	bl	8003f4c <__sinit_lock_release>
 8003f6e:	bd13      	pop	{r0, r1, r4, pc}
 8003f70:	4a15      	ldr	r2, [pc, #84]	; (8003fc8 <__sinit+0x6c>)
 8003f72:	62a2      	str	r2, [r4, #40]	; 0x28
 8003f74:	0022      	movs	r2, r4
 8003f76:	32d8      	adds	r2, #216	; 0xd8
 8003f78:	6013      	str	r3, [r2, #0]
 8003f7a:	6053      	str	r3, [r2, #4]
 8003f7c:	6093      	str	r3, [r2, #8]
 8003f7e:	4b13      	ldr	r3, [pc, #76]	; (8003fcc <__sinit+0x70>)
 8003f80:	681b      	ldr	r3, [r3, #0]
 8003f82:	9301      	str	r3, [sp, #4]
 8003f84:	429c      	cmp	r4, r3
 8003f86:	d101      	bne.n	8003f8c <__sinit+0x30>
 8003f88:	2301      	movs	r3, #1
 8003f8a:	61a3      	str	r3, [r4, #24]
 8003f8c:	0020      	movs	r0, r4
 8003f8e:	f000 f81f 	bl	8003fd0 <__sfp>
 8003f92:	6060      	str	r0, [r4, #4]
 8003f94:	0020      	movs	r0, r4
 8003f96:	f000 f81b 	bl	8003fd0 <__sfp>
 8003f9a:	60a0      	str	r0, [r4, #8]
 8003f9c:	0020      	movs	r0, r4
 8003f9e:	f000 f817 	bl	8003fd0 <__sfp>
 8003fa2:	2200      	movs	r2, #0
 8003fa4:	60e0      	str	r0, [r4, #12]
 8003fa6:	2104      	movs	r1, #4
 8003fa8:	6860      	ldr	r0, [r4, #4]
 8003faa:	f7ff ff7d 	bl	8003ea8 <std.isra.0>
 8003fae:	2201      	movs	r2, #1
 8003fb0:	2109      	movs	r1, #9
 8003fb2:	68a0      	ldr	r0, [r4, #8]
 8003fb4:	f7ff ff78 	bl	8003ea8 <std.isra.0>
 8003fb8:	2202      	movs	r2, #2
 8003fba:	2112      	movs	r1, #18
 8003fbc:	68e0      	ldr	r0, [r4, #12]
 8003fbe:	f7ff ff73 	bl	8003ea8 <std.isra.0>
 8003fc2:	2301      	movs	r3, #1
 8003fc4:	61a3      	str	r3, [r4, #24]
 8003fc6:	e7d0      	b.n	8003f6a <__sinit+0xe>
 8003fc8:	08003e99 	.word	0x08003e99
 8003fcc:	08005b08 	.word	0x08005b08

08003fd0 <__sfp>:
 8003fd0:	b5f8      	push	{r3, r4, r5, r6, r7, lr}
 8003fd2:	0007      	movs	r7, r0
 8003fd4:	f7ff ffa2 	bl	8003f1c <__sfp_lock_acquire>
 8003fd8:	4b20      	ldr	r3, [pc, #128]	; (800405c <__sfp+0x8c>)
 8003fda:	681e      	ldr	r6, [r3, #0]
 8003fdc:	69b3      	ldr	r3, [r6, #24]
 8003fde:	2b00      	cmp	r3, #0
 8003fe0:	d102      	bne.n	8003fe8 <__sfp+0x18>
 8003fe2:	0030      	movs	r0, r6
 8003fe4:	f7ff ffba 	bl	8003f5c <__sinit>
 8003fe8:	36d8      	adds	r6, #216	; 0xd8
 8003fea:	68b4      	ldr	r4, [r6, #8]
 8003fec:	6873      	ldr	r3, [r6, #4]
 8003fee:	3b01      	subs	r3, #1
 8003ff0:	d504      	bpl.n	8003ffc <__sfp+0x2c>
 8003ff2:	6833      	ldr	r3, [r6, #0]
 8003ff4:	2b00      	cmp	r3, #0
 8003ff6:	d007      	beq.n	8004008 <__sfp+0x38>
 8003ff8:	6836      	ldr	r6, [r6, #0]
 8003ffa:	e7f6      	b.n	8003fea <__sfp+0x1a>
 8003ffc:	220c      	movs	r2, #12
 8003ffe:	5ea5      	ldrsh	r5, [r4, r2]
 8004000:	2d00      	cmp	r5, #0
 8004002:	d00e      	beq.n	8004022 <__sfp+0x52>
 8004004:	3468      	adds	r4, #104	; 0x68
 8004006:	e7f2      	b.n	8003fee <__sfp+0x1e>
 8004008:	2104      	movs	r1, #4
 800400a:	0038      	movs	r0, r7
 800400c:	f7ff ff70 	bl	8003ef0 <__sfmoreglue>
 8004010:	1e04      	subs	r4, r0, #0
 8004012:	6030      	str	r0, [r6, #0]
 8004014:	d1f0      	bne.n	8003ff8 <__sfp+0x28>
 8004016:	f7ff ff89 	bl	8003f2c <__sfp_lock_release>
 800401a:	230c      	movs	r3, #12
 800401c:	603b      	str	r3, [r7, #0]
 800401e:	0020      	movs	r0, r4
 8004020:	bdf8      	pop	{r3, r4, r5, r6, r7, pc}
 8004022:	2301      	movs	r3, #1
 8004024:	0020      	movs	r0, r4
 8004026:	425b      	negs	r3, r3
 8004028:	81e3      	strh	r3, [r4, #14]
 800402a:	3302      	adds	r3, #2
 800402c:	81a3      	strh	r3, [r4, #12]
 800402e:	3058      	adds	r0, #88	; 0x58
 8004030:	6665      	str	r5, [r4, #100]	; 0x64
 8004032:	f000 fbb3 	bl	800479c <__retarget_lock_init_recursive>
 8004036:	f7ff ff79 	bl	8003f2c <__sfp_lock_release>
 800403a:	0020      	movs	r0, r4
 800403c:	6025      	str	r5, [r4, #0]
 800403e:	60a5      	str	r5, [r4, #8]
 8004040:	6065      	str	r5, [r4, #4]
 8004042:	6125      	str	r5, [r4, #16]
 8004044:	6165      	str	r5, [r4, #20]
 8004046:	61a5      	str	r5, [r4, #24]
 8004048:	2208      	movs	r2, #8
 800404a:	0029      	movs	r1, r5
 800404c:	305c      	adds	r0, #92	; 0x5c
 800404e:	f000 fe3e 	bl	8004cce <memset>
 8004052:	6365      	str	r5, [r4, #52]	; 0x34
 8004054:	63a5      	str	r5, [r4, #56]	; 0x38
 8004056:	64a5      	str	r5, [r4, #72]	; 0x48
 8004058:	64e5      	str	r5, [r4, #76]	; 0x4c
 800405a:	e7e0      	b.n	800401e <__sfp+0x4e>
 800405c:	08005b08 	.word	0x08005b08

08004060 <_fopen_r>:
 8004060:	b5f7      	push	{r0, r1, r2, r4, r5, r6, r7, lr}
 8004062:	000f      	movs	r7, r1
 8004064:	0011      	movs	r1, r2
 8004066:	aa01      	add	r2, sp, #4
 8004068:	0005      	movs	r5, r0
 800406a:	f001 fa4d 	bl	8005508 <__sflags>
 800406e:	1e06      	subs	r6, r0, #0
 8004070:	d102      	bne.n	8004078 <_fopen_r+0x18>
 8004072:	2400      	movs	r4, #0
 8004074:	0020      	movs	r0, r4
 8004076:	bdfe      	pop	{r1, r2, r3, r4, r5, r6, r7, pc}
 8004078:	0028      	movs	r0, r5
 800407a:	f7ff ffa9 	bl	8003fd0 <__sfp>
 800407e:	1e04      	subs	r4, r0, #0
 8004080:	d0f7      	beq.n	8004072 <_fopen_r+0x12>
 8004082:	23db      	movs	r3, #219	; 0xdb
 8004084:	0039      	movs	r1, r7
 8004086:	005b      	lsls	r3, r3, #1
 8004088:	9a01      	ldr	r2, [sp, #4]
 800408a:	0028      	movs	r0, r5
 800408c:	f000 fe28 	bl	8004ce0 <_open_r>
 8004090:	1e07      	subs	r7, r0, #0
 8004092:	da09      	bge.n	80040a8 <_fopen_r+0x48>
 8004094:	2500      	movs	r5, #0
 8004096:	f7ff ff41 	bl	8003f1c <__sfp_lock_acquire>
 800409a:	6da0      	ldr	r0, [r4, #88]	; 0x58
 800409c:	81a5      	strh	r5, [r4, #12]
 800409e:	f000 fb7e 	bl	800479e <__retarget_lock_close_recursive>
 80040a2:	f7ff ff43 	bl	8003f2c <__sfp_lock_release>
 80040a6:	e7e4      	b.n	8004072 <_fopen_r+0x12>
 80040a8:	6e63      	ldr	r3, [r4, #100]	; 0x64
 80040aa:	07db      	lsls	r3, r3, #31
 80040ac:	d405      	bmi.n	80040ba <_fopen_r+0x5a>
 80040ae:	89a3      	ldrh	r3, [r4, #12]
 80040b0:	059b      	lsls	r3, r3, #22
 80040b2:	d402      	bmi.n	80040ba <_fopen_r+0x5a>
 80040b4:	6da0      	ldr	r0, [r4, #88]	; 0x58
 80040b6:	f000 fb73 	bl	80047a0 <__retarget_lock_acquire_recursive>
 80040ba:	4b0e      	ldr	r3, [pc, #56]	; (80040f4 <_fopen_r+0x94>)
 80040bc:	81e7      	strh	r7, [r4, #14]
 80040be:	6263      	str	r3, [r4, #36]	; 0x24
 80040c0:	4b0d      	ldr	r3, [pc, #52]	; (80040f8 <_fopen_r+0x98>)
 80040c2:	81a6      	strh	r6, [r4, #12]
 80040c4:	62a3      	str	r3, [r4, #40]	; 0x28
 80040c6:	4b0d      	ldr	r3, [pc, #52]	; (80040fc <_fopen_r+0x9c>)
 80040c8:	6224      	str	r4, [r4, #32]
 80040ca:	62e3      	str	r3, [r4, #44]	; 0x2c
 80040cc:	4b0c      	ldr	r3, [pc, #48]	; (8004100 <_fopen_r+0xa0>)
 80040ce:	6323      	str	r3, [r4, #48]	; 0x30
 80040d0:	05f3      	lsls	r3, r6, #23
 80040d2:	d505      	bpl.n	80040e0 <_fopen_r+0x80>
 80040d4:	2302      	movs	r3, #2
 80040d6:	2200      	movs	r2, #0
 80040d8:	0021      	movs	r1, r4
 80040da:	0028      	movs	r0, r5
 80040dc:	f000 f968 	bl	80043b0 <_fseek_r>
 80040e0:	6e63      	ldr	r3, [r4, #100]	; 0x64
 80040e2:	07db      	lsls	r3, r3, #31
 80040e4:	d4c6      	bmi.n	8004074 <_fopen_r+0x14>
 80040e6:	89a3      	ldrh	r3, [r4, #12]
 80040e8:	059b      	lsls	r3, r3, #22
 80040ea:	d4c3      	bmi.n	8004074 <_fopen_r+0x14>
 80040ec:	6da0      	ldr	r0, [r4, #88]	; 0x58
 80040ee:	f000 fb58 	bl	80047a2 <__retarget_lock_release_recursive>
 80040f2:	e7bf      	b.n	8004074 <_fopen_r+0x14>
 80040f4:	08005125 	.word	0x08005125
 80040f8:	0800514d 	.word	0x0800514d
 80040fc:	08005185 	.word	0x08005185
 8004100:	080051b1 	.word	0x080051b1

08004104 <fopen>:
 8004104:	b510      	push	{r4, lr}
 8004106:	4b03      	ldr	r3, [pc, #12]	; (8004114 <fopen+0x10>)
 8004108:	000a      	movs	r2, r1
 800410a:	0001      	movs	r1, r0
 800410c:	6818      	ldr	r0, [r3, #0]
 800410e:	f7ff ffa7 	bl	8004060 <_fopen_r>
 8004112:	bd10      	pop	{r4, pc}
 8004114:	200001d0 	.word	0x200001d0

08004118 <_fputc_r>:
 8004118:	b570      	push	{r4, r5, r6, lr}
 800411a:	0005      	movs	r5, r0
 800411c:	000e      	movs	r6, r1
 800411e:	0014      	movs	r4, r2
 8004120:	2800      	cmp	r0, #0
 8004122:	d004      	beq.n	800412e <_fputc_r+0x16>
 8004124:	6983      	ldr	r3, [r0, #24]
 8004126:	2b00      	cmp	r3, #0
 8004128:	d101      	bne.n	800412e <_fputc_r+0x16>
 800412a:	f7ff ff17 	bl	8003f5c <__sinit>
 800412e:	4b14      	ldr	r3, [pc, #80]	; (8004180 <_fputc_r+0x68>)
 8004130:	429c      	cmp	r4, r3
 8004132:	d11a      	bne.n	800416a <_fputc_r+0x52>
 8004134:	686c      	ldr	r4, [r5, #4]
 8004136:	6e63      	ldr	r3, [r4, #100]	; 0x64
 8004138:	07db      	lsls	r3, r3, #31
 800413a:	d405      	bmi.n	8004148 <_fputc_r+0x30>
 800413c:	89a3      	ldrh	r3, [r4, #12]
 800413e:	059b      	lsls	r3, r3, #22
 8004140:	d402      	bmi.n	8004148 <_fputc_r+0x30>
 8004142:	6da0      	ldr	r0, [r4, #88]	; 0x58
 8004144:	f000 fb2c 	bl	80047a0 <__retarget_lock_acquire_recursive>
 8004148:	0028      	movs	r0, r5
 800414a:	0022      	movs	r2, r4
 800414c:	0031      	movs	r1, r6
 800414e:	f000 fddb 	bl	8004d08 <_putc_r>
 8004152:	6e63      	ldr	r3, [r4, #100]	; 0x64
 8004154:	0005      	movs	r5, r0
 8004156:	07db      	lsls	r3, r3, #31
 8004158:	d405      	bmi.n	8004166 <_fputc_r+0x4e>
 800415a:	89a3      	ldrh	r3, [r4, #12]
 800415c:	059b      	lsls	r3, r3, #22
 800415e:	d402      	bmi.n	8004166 <_fputc_r+0x4e>
 8004160:	6da0      	ldr	r0, [r4, #88]	; 0x58
 8004162:	f000 fb1e 	bl	80047a2 <__retarget_lock_release_recursive>
 8004166:	0028      	movs	r0, r5
 8004168:	bd70      	pop	{r4, r5, r6, pc}
 800416a:	4b06      	ldr	r3, [pc, #24]	; (8004184 <_fputc_r+0x6c>)
 800416c:	429c      	cmp	r4, r3
 800416e:	d101      	bne.n	8004174 <_fputc_r+0x5c>
 8004170:	68ac      	ldr	r4, [r5, #8]
 8004172:	e7e0      	b.n	8004136 <_fputc_r+0x1e>
 8004174:	4b04      	ldr	r3, [pc, #16]	; (8004188 <_fputc_r+0x70>)
 8004176:	429c      	cmp	r4, r3
 8004178:	d1dd      	bne.n	8004136 <_fputc_r+0x1e>
 800417a:	68ec      	ldr	r4, [r5, #12]
 800417c:	e7db      	b.n	8004136 <_fputc_r+0x1e>
 800417e:	46c0      	nop			; (mov r8, r8)
 8004180:	08005ac8 	.word	0x08005ac8
 8004184:	08005ae8 	.word	0x08005ae8
 8004188:	08005aa8 	.word	0x08005aa8

0800418c <fputc>:
 800418c:	b510      	push	{r4, lr}
 800418e:	4b03      	ldr	r3, [pc, #12]	; (800419c <fputc+0x10>)
 8004190:	000a      	movs	r2, r1
 8004192:	0001      	movs	r1, r0
 8004194:	6818      	ldr	r0, [r3, #0]
 8004196:	f7ff ffbf 	bl	8004118 <_fputc_r>
 800419a:	bd10      	pop	{r4, pc}
 800419c:	200001d0 	.word	0x200001d0

080041a0 <_malloc_trim_r>:
 80041a0:	b5f7      	push	{r0, r1, r2, r4, r5, r6, r7, lr}
 80041a2:	4f25      	ldr	r7, [pc, #148]	; (8004238 <_malloc_trim_r+0x98>)
 80041a4:	000c      	movs	r4, r1
 80041a6:	0005      	movs	r5, r0
 80041a8:	f7fe f8b6 	bl	8002318 <__malloc_lock>
 80041ac:	0038      	movs	r0, r7
 80041ae:	2203      	movs	r2, #3
 80041b0:	4e22      	ldr	r6, [pc, #136]	; (800423c <_malloc_trim_r+0x9c>)
 80041b2:	3811      	subs	r0, #17
 80041b4:	68b3      	ldr	r3, [r6, #8]
 80041b6:	1b00      	subs	r0, r0, r4
 80041b8:	685b      	ldr	r3, [r3, #4]
 80041ba:	0039      	movs	r1, r7
 80041bc:	4393      	bics	r3, r2
 80041be:	18c0      	adds	r0, r0, r3
 80041c0:	9301      	str	r3, [sp, #4]
 80041c2:	f7fb ffb3 	bl	800012c <__udivsi3>
 80041c6:	1e44      	subs	r4, r0, #1
 80041c8:	437c      	muls	r4, r7
 80041ca:	42bc      	cmp	r4, r7
 80041cc:	da04      	bge.n	80041d8 <_malloc_trim_r+0x38>
 80041ce:	0028      	movs	r0, r5
 80041d0:	f7fe f8a6 	bl	8002320 <__malloc_unlock>
 80041d4:	2000      	movs	r0, #0
 80041d6:	bdfe      	pop	{r1, r2, r3, r4, r5, r6, r7, pc}
 80041d8:	2100      	movs	r1, #0
 80041da:	0028      	movs	r0, r5
 80041dc:	f000 feb8 	bl	8004f50 <_sbrk_r>
 80041e0:	68b3      	ldr	r3, [r6, #8]
 80041e2:	9a01      	ldr	r2, [sp, #4]
 80041e4:	189b      	adds	r3, r3, r2
 80041e6:	4298      	cmp	r0, r3
 80041e8:	d1f1      	bne.n	80041ce <_malloc_trim_r+0x2e>
 80041ea:	4261      	negs	r1, r4
 80041ec:	0028      	movs	r0, r5
 80041ee:	f000 feaf 	bl	8004f50 <_sbrk_r>
 80041f2:	1c43      	adds	r3, r0, #1
 80041f4:	d110      	bne.n	8004218 <_malloc_trim_r+0x78>
 80041f6:	2100      	movs	r1, #0
 80041f8:	0028      	movs	r0, r5
 80041fa:	f000 fea9 	bl	8004f50 <_sbrk_r>
 80041fe:	68b2      	ldr	r2, [r6, #8]
 8004200:	1a81      	subs	r1, r0, r2
 8004202:	290f      	cmp	r1, #15
 8004204:	dde3      	ble.n	80041ce <_malloc_trim_r+0x2e>
 8004206:	4b0e      	ldr	r3, [pc, #56]	; (8004240 <_malloc_trim_r+0xa0>)
 8004208:	681b      	ldr	r3, [r3, #0]
 800420a:	1ac0      	subs	r0, r0, r3
 800420c:	4b0d      	ldr	r3, [pc, #52]	; (8004244 <_malloc_trim_r+0xa4>)
 800420e:	6018      	str	r0, [r3, #0]
 8004210:	2301      	movs	r3, #1
 8004212:	430b      	orrs	r3, r1
 8004214:	6053      	str	r3, [r2, #4]
 8004216:	e7da      	b.n	80041ce <_malloc_trim_r+0x2e>
 8004218:	68b2      	ldr	r2, [r6, #8]
 800421a:	2601      	movs	r6, #1
 800421c:	9b01      	ldr	r3, [sp, #4]
 800421e:	0028      	movs	r0, r5
 8004220:	1b1b      	subs	r3, r3, r4
 8004222:	4333      	orrs	r3, r6
 8004224:	6053      	str	r3, [r2, #4]
 8004226:	4b07      	ldr	r3, [pc, #28]	; (8004244 <_malloc_trim_r+0xa4>)
 8004228:	681a      	ldr	r2, [r3, #0]
 800422a:	1b14      	subs	r4, r2, r4
 800422c:	601c      	str	r4, [r3, #0]
 800422e:	f7fe f877 	bl	8002320 <__malloc_unlock>
 8004232:	0030      	movs	r0, r6
 8004234:	e7cf      	b.n	80041d6 <_malloc_trim_r+0x36>
 8004236:	46c0      	nop			; (mov r8, r8)
 8004238:	00001000 	.word	0x00001000
 800423c:	200002c4 	.word	0x200002c4
 8004240:	200006cc 	.word	0x200006cc
 8004244:	20000a88 	.word	0x20000a88

08004248 <_free_r>:
 8004248:	b5f7      	push	{r0, r1, r2, r4, r5, r6, r7, lr}
 800424a:	1e0d      	subs	r5, r1, #0
 800424c:	9001      	str	r0, [sp, #4]
 800424e:	d02d      	beq.n	80042ac <_free_r+0x64>
 8004250:	f7fe f862 	bl	8002318 <__malloc_lock>
 8004254:	2301      	movs	r3, #1
 8004256:	0029      	movs	r1, r5
 8004258:	469c      	mov	ip, r3
 800425a:	3908      	subs	r1, #8
 800425c:	684f      	ldr	r7, [r1, #4]
 800425e:	4662      	mov	r2, ip
 8004260:	003b      	movs	r3, r7
 8004262:	4666      	mov	r6, ip
 8004264:	4393      	bics	r3, r2
 8004266:	18c8      	adds	r0, r1, r3
 8004268:	6845      	ldr	r5, [r0, #4]
 800426a:	3202      	adds	r2, #2
 800426c:	4395      	bics	r5, r2
 800426e:	4a4a      	ldr	r2, [pc, #296]	; (8004398 <_free_r+0x150>)
 8004270:	4037      	ands	r7, r6
 8004272:	6896      	ldr	r6, [r2, #8]
 8004274:	42b0      	cmp	r0, r6
 8004276:	d11a      	bne.n	80042ae <_free_r+0x66>
 8004278:	195b      	adds	r3, r3, r5
 800427a:	2f00      	cmp	r7, #0
 800427c:	d106      	bne.n	800428c <_free_r+0x44>
 800427e:	6808      	ldr	r0, [r1, #0]
 8004280:	1a09      	subs	r1, r1, r0
 8004282:	688d      	ldr	r5, [r1, #8]
 8004284:	181b      	adds	r3, r3, r0
 8004286:	68c8      	ldr	r0, [r1, #12]
 8004288:	60e8      	str	r0, [r5, #12]
 800428a:	6085      	str	r5, [r0, #8]
 800428c:	2001      	movs	r0, #1
 800428e:	4318      	orrs	r0, r3
 8004290:	6048      	str	r0, [r1, #4]
 8004292:	6091      	str	r1, [r2, #8]
 8004294:	4a41      	ldr	r2, [pc, #260]	; (800439c <_free_r+0x154>)
 8004296:	6812      	ldr	r2, [r2, #0]
 8004298:	4293      	cmp	r3, r2
 800429a:	d304      	bcc.n	80042a6 <_free_r+0x5e>
 800429c:	4b40      	ldr	r3, [pc, #256]	; (80043a0 <_free_r+0x158>)
 800429e:	9801      	ldr	r0, [sp, #4]
 80042a0:	6819      	ldr	r1, [r3, #0]
 80042a2:	f7ff ff7d 	bl	80041a0 <_malloc_trim_r>
 80042a6:	9801      	ldr	r0, [sp, #4]
 80042a8:	f7fe f83a 	bl	8002320 <__malloc_unlock>
 80042ac:	bdf7      	pop	{r0, r1, r2, r4, r5, r6, r7, pc}
 80042ae:	2600      	movs	r6, #0
 80042b0:	6045      	str	r5, [r0, #4]
 80042b2:	42b7      	cmp	r7, r6
 80042b4:	d109      	bne.n	80042ca <_free_r+0x82>
 80042b6:	680f      	ldr	r7, [r1, #0]
 80042b8:	4c3a      	ldr	r4, [pc, #232]	; (80043a4 <_free_r+0x15c>)
 80042ba:	1bc9      	subs	r1, r1, r7
 80042bc:	19db      	adds	r3, r3, r7
 80042be:	688f      	ldr	r7, [r1, #8]
 80042c0:	42a7      	cmp	r7, r4
 80042c2:	d02b      	beq.n	800431c <_free_r+0xd4>
 80042c4:	68cc      	ldr	r4, [r1, #12]
 80042c6:	60fc      	str	r4, [r7, #12]
 80042c8:	60a7      	str	r7, [r4, #8]
 80042ca:	1947      	adds	r7, r0, r5
 80042cc:	687c      	ldr	r4, [r7, #4]
 80042ce:	2701      	movs	r7, #1
 80042d0:	423c      	tst	r4, r7
 80042d2:	d10b      	bne.n	80042ec <_free_r+0xa4>
 80042d4:	195b      	adds	r3, r3, r5
 80042d6:	6885      	ldr	r5, [r0, #8]
 80042d8:	2e00      	cmp	r6, #0
 80042da:	d121      	bne.n	8004320 <_free_r+0xd8>
 80042dc:	4c31      	ldr	r4, [pc, #196]	; (80043a4 <_free_r+0x15c>)
 80042de:	42a5      	cmp	r5, r4
 80042e0:	d11e      	bne.n	8004320 <_free_r+0xd8>
 80042e2:	003e      	movs	r6, r7
 80042e4:	6151      	str	r1, [r2, #20]
 80042e6:	6111      	str	r1, [r2, #16]
 80042e8:	60cd      	str	r5, [r1, #12]
 80042ea:	608d      	str	r5, [r1, #8]
 80042ec:	2001      	movs	r0, #1
 80042ee:	0005      	movs	r5, r0
 80042f0:	431d      	orrs	r5, r3
 80042f2:	604d      	str	r5, [r1, #4]
 80042f4:	50cb      	str	r3, [r1, r3]
 80042f6:	2e00      	cmp	r6, #0
 80042f8:	d1d5      	bne.n	80042a6 <_free_r+0x5e>
 80042fa:	4d2b      	ldr	r5, [pc, #172]	; (80043a8 <_free_r+0x160>)
 80042fc:	42ab      	cmp	r3, r5
 80042fe:	d813      	bhi.n	8004328 <_free_r+0xe0>
 8004300:	08db      	lsrs	r3, r3, #3
 8004302:	109d      	asrs	r5, r3, #2
 8004304:	40a8      	lsls	r0, r5
 8004306:	6854      	ldr	r4, [r2, #4]
 8004308:	00db      	lsls	r3, r3, #3
 800430a:	4320      	orrs	r0, r4
 800430c:	6050      	str	r0, [r2, #4]
 800430e:	189a      	adds	r2, r3, r2
 8004310:	6893      	ldr	r3, [r2, #8]
 8004312:	60ca      	str	r2, [r1, #12]
 8004314:	608b      	str	r3, [r1, #8]
 8004316:	6091      	str	r1, [r2, #8]
 8004318:	60d9      	str	r1, [r3, #12]
 800431a:	e7c4      	b.n	80042a6 <_free_r+0x5e>
 800431c:	4666      	mov	r6, ip
 800431e:	e7d4      	b.n	80042ca <_free_r+0x82>
 8004320:	68c0      	ldr	r0, [r0, #12]
 8004322:	60e8      	str	r0, [r5, #12]
 8004324:	6085      	str	r5, [r0, #8]
 8004326:	e7e1      	b.n	80042ec <_free_r+0xa4>
 8004328:	0a5d      	lsrs	r5, r3, #9
 800432a:	2d04      	cmp	r5, #4
 800432c:	d812      	bhi.n	8004354 <_free_r+0x10c>
 800432e:	0998      	lsrs	r0, r3, #6
 8004330:	3038      	adds	r0, #56	; 0x38
 8004332:	00c6      	lsls	r6, r0, #3
 8004334:	18b6      	adds	r6, r6, r2
 8004336:	68b5      	ldr	r5, [r6, #8]
 8004338:	2703      	movs	r7, #3
 800433a:	42ae      	cmp	r6, r5
 800433c:	d125      	bne.n	800438a <_free_r+0x142>
 800433e:	2301      	movs	r3, #1
 8004340:	1080      	asrs	r0, r0, #2
 8004342:	4083      	lsls	r3, r0
 8004344:	6850      	ldr	r0, [r2, #4]
 8004346:	4303      	orrs	r3, r0
 8004348:	6053      	str	r3, [r2, #4]
 800434a:	60ce      	str	r6, [r1, #12]
 800434c:	608d      	str	r5, [r1, #8]
 800434e:	60b1      	str	r1, [r6, #8]
 8004350:	60e9      	str	r1, [r5, #12]
 8004352:	e7a8      	b.n	80042a6 <_free_r+0x5e>
 8004354:	2d14      	cmp	r5, #20
 8004356:	d802      	bhi.n	800435e <_free_r+0x116>
 8004358:	0028      	movs	r0, r5
 800435a:	305b      	adds	r0, #91	; 0x5b
 800435c:	e7e9      	b.n	8004332 <_free_r+0xea>
 800435e:	2d54      	cmp	r5, #84	; 0x54
 8004360:	d802      	bhi.n	8004368 <_free_r+0x120>
 8004362:	0b18      	lsrs	r0, r3, #12
 8004364:	306e      	adds	r0, #110	; 0x6e
 8004366:	e7e4      	b.n	8004332 <_free_r+0xea>
 8004368:	20aa      	movs	r0, #170	; 0xaa
 800436a:	0040      	lsls	r0, r0, #1
 800436c:	4285      	cmp	r5, r0
 800436e:	d802      	bhi.n	8004376 <_free_r+0x12e>
 8004370:	0bd8      	lsrs	r0, r3, #15
 8004372:	3077      	adds	r0, #119	; 0x77
 8004374:	e7dd      	b.n	8004332 <_free_r+0xea>
 8004376:	4e0d      	ldr	r6, [pc, #52]	; (80043ac <_free_r+0x164>)
 8004378:	207e      	movs	r0, #126	; 0x7e
 800437a:	42b5      	cmp	r5, r6
 800437c:	d8d9      	bhi.n	8004332 <_free_r+0xea>
 800437e:	0c98      	lsrs	r0, r3, #18
 8004380:	307c      	adds	r0, #124	; 0x7c
 8004382:	e7d6      	b.n	8004332 <_free_r+0xea>
 8004384:	68ad      	ldr	r5, [r5, #8]
 8004386:	42ae      	cmp	r6, r5
 8004388:	d003      	beq.n	8004392 <_free_r+0x14a>
 800438a:	686a      	ldr	r2, [r5, #4]
 800438c:	43ba      	bics	r2, r7
 800438e:	4293      	cmp	r3, r2
 8004390:	d3f8      	bcc.n	8004384 <_free_r+0x13c>
 8004392:	68ee      	ldr	r6, [r5, #12]
 8004394:	e7d9      	b.n	800434a <_free_r+0x102>
 8004396:	46c0      	nop			; (mov r8, r8)
 8004398:	200002c4 	.word	0x200002c4
 800439c:	200006d0 	.word	0x200006d0
 80043a0:	20000ab8 	.word	0x20000ab8
 80043a4:	200002cc 	.word	0x200002cc
 80043a8:	000001ff 	.word	0x000001ff
 80043ac:	00000554 	.word	0x00000554

080043b0 <_fseek_r>:
 80043b0:	b510      	push	{r4, lr}
 80043b2:	f000 f801 	bl	80043b8 <_fseeko_r>
 80043b6:	bd10      	pop	{r4, pc}

080043b8 <_fseeko_r>:
 80043b8:	b5f0      	push	{r4, r5, r6, r7, lr}
 80043ba:	b095      	sub	sp, #84	; 0x54
 80043bc:	0006      	movs	r6, r0
 80043be:	000c      	movs	r4, r1
 80043c0:	9202      	str	r2, [sp, #8]
 80043c2:	9300      	str	r3, [sp, #0]
 80043c4:	2800      	cmp	r0, #0
 80043c6:	d004      	beq.n	80043d2 <_fseeko_r+0x1a>
 80043c8:	6983      	ldr	r3, [r0, #24]
 80043ca:	2b00      	cmp	r3, #0
 80043cc:	d101      	bne.n	80043d2 <_fseeko_r+0x1a>
 80043ce:	f7ff fdc5 	bl	8003f5c <__sinit>
 80043d2:	4bb2      	ldr	r3, [pc, #712]	; (800469c <_fseeko_r+0x2e4>)
 80043d4:	429c      	cmp	r4, r3
 80043d6:	d120      	bne.n	800441a <_fseeko_r+0x62>
 80043d8:	6874      	ldr	r4, [r6, #4]
 80043da:	6e63      	ldr	r3, [r4, #100]	; 0x64
 80043dc:	07db      	lsls	r3, r3, #31
 80043de:	d405      	bmi.n	80043ec <_fseeko_r+0x34>
 80043e0:	89a3      	ldrh	r3, [r4, #12]
 80043e2:	059b      	lsls	r3, r3, #22
 80043e4:	d402      	bmi.n	80043ec <_fseeko_r+0x34>
 80043e6:	6da0      	ldr	r0, [r4, #88]	; 0x58
 80043e8:	f000 f9da 	bl	80047a0 <__retarget_lock_acquire_recursive>
 80043ec:	2284      	movs	r2, #132	; 0x84
 80043ee:	89a3      	ldrh	r3, [r4, #12]
 80043f0:	0052      	lsls	r2, r2, #1
 80043f2:	4013      	ands	r3, r2
 80043f4:	4293      	cmp	r3, r2
 80043f6:	d103      	bne.n	8004400 <_fseeko_r+0x48>
 80043f8:	0021      	movs	r1, r4
 80043fa:	0030      	movs	r0, r6
 80043fc:	f7ff fcac 	bl	8003d58 <_fflush_r>
 8004400:	6ae3      	ldr	r3, [r4, #44]	; 0x2c
 8004402:	9301      	str	r3, [sp, #4]
 8004404:	2b00      	cmp	r3, #0
 8004406:	d112      	bne.n	800442e <_fseeko_r+0x76>
 8004408:	331d      	adds	r3, #29
 800440a:	6033      	str	r3, [r6, #0]
 800440c:	6e63      	ldr	r3, [r4, #100]	; 0x64
 800440e:	07db      	lsls	r3, r3, #31
 8004410:	d400      	bmi.n	8004414 <_fseeko_r+0x5c>
 8004412:	e137      	b.n	8004684 <_fseeko_r+0x2cc>
 8004414:	2501      	movs	r5, #1
 8004416:	426d      	negs	r5, r5
 8004418:	e0ee      	b.n	80045f8 <_fseeko_r+0x240>
 800441a:	4ba1      	ldr	r3, [pc, #644]	; (80046a0 <_fseeko_r+0x2e8>)
 800441c:	429c      	cmp	r4, r3
 800441e:	d101      	bne.n	8004424 <_fseeko_r+0x6c>
 8004420:	68b4      	ldr	r4, [r6, #8]
 8004422:	e7da      	b.n	80043da <_fseeko_r+0x22>
 8004424:	4b9f      	ldr	r3, [pc, #636]	; (80046a4 <_fseeko_r+0x2ec>)
 8004426:	429c      	cmp	r4, r3
 8004428:	d1d7      	bne.n	80043da <_fseeko_r+0x22>
 800442a:	68f4      	ldr	r4, [r6, #12]
 800442c:	e7d5      	b.n	80043da <_fseeko_r+0x22>
 800442e:	9b00      	ldr	r3, [sp, #0]
 8004430:	2b01      	cmp	r3, #1
 8004432:	d007      	beq.n	8004444 <_fseeko_r+0x8c>
 8004434:	2b02      	cmp	r3, #2
 8004436:	d001      	beq.n	800443c <_fseeko_r+0x84>
 8004438:	2b00      	cmp	r3, #0
 800443a:	d178      	bne.n	800452e <_fseeko_r+0x176>
 800443c:	2300      	movs	r3, #0
 800443e:	9303      	str	r3, [sp, #12]
 8004440:	001d      	movs	r5, r3
 8004442:	e01a      	b.n	800447a <_fseeko_r+0xc2>
 8004444:	0021      	movs	r1, r4
 8004446:	0030      	movs	r0, r6
 8004448:	f7ff fc86 	bl	8003d58 <_fflush_r>
 800444c:	2380      	movs	r3, #128	; 0x80
 800444e:	89a2      	ldrh	r2, [r4, #12]
 8004450:	015b      	lsls	r3, r3, #5
 8004452:	401a      	ands	r2, r3
 8004454:	d04d      	beq.n	80044f2 <_fseeko_r+0x13a>
 8004456:	6d65      	ldr	r5, [r4, #84]	; 0x54
 8004458:	89a3      	ldrh	r3, [r4, #12]
 800445a:	075a      	lsls	r2, r3, #29
 800445c:	d55e      	bpl.n	800451c <_fseeko_r+0x164>
 800445e:	6863      	ldr	r3, [r4, #4]
 8004460:	1aed      	subs	r5, r5, r3
 8004462:	6b63      	ldr	r3, [r4, #52]	; 0x34
 8004464:	2b00      	cmp	r3, #0
 8004466:	d001      	beq.n	800446c <_fseeko_r+0xb4>
 8004468:	6c23      	ldr	r3, [r4, #64]	; 0x40
 800446a:	1aed      	subs	r5, r5, r3
 800446c:	9b02      	ldr	r3, [sp, #8]
 800446e:	195b      	adds	r3, r3, r5
 8004470:	9302      	str	r3, [sp, #8]
 8004472:	9b00      	ldr	r3, [sp, #0]
 8004474:	9303      	str	r3, [sp, #12]
 8004476:	2300      	movs	r3, #0
 8004478:	9300      	str	r3, [sp, #0]
 800447a:	6923      	ldr	r3, [r4, #16]
 800447c:	2b00      	cmp	r3, #0
 800447e:	d103      	bne.n	8004488 <_fseeko_r+0xd0>
 8004480:	0021      	movs	r1, r4
 8004482:	0030      	movs	r0, r6
 8004484:	f000 f9be 	bl	8004804 <__smakebuf_r>
 8004488:	89a3      	ldrh	r3, [r4, #12]
 800448a:	4a87      	ldr	r2, [pc, #540]	; (80046a8 <_fseeko_r+0x2f0>)
 800448c:	4213      	tst	r3, r2
 800448e:	d10c      	bne.n	80044aa <_fseeko_r+0xf2>
 8004490:	2780      	movs	r7, #128	; 0x80
 8004492:	00ff      	lsls	r7, r7, #3
 8004494:	423b      	tst	r3, r7
 8004496:	d162      	bne.n	800455e <_fseeko_r+0x1a6>
 8004498:	4b84      	ldr	r3, [pc, #528]	; (80046ac <_fseeko_r+0x2f4>)
 800449a:	9a01      	ldr	r2, [sp, #4]
 800449c:	429a      	cmp	r2, r3
 800449e:	d048      	beq.n	8004532 <_fseeko_r+0x17a>
 80044a0:	2380      	movs	r3, #128	; 0x80
 80044a2:	89a2      	ldrh	r2, [r4, #12]
 80044a4:	011b      	lsls	r3, r3, #4
 80044a6:	4313      	orrs	r3, r2
 80044a8:	81a3      	strh	r3, [r4, #12]
 80044aa:	0021      	movs	r1, r4
 80044ac:	0030      	movs	r0, r6
 80044ae:	f7ff fc53 	bl	8003d58 <_fflush_r>
 80044b2:	2800      	cmp	r0, #0
 80044b4:	d1aa      	bne.n	800440c <_fseeko_r+0x54>
 80044b6:	9b00      	ldr	r3, [sp, #0]
 80044b8:	9a02      	ldr	r2, [sp, #8]
 80044ba:	6a21      	ldr	r1, [r4, #32]
 80044bc:	0030      	movs	r0, r6
 80044be:	9d01      	ldr	r5, [sp, #4]
 80044c0:	47a8      	blx	r5
 80044c2:	1c43      	adds	r3, r0, #1
 80044c4:	d0a2      	beq.n	800440c <_fseeko_r+0x54>
 80044c6:	6b61      	ldr	r1, [r4, #52]	; 0x34
 80044c8:	2900      	cmp	r1, #0
 80044ca:	d008      	beq.n	80044de <_fseeko_r+0x126>
 80044cc:	0023      	movs	r3, r4
 80044ce:	3344      	adds	r3, #68	; 0x44
 80044d0:	4299      	cmp	r1, r3
 80044d2:	d002      	beq.n	80044da <_fseeko_r+0x122>
 80044d4:	0030      	movs	r0, r6
 80044d6:	f7ff feb7 	bl	8004248 <_free_r>
 80044da:	2300      	movs	r3, #0
 80044dc:	6363      	str	r3, [r4, #52]	; 0x34
 80044de:	2100      	movs	r1, #0
 80044e0:	6923      	ldr	r3, [r4, #16]
 80044e2:	4a73      	ldr	r2, [pc, #460]	; (80046b0 <_fseeko_r+0x2f8>)
 80044e4:	6023      	str	r3, [r4, #0]
 80044e6:	89a3      	ldrh	r3, [r4, #12]
 80044e8:	6061      	str	r1, [r4, #4]
 80044ea:	4013      	ands	r3, r2
 80044ec:	81a3      	strh	r3, [r4, #12]
 80044ee:	2208      	movs	r2, #8
 80044f0:	e079      	b.n	80045e6 <_fseeko_r+0x22e>
 80044f2:	9d01      	ldr	r5, [sp, #4]
 80044f4:	9b00      	ldr	r3, [sp, #0]
 80044f6:	6a21      	ldr	r1, [r4, #32]
 80044f8:	0030      	movs	r0, r6
 80044fa:	47a8      	blx	r5
 80044fc:	0005      	movs	r5, r0
 80044fe:	1c43      	adds	r3, r0, #1
 8004500:	d1aa      	bne.n	8004458 <_fseeko_r+0xa0>
 8004502:	6e63      	ldr	r3, [r4, #100]	; 0x64
 8004504:	9a00      	ldr	r2, [sp, #0]
 8004506:	4213      	tst	r3, r2
 8004508:	d000      	beq.n	800450c <_fseeko_r+0x154>
 800450a:	e783      	b.n	8004414 <_fseeko_r+0x5c>
 800450c:	89a3      	ldrh	r3, [r4, #12]
 800450e:	059b      	lsls	r3, r3, #22
 8004510:	d500      	bpl.n	8004514 <_fseeko_r+0x15c>
 8004512:	e77f      	b.n	8004414 <_fseeko_r+0x5c>
 8004514:	6da0      	ldr	r0, [r4, #88]	; 0x58
 8004516:	f000 f944 	bl	80047a2 <__retarget_lock_release_recursive>
 800451a:	e06d      	b.n	80045f8 <_fseeko_r+0x240>
 800451c:	071b      	lsls	r3, r3, #28
 800451e:	d5a5      	bpl.n	800446c <_fseeko_r+0xb4>
 8004520:	6823      	ldr	r3, [r4, #0]
 8004522:	2b00      	cmp	r3, #0
 8004524:	d0a2      	beq.n	800446c <_fseeko_r+0xb4>
 8004526:	6922      	ldr	r2, [r4, #16]
 8004528:	1a9b      	subs	r3, r3, r2
 800452a:	18ed      	adds	r5, r5, r3
 800452c:	e79e      	b.n	800446c <_fseeko_r+0xb4>
 800452e:	2316      	movs	r3, #22
 8004530:	e76b      	b.n	800440a <_fseeko_r+0x52>
 8004532:	230e      	movs	r3, #14
 8004534:	5ee1      	ldrsh	r1, [r4, r3]
 8004536:	2900      	cmp	r1, #0
 8004538:	dbb2      	blt.n	80044a0 <_fseeko_r+0xe8>
 800453a:	aa05      	add	r2, sp, #20
 800453c:	0030      	movs	r0, r6
 800453e:	f000 f8b9 	bl	80046b4 <_fstat_r>
 8004542:	2800      	cmp	r0, #0
 8004544:	d1ac      	bne.n	80044a0 <_fseeko_r+0xe8>
 8004546:	22f0      	movs	r2, #240	; 0xf0
 8004548:	9b06      	ldr	r3, [sp, #24]
 800454a:	0212      	lsls	r2, r2, #8
 800454c:	4013      	ands	r3, r2
 800454e:	2280      	movs	r2, #128	; 0x80
 8004550:	0212      	lsls	r2, r2, #8
 8004552:	4293      	cmp	r3, r2
 8004554:	d1a4      	bne.n	80044a0 <_fseeko_r+0xe8>
 8004556:	89a3      	ldrh	r3, [r4, #12]
 8004558:	6527      	str	r7, [r4, #80]	; 0x50
 800455a:	431f      	orrs	r7, r3
 800455c:	81a7      	strh	r7, [r4, #12]
 800455e:	9b00      	ldr	r3, [sp, #0]
 8004560:	9f02      	ldr	r7, [sp, #8]
 8004562:	2b00      	cmp	r3, #0
 8004564:	d00a      	beq.n	800457c <_fseeko_r+0x1c4>
 8004566:	230e      	movs	r3, #14
 8004568:	5ee1      	ldrsh	r1, [r4, r3]
 800456a:	aa05      	add	r2, sp, #20
 800456c:	0030      	movs	r0, r6
 800456e:	f000 f8a1 	bl	80046b4 <_fstat_r>
 8004572:	2800      	cmp	r0, #0
 8004574:	d199      	bne.n	80044aa <_fseeko_r+0xf2>
 8004576:	9f09      	ldr	r7, [sp, #36]	; 0x24
 8004578:	9b02      	ldr	r3, [sp, #8]
 800457a:	19df      	adds	r7, r3, r7
 800457c:	9b03      	ldr	r3, [sp, #12]
 800457e:	2b00      	cmp	r3, #0
 8004580:	d10a      	bne.n	8004598 <_fseeko_r+0x1e0>
 8004582:	89a3      	ldrh	r3, [r4, #12]
 8004584:	04db      	lsls	r3, r3, #19
 8004586:	d53a      	bpl.n	80045fe <_fseeko_r+0x246>
 8004588:	6d60      	ldr	r0, [r4, #84]	; 0x54
 800458a:	6863      	ldr	r3, [r4, #4]
 800458c:	1ac5      	subs	r5, r0, r3
 800458e:	6b63      	ldr	r3, [r4, #52]	; 0x34
 8004590:	2b00      	cmp	r3, #0
 8004592:	d001      	beq.n	8004598 <_fseeko_r+0x1e0>
 8004594:	6c23      	ldr	r3, [r4, #64]	; 0x40
 8004596:	1aed      	subs	r5, r5, r3
 8004598:	6b61      	ldr	r1, [r4, #52]	; 0x34
 800459a:	6923      	ldr	r3, [r4, #16]
 800459c:	2900      	cmp	r1, #0
 800459e:	d037      	beq.n	8004610 <_fseeko_r+0x258>
 80045a0:	6be2      	ldr	r2, [r4, #60]	; 0x3c
 80045a2:	1ad3      	subs	r3, r2, r3
 80045a4:	6862      	ldr	r2, [r4, #4]
 80045a6:	18ad      	adds	r5, r5, r2
 80045a8:	6c22      	ldr	r2, [r4, #64]	; 0x40
 80045aa:	1aed      	subs	r5, r5, r3
 80045ac:	189b      	adds	r3, r3, r2
 80045ae:	42af      	cmp	r7, r5
 80045b0:	db33      	blt.n	800461a <_fseeko_r+0x262>
 80045b2:	18ea      	adds	r2, r5, r3
 80045b4:	42ba      	cmp	r2, r7
 80045b6:	d930      	bls.n	800461a <_fseeko_r+0x262>
 80045b8:	6922      	ldr	r2, [r4, #16]
 80045ba:	1b7f      	subs	r7, r7, r5
 80045bc:	19d2      	adds	r2, r2, r7
 80045be:	1bdf      	subs	r7, r3, r7
 80045c0:	6022      	str	r2, [r4, #0]
 80045c2:	6067      	str	r7, [r4, #4]
 80045c4:	2900      	cmp	r1, #0
 80045c6:	d008      	beq.n	80045da <_fseeko_r+0x222>
 80045c8:	0023      	movs	r3, r4
 80045ca:	3344      	adds	r3, #68	; 0x44
 80045cc:	4299      	cmp	r1, r3
 80045ce:	d002      	beq.n	80045d6 <_fseeko_r+0x21e>
 80045d0:	0030      	movs	r0, r6
 80045d2:	f7ff fe39 	bl	8004248 <_free_r>
 80045d6:	2300      	movs	r3, #0
 80045d8:	6363      	str	r3, [r4, #52]	; 0x34
 80045da:	2220      	movs	r2, #32
 80045dc:	89a3      	ldrh	r3, [r4, #12]
 80045de:	4393      	bics	r3, r2
 80045e0:	81a3      	strh	r3, [r4, #12]
 80045e2:	3a18      	subs	r2, #24
 80045e4:	2100      	movs	r1, #0
 80045e6:	0020      	movs	r0, r4
 80045e8:	2501      	movs	r5, #1
 80045ea:	305c      	adds	r0, #92	; 0x5c
 80045ec:	f000 fb6f 	bl	8004cce <memset>
 80045f0:	6e63      	ldr	r3, [r4, #100]	; 0x64
 80045f2:	401d      	ands	r5, r3
 80045f4:	d04e      	beq.n	8004694 <_fseeko_r+0x2dc>
 80045f6:	2500      	movs	r5, #0
 80045f8:	0028      	movs	r0, r5
 80045fa:	b015      	add	sp, #84	; 0x54
 80045fc:	bdf0      	pop	{r4, r5, r6, r7, pc}
 80045fe:	2301      	movs	r3, #1
 8004600:	9a03      	ldr	r2, [sp, #12]
 8004602:	6a21      	ldr	r1, [r4, #32]
 8004604:	0030      	movs	r0, r6
 8004606:	9d01      	ldr	r5, [sp, #4]
 8004608:	47a8      	blx	r5
 800460a:	1c43      	adds	r3, r0, #1
 800460c:	d1bd      	bne.n	800458a <_fseeko_r+0x1d2>
 800460e:	e74c      	b.n	80044aa <_fseeko_r+0xf2>
 8004610:	6822      	ldr	r2, [r4, #0]
 8004612:	1ad3      	subs	r3, r2, r3
 8004614:	1aed      	subs	r5, r5, r3
 8004616:	6862      	ldr	r2, [r4, #4]
 8004618:	e7c8      	b.n	80045ac <_fseeko_r+0x1f4>
 800461a:	6d23      	ldr	r3, [r4, #80]	; 0x50
 800461c:	6a21      	ldr	r1, [r4, #32]
 800461e:	425d      	negs	r5, r3
 8004620:	403d      	ands	r5, r7
 8004622:	9503      	str	r5, [sp, #12]
 8004624:	2300      	movs	r3, #0
 8004626:	002a      	movs	r2, r5
 8004628:	0030      	movs	r0, r6
 800462a:	9d01      	ldr	r5, [sp, #4]
 800462c:	47a8      	blx	r5
 800462e:	1c43      	adds	r3, r0, #1
 8004630:	d100      	bne.n	8004634 <_fseeko_r+0x27c>
 8004632:	e73a      	b.n	80044aa <_fseeko_r+0xf2>
 8004634:	2500      	movs	r5, #0
 8004636:	6923      	ldr	r3, [r4, #16]
 8004638:	6b61      	ldr	r1, [r4, #52]	; 0x34
 800463a:	6065      	str	r5, [r4, #4]
 800463c:	6023      	str	r3, [r4, #0]
 800463e:	42a9      	cmp	r1, r5
 8004640:	d007      	beq.n	8004652 <_fseeko_r+0x29a>
 8004642:	0023      	movs	r3, r4
 8004644:	3344      	adds	r3, #68	; 0x44
 8004646:	4299      	cmp	r1, r3
 8004648:	d002      	beq.n	8004650 <_fseeko_r+0x298>
 800464a:	0030      	movs	r0, r6
 800464c:	f7ff fdfc 	bl	8004248 <_free_r>
 8004650:	6365      	str	r5, [r4, #52]	; 0x34
 8004652:	2220      	movs	r2, #32
 8004654:	89a3      	ldrh	r3, [r4, #12]
 8004656:	4393      	bics	r3, r2
 8004658:	81a3      	strh	r3, [r4, #12]
 800465a:	9b03      	ldr	r3, [sp, #12]
 800465c:	1aff      	subs	r7, r7, r3
 800465e:	d00f      	beq.n	8004680 <_fseeko_r+0x2c8>
 8004660:	0021      	movs	r1, r4
 8004662:	0030      	movs	r0, r6
 8004664:	f000 fba6 	bl	8004db4 <__srefill_r>
 8004668:	2800      	cmp	r0, #0
 800466a:	d000      	beq.n	800466e <_fseeko_r+0x2b6>
 800466c:	e71d      	b.n	80044aa <_fseeko_r+0xf2>
 800466e:	6865      	ldr	r5, [r4, #4]
 8004670:	42af      	cmp	r7, r5
 8004672:	d900      	bls.n	8004676 <_fseeko_r+0x2be>
 8004674:	e719      	b.n	80044aa <_fseeko_r+0xf2>
 8004676:	6823      	ldr	r3, [r4, #0]
 8004678:	19db      	adds	r3, r3, r7
 800467a:	1bef      	subs	r7, r5, r7
 800467c:	6023      	str	r3, [r4, #0]
 800467e:	6067      	str	r7, [r4, #4]
 8004680:	2208      	movs	r2, #8
 8004682:	e7af      	b.n	80045e4 <_fseeko_r+0x22c>
 8004684:	89a3      	ldrh	r3, [r4, #12]
 8004686:	059b      	lsls	r3, r3, #22
 8004688:	d500      	bpl.n	800468c <_fseeko_r+0x2d4>
 800468a:	e6c3      	b.n	8004414 <_fseeko_r+0x5c>
 800468c:	6da0      	ldr	r0, [r4, #88]	; 0x58
 800468e:	f000 f888 	bl	80047a2 <__retarget_lock_release_recursive>
 8004692:	e6bf      	b.n	8004414 <_fseeko_r+0x5c>
 8004694:	89a3      	ldrh	r3, [r4, #12]
 8004696:	059b      	lsls	r3, r3, #22
 8004698:	d4ad      	bmi.n	80045f6 <_fseeko_r+0x23e>
 800469a:	e73b      	b.n	8004514 <_fseeko_r+0x15c>
 800469c:	08005ac8 	.word	0x08005ac8
 80046a0:	08005ae8 	.word	0x08005ae8
 80046a4:	08005aa8 	.word	0x08005aa8
 80046a8:	0000081a 	.word	0x0000081a
 80046ac:	08005185 	.word	0x08005185
 80046b0:	fffff7df 	.word	0xfffff7df

080046b4 <_fstat_r>:
 80046b4:	2300      	movs	r3, #0
 80046b6:	b570      	push	{r4, r5, r6, lr}
 80046b8:	4c06      	ldr	r4, [pc, #24]	; (80046d4 <_fstat_r+0x20>)
 80046ba:	0005      	movs	r5, r0
 80046bc:	0008      	movs	r0, r1
 80046be:	0011      	movs	r1, r2
 80046c0:	6023      	str	r3, [r4, #0]
 80046c2:	f7fd fd9c 	bl	80021fe <_fstat>
 80046c6:	1c43      	adds	r3, r0, #1
 80046c8:	d103      	bne.n	80046d2 <_fstat_r+0x1e>
 80046ca:	6823      	ldr	r3, [r4, #0]
 80046cc:	2b00      	cmp	r3, #0
 80046ce:	d000      	beq.n	80046d2 <_fstat_r+0x1e>
 80046d0:	602b      	str	r3, [r5, #0]
 80046d2:	bd70      	pop	{r4, r5, r6, pc}
 80046d4:	20000d20 	.word	0x20000d20

080046d8 <_fwalk>:
 80046d8:	b5f7      	push	{r0, r1, r2, r4, r5, r6, r7, lr}
 80046da:	30d8      	adds	r0, #216	; 0xd8
 80046dc:	0004      	movs	r4, r0
 80046de:	2600      	movs	r6, #0
 80046e0:	9101      	str	r1, [sp, #4]
 80046e2:	2c00      	cmp	r4, #0
 80046e4:	d101      	bne.n	80046ea <_fwalk+0x12>
 80046e6:	0030      	movs	r0, r6
 80046e8:	bdfe      	pop	{r1, r2, r3, r4, r5, r6, r7, pc}
 80046ea:	68a5      	ldr	r5, [r4, #8]
 80046ec:	6867      	ldr	r7, [r4, #4]
 80046ee:	3f01      	subs	r7, #1
 80046f0:	d501      	bpl.n	80046f6 <_fwalk+0x1e>
 80046f2:	6824      	ldr	r4, [r4, #0]
 80046f4:	e7f5      	b.n	80046e2 <_fwalk+0xa>
 80046f6:	89ab      	ldrh	r3, [r5, #12]
 80046f8:	2b01      	cmp	r3, #1
 80046fa:	d907      	bls.n	800470c <_fwalk+0x34>
 80046fc:	220e      	movs	r2, #14
 80046fe:	5eab      	ldrsh	r3, [r5, r2]
 8004700:	3301      	adds	r3, #1
 8004702:	d003      	beq.n	800470c <_fwalk+0x34>
 8004704:	0028      	movs	r0, r5
 8004706:	9b01      	ldr	r3, [sp, #4]
 8004708:	4798      	blx	r3
 800470a:	4306      	orrs	r6, r0
 800470c:	3568      	adds	r5, #104	; 0x68
 800470e:	e7ee      	b.n	80046ee <_fwalk+0x16>

08004710 <_fwalk_reent>:
 8004710:	b5f7      	push	{r0, r1, r2, r4, r5, r6, r7, lr}
 8004712:	0004      	movs	r4, r0
 8004714:	0007      	movs	r7, r0
 8004716:	2600      	movs	r6, #0
 8004718:	9101      	str	r1, [sp, #4]
 800471a:	34d8      	adds	r4, #216	; 0xd8
 800471c:	2c00      	cmp	r4, #0
 800471e:	d101      	bne.n	8004724 <_fwalk_reent+0x14>
 8004720:	0030      	movs	r0, r6
 8004722:	bdfe      	pop	{r1, r2, r3, r4, r5, r6, r7, pc}
 8004724:	6863      	ldr	r3, [r4, #4]
 8004726:	68a5      	ldr	r5, [r4, #8]
 8004728:	9300      	str	r3, [sp, #0]
 800472a:	9b00      	ldr	r3, [sp, #0]
 800472c:	3b01      	subs	r3, #1
 800472e:	9300      	str	r3, [sp, #0]
 8004730:	d501      	bpl.n	8004736 <_fwalk_reent+0x26>
 8004732:	6824      	ldr	r4, [r4, #0]
 8004734:	e7f2      	b.n	800471c <_fwalk_reent+0xc>
 8004736:	89ab      	ldrh	r3, [r5, #12]
 8004738:	2b01      	cmp	r3, #1
 800473a:	d908      	bls.n	800474e <_fwalk_reent+0x3e>
 800473c:	220e      	movs	r2, #14
 800473e:	5eab      	ldrsh	r3, [r5, r2]
 8004740:	3301      	adds	r3, #1
 8004742:	d004      	beq.n	800474e <_fwalk_reent+0x3e>
 8004744:	0029      	movs	r1, r5
 8004746:	0038      	movs	r0, r7
 8004748:	9b01      	ldr	r3, [sp, #4]
 800474a:	4798      	blx	r3
 800474c:	4306      	orrs	r6, r0
 800474e:	3568      	adds	r5, #104	; 0x68
 8004750:	e7eb      	b.n	800472a <_fwalk_reent+0x1a>
	...

08004754 <__libc_init_array>:
 8004754:	b570      	push	{r4, r5, r6, lr}
 8004756:	2600      	movs	r6, #0
 8004758:	4d0c      	ldr	r5, [pc, #48]	; (800478c <__libc_init_array+0x38>)
 800475a:	4c0d      	ldr	r4, [pc, #52]	; (8004790 <__libc_init_array+0x3c>)
 800475c:	1b64      	subs	r4, r4, r5
 800475e:	10a4      	asrs	r4, r4, #2
 8004760:	42a6      	cmp	r6, r4
 8004762:	d109      	bne.n	8004778 <__libc_init_array+0x24>
 8004764:	2600      	movs	r6, #0
 8004766:	f000 ff45 	bl	80055f4 <_init>
 800476a:	4d0a      	ldr	r5, [pc, #40]	; (8004794 <__libc_init_array+0x40>)
 800476c:	4c0a      	ldr	r4, [pc, #40]	; (8004798 <__libc_init_array+0x44>)
 800476e:	1b64      	subs	r4, r4, r5
 8004770:	10a4      	asrs	r4, r4, #2
 8004772:	42a6      	cmp	r6, r4
 8004774:	d105      	bne.n	8004782 <__libc_init_array+0x2e>
 8004776:	bd70      	pop	{r4, r5, r6, pc}
 8004778:	00b3      	lsls	r3, r6, #2
 800477a:	58eb      	ldr	r3, [r5, r3]
 800477c:	4798      	blx	r3
 800477e:	3601      	adds	r6, #1
 8004780:	e7ee      	b.n	8004760 <__libc_init_array+0xc>
 8004782:	00b3      	lsls	r3, r6, #2
 8004784:	58eb      	ldr	r3, [r5, r3]
 8004786:	4798      	blx	r3
 8004788:	3601      	adds	r6, #1
 800478a:	e7f2      	b.n	8004772 <__libc_init_array+0x1e>
 800478c:	200006d8 	.word	0x200006d8
 8004790:	200006d8 	.word	0x200006d8
 8004794:	200006d8 	.word	0x200006d8
 8004798:	200006e4 	.word	0x200006e4

0800479c <__retarget_lock_init_recursive>:
 800479c:	4770      	bx	lr

0800479e <__retarget_lock_close_recursive>:
 800479e:	4770      	bx	lr

080047a0 <__retarget_lock_acquire_recursive>:
 80047a0:	4770      	bx	lr

080047a2 <__retarget_lock_release_recursive>:
 80047a2:	4770      	bx	lr

080047a4 <__swhatbuf_r>:
 80047a4:	b570      	push	{r4, r5, r6, lr}
 80047a6:	000e      	movs	r6, r1
 80047a8:	001d      	movs	r5, r3
 80047aa:	230e      	movs	r3, #14
 80047ac:	5ec9      	ldrsh	r1, [r1, r3]
 80047ae:	b090      	sub	sp, #64	; 0x40
 80047b0:	0014      	movs	r4, r2
 80047b2:	2900      	cmp	r1, #0
 80047b4:	da0a      	bge.n	80047cc <__swhatbuf_r+0x28>
 80047b6:	2300      	movs	r3, #0
 80047b8:	2280      	movs	r2, #128	; 0x80
 80047ba:	602b      	str	r3, [r5, #0]
 80047bc:	89b0      	ldrh	r0, [r6, #12]
 80047be:	4010      	ands	r0, r2
 80047c0:	4298      	cmp	r0, r3
 80047c2:	d117      	bne.n	80047f4 <__swhatbuf_r+0x50>
 80047c4:	2380      	movs	r3, #128	; 0x80
 80047c6:	00db      	lsls	r3, r3, #3
 80047c8:	6023      	str	r3, [r4, #0]
 80047ca:	e016      	b.n	80047fa <__swhatbuf_r+0x56>
 80047cc:	aa01      	add	r2, sp, #4
 80047ce:	f7ff ff71 	bl	80046b4 <_fstat_r>
 80047d2:	2800      	cmp	r0, #0
 80047d4:	dbef      	blt.n	80047b6 <__swhatbuf_r+0x12>
 80047d6:	22f0      	movs	r2, #240	; 0xf0
 80047d8:	9b02      	ldr	r3, [sp, #8]
 80047da:	0212      	lsls	r2, r2, #8
 80047dc:	4013      	ands	r3, r2
 80047de:	4a08      	ldr	r2, [pc, #32]	; (8004800 <__swhatbuf_r+0x5c>)
 80047e0:	2080      	movs	r0, #128	; 0x80
 80047e2:	189b      	adds	r3, r3, r2
 80047e4:	425a      	negs	r2, r3
 80047e6:	4153      	adcs	r3, r2
 80047e8:	602b      	str	r3, [r5, #0]
 80047ea:	2380      	movs	r3, #128	; 0x80
 80047ec:	00db      	lsls	r3, r3, #3
 80047ee:	6023      	str	r3, [r4, #0]
 80047f0:	0100      	lsls	r0, r0, #4
 80047f2:	e002      	b.n	80047fa <__swhatbuf_r+0x56>
 80047f4:	2240      	movs	r2, #64	; 0x40
 80047f6:	0018      	movs	r0, r3
 80047f8:	6022      	str	r2, [r4, #0]
 80047fa:	b010      	add	sp, #64	; 0x40
 80047fc:	bd70      	pop	{r4, r5, r6, pc}
 80047fe:	46c0      	nop			; (mov r8, r8)
 8004800:	ffffe000 	.word	0xffffe000

08004804 <__smakebuf_r>:
 8004804:	b5f7      	push	{r0, r1, r2, r4, r5, r6, r7, lr}
 8004806:	2602      	movs	r6, #2
 8004808:	898b      	ldrh	r3, [r1, #12]
 800480a:	0005      	movs	r5, r0
 800480c:	000c      	movs	r4, r1
 800480e:	4233      	tst	r3, r6
 8004810:	d006      	beq.n	8004820 <__smakebuf_r+0x1c>
 8004812:	0023      	movs	r3, r4
 8004814:	3347      	adds	r3, #71	; 0x47
 8004816:	6023      	str	r3, [r4, #0]
 8004818:	6123      	str	r3, [r4, #16]
 800481a:	2301      	movs	r3, #1
 800481c:	6163      	str	r3, [r4, #20]
 800481e:	bdf7      	pop	{r0, r1, r2, r4, r5, r6, r7, pc}
 8004820:	ab01      	add	r3, sp, #4
 8004822:	466a      	mov	r2, sp
 8004824:	f7ff ffbe 	bl	80047a4 <__swhatbuf_r>
 8004828:	9900      	ldr	r1, [sp, #0]
 800482a:	0007      	movs	r7, r0
 800482c:	0028      	movs	r0, r5
 800482e:	f000 f841 	bl	80048b4 <_malloc_r>
 8004832:	2800      	cmp	r0, #0
 8004834:	d108      	bne.n	8004848 <__smakebuf_r+0x44>
 8004836:	220c      	movs	r2, #12
 8004838:	5ea3      	ldrsh	r3, [r4, r2]
 800483a:	059a      	lsls	r2, r3, #22
 800483c:	d4ef      	bmi.n	800481e <__smakebuf_r+0x1a>
 800483e:	2203      	movs	r2, #3
 8004840:	4393      	bics	r3, r2
 8004842:	431e      	orrs	r6, r3
 8004844:	81a6      	strh	r6, [r4, #12]
 8004846:	e7e4      	b.n	8004812 <__smakebuf_r+0xe>
 8004848:	4b0f      	ldr	r3, [pc, #60]	; (8004888 <__smakebuf_r+0x84>)
 800484a:	62ab      	str	r3, [r5, #40]	; 0x28
 800484c:	2380      	movs	r3, #128	; 0x80
 800484e:	89a2      	ldrh	r2, [r4, #12]
 8004850:	6020      	str	r0, [r4, #0]
 8004852:	4313      	orrs	r3, r2
 8004854:	81a3      	strh	r3, [r4, #12]
 8004856:	9b00      	ldr	r3, [sp, #0]
 8004858:	6120      	str	r0, [r4, #16]
 800485a:	6163      	str	r3, [r4, #20]
 800485c:	9b01      	ldr	r3, [sp, #4]
 800485e:	2b00      	cmp	r3, #0
 8004860:	d00d      	beq.n	800487e <__smakebuf_r+0x7a>
 8004862:	230e      	movs	r3, #14
 8004864:	5ee1      	ldrsh	r1, [r4, r3]
 8004866:	0028      	movs	r0, r5
 8004868:	f000 fe88 	bl	800557c <_isatty_r>
 800486c:	2800      	cmp	r0, #0
 800486e:	d006      	beq.n	800487e <__smakebuf_r+0x7a>
 8004870:	2203      	movs	r2, #3
 8004872:	89a3      	ldrh	r3, [r4, #12]
 8004874:	4393      	bics	r3, r2
 8004876:	001a      	movs	r2, r3
 8004878:	2301      	movs	r3, #1
 800487a:	4313      	orrs	r3, r2
 800487c:	81a3      	strh	r3, [r4, #12]
 800487e:	89a0      	ldrh	r0, [r4, #12]
 8004880:	4338      	orrs	r0, r7
 8004882:	81a0      	strh	r0, [r4, #12]
 8004884:	e7cb      	b.n	800481e <__smakebuf_r+0x1a>
 8004886:	46c0      	nop			; (mov r8, r8)
 8004888:	08003e99 	.word	0x08003e99

0800488c <malloc>:
 800488c:	b510      	push	{r4, lr}
 800488e:	4b03      	ldr	r3, [pc, #12]	; (800489c <malloc+0x10>)
 8004890:	0001      	movs	r1, r0
 8004892:	6818      	ldr	r0, [r3, #0]
 8004894:	f000 f80e 	bl	80048b4 <_malloc_r>
 8004898:	bd10      	pop	{r4, pc}
 800489a:	46c0      	nop			; (mov r8, r8)
 800489c:	200001d0 	.word	0x200001d0

080048a0 <free>:
 80048a0:	b510      	push	{r4, lr}
 80048a2:	4b03      	ldr	r3, [pc, #12]	; (80048b0 <free+0x10>)
 80048a4:	0001      	movs	r1, r0
 80048a6:	6818      	ldr	r0, [r3, #0]
 80048a8:	f7ff fcce 	bl	8004248 <_free_r>
 80048ac:	bd10      	pop	{r4, pc}
 80048ae:	46c0      	nop			; (mov r8, r8)
 80048b0:	200001d0 	.word	0x200001d0

080048b4 <_malloc_r>:
 80048b4:	b5f0      	push	{r4, r5, r6, r7, lr}
 80048b6:	000d      	movs	r5, r1
 80048b8:	b085      	sub	sp, #20
 80048ba:	350b      	adds	r5, #11
 80048bc:	9001      	str	r0, [sp, #4]
 80048be:	2d16      	cmp	r5, #22
 80048c0:	d908      	bls.n	80048d4 <_malloc_r+0x20>
 80048c2:	2307      	movs	r3, #7
 80048c4:	439d      	bics	r5, r3
 80048c6:	d506      	bpl.n	80048d6 <_malloc_r+0x22>
 80048c8:	230c      	movs	r3, #12
 80048ca:	9a01      	ldr	r2, [sp, #4]
 80048cc:	6013      	str	r3, [r2, #0]
 80048ce:	2000      	movs	r0, #0
 80048d0:	b005      	add	sp, #20
 80048d2:	bdf0      	pop	{r4, r5, r6, r7, pc}
 80048d4:	2510      	movs	r5, #16
 80048d6:	428d      	cmp	r5, r1
 80048d8:	d3f6      	bcc.n	80048c8 <_malloc_r+0x14>
 80048da:	9801      	ldr	r0, [sp, #4]
 80048dc:	f7fd fd1c 	bl	8002318 <__malloc_lock>
 80048e0:	23f8      	movs	r3, #248	; 0xf8
 80048e2:	33ff      	adds	r3, #255	; 0xff
 80048e4:	48ba      	ldr	r0, [pc, #744]	; (8004bd0 <_malloc_r+0x31c>)
 80048e6:	429d      	cmp	r5, r3
 80048e8:	d81f      	bhi.n	800492a <_malloc_r+0x76>
 80048ea:	002a      	movs	r2, r5
 80048ec:	3208      	adds	r2, #8
 80048ee:	1882      	adds	r2, r0, r2
 80048f0:	0011      	movs	r1, r2
 80048f2:	6854      	ldr	r4, [r2, #4]
 80048f4:	3908      	subs	r1, #8
 80048f6:	08eb      	lsrs	r3, r5, #3
 80048f8:	428c      	cmp	r4, r1
 80048fa:	d103      	bne.n	8004904 <_malloc_r+0x50>
 80048fc:	68d4      	ldr	r4, [r2, #12]
 80048fe:	3302      	adds	r3, #2
 8004900:	42a2      	cmp	r2, r4
 8004902:	d029      	beq.n	8004958 <_malloc_r+0xa4>
 8004904:	2303      	movs	r3, #3
 8004906:	6862      	ldr	r2, [r4, #4]
 8004908:	68a1      	ldr	r1, [r4, #8]
 800490a:	439a      	bics	r2, r3
 800490c:	0013      	movs	r3, r2
 800490e:	68e2      	ldr	r2, [r4, #12]
 8004910:	18e3      	adds	r3, r4, r3
 8004912:	60ca      	str	r2, [r1, #12]
 8004914:	6091      	str	r1, [r2, #8]
 8004916:	2201      	movs	r2, #1
 8004918:	6859      	ldr	r1, [r3, #4]
 800491a:	430a      	orrs	r2, r1
 800491c:	605a      	str	r2, [r3, #4]
 800491e:	9801      	ldr	r0, [sp, #4]
 8004920:	f7fd fcfe 	bl	8002320 <__malloc_unlock>
 8004924:	0020      	movs	r0, r4
 8004926:	3008      	adds	r0, #8
 8004928:	e7d2      	b.n	80048d0 <_malloc_r+0x1c>
 800492a:	0a6a      	lsrs	r2, r5, #9
 800492c:	233f      	movs	r3, #63	; 0x3f
 800492e:	2a00      	cmp	r2, #0
 8004930:	d003      	beq.n	800493a <_malloc_r+0x86>
 8004932:	2a04      	cmp	r2, #4
 8004934:	d828      	bhi.n	8004988 <_malloc_r+0xd4>
 8004936:	09ab      	lsrs	r3, r5, #6
 8004938:	3338      	adds	r3, #56	; 0x38
 800493a:	2203      	movs	r2, #3
 800493c:	4694      	mov	ip, r2
 800493e:	00d9      	lsls	r1, r3, #3
 8004940:	1809      	adds	r1, r1, r0
 8004942:	68cc      	ldr	r4, [r1, #12]
 8004944:	428c      	cmp	r4, r1
 8004946:	d006      	beq.n	8004956 <_malloc_r+0xa2>
 8004948:	4666      	mov	r6, ip
 800494a:	6862      	ldr	r2, [r4, #4]
 800494c:	43b2      	bics	r2, r6
 800494e:	1b57      	subs	r7, r2, r5
 8004950:	2f0f      	cmp	r7, #15
 8004952:	dd31      	ble.n	80049b8 <_malloc_r+0x104>
 8004954:	3b01      	subs	r3, #1
 8004956:	3301      	adds	r3, #1
 8004958:	0001      	movs	r1, r0
 800495a:	6904      	ldr	r4, [r0, #16]
 800495c:	3108      	adds	r1, #8
 800495e:	428c      	cmp	r4, r1
 8004960:	d04e      	beq.n	8004a00 <_malloc_r+0x14c>
 8004962:	2203      	movs	r2, #3
 8004964:	6866      	ldr	r6, [r4, #4]
 8004966:	4396      	bics	r6, r2
 8004968:	0032      	movs	r2, r6
 800496a:	1b76      	subs	r6, r6, r5
 800496c:	2e0f      	cmp	r6, #15
 800496e:	dd31      	ble.n	80049d4 <_malloc_r+0x120>
 8004970:	2701      	movs	r7, #1
 8004972:	1963      	adds	r3, r4, r5
 8004974:	433d      	orrs	r5, r7
 8004976:	4337      	orrs	r7, r6
 8004978:	6065      	str	r5, [r4, #4]
 800497a:	6143      	str	r3, [r0, #20]
 800497c:	6103      	str	r3, [r0, #16]
 800497e:	60d9      	str	r1, [r3, #12]
 8004980:	6099      	str	r1, [r3, #8]
 8004982:	605f      	str	r7, [r3, #4]
 8004984:	50a6      	str	r6, [r4, r2]
 8004986:	e7ca      	b.n	800491e <_malloc_r+0x6a>
 8004988:	2a14      	cmp	r2, #20
 800498a:	d802      	bhi.n	8004992 <_malloc_r+0xde>
 800498c:	0013      	movs	r3, r2
 800498e:	335b      	adds	r3, #91	; 0x5b
 8004990:	e7d3      	b.n	800493a <_malloc_r+0x86>
 8004992:	2a54      	cmp	r2, #84	; 0x54
 8004994:	d802      	bhi.n	800499c <_malloc_r+0xe8>
 8004996:	0b2b      	lsrs	r3, r5, #12
 8004998:	336e      	adds	r3, #110	; 0x6e
 800499a:	e7ce      	b.n	800493a <_malloc_r+0x86>
 800499c:	23aa      	movs	r3, #170	; 0xaa
 800499e:	005b      	lsls	r3, r3, #1
 80049a0:	429a      	cmp	r2, r3
 80049a2:	d802      	bhi.n	80049aa <_malloc_r+0xf6>
 80049a4:	0beb      	lsrs	r3, r5, #15
 80049a6:	3377      	adds	r3, #119	; 0x77
 80049a8:	e7c7      	b.n	800493a <_malloc_r+0x86>
 80049aa:	498a      	ldr	r1, [pc, #552]	; (8004bd4 <_malloc_r+0x320>)
 80049ac:	237e      	movs	r3, #126	; 0x7e
 80049ae:	428a      	cmp	r2, r1
 80049b0:	d8c3      	bhi.n	800493a <_malloc_r+0x86>
 80049b2:	0cab      	lsrs	r3, r5, #18
 80049b4:	337c      	adds	r3, #124	; 0x7c
 80049b6:	e7c0      	b.n	800493a <_malloc_r+0x86>
 80049b8:	68e6      	ldr	r6, [r4, #12]
 80049ba:	2f00      	cmp	r7, #0
 80049bc:	db08      	blt.n	80049d0 <_malloc_r+0x11c>
 80049be:	68a3      	ldr	r3, [r4, #8]
 80049c0:	60de      	str	r6, [r3, #12]
 80049c2:	60b3      	str	r3, [r6, #8]
 80049c4:	2301      	movs	r3, #1
 80049c6:	18a2      	adds	r2, r4, r2
 80049c8:	6851      	ldr	r1, [r2, #4]
 80049ca:	430b      	orrs	r3, r1
 80049cc:	6053      	str	r3, [r2, #4]
 80049ce:	e7a6      	b.n	800491e <_malloc_r+0x6a>
 80049d0:	0034      	movs	r4, r6
 80049d2:	e7b7      	b.n	8004944 <_malloc_r+0x90>
 80049d4:	6141      	str	r1, [r0, #20]
 80049d6:	6101      	str	r1, [r0, #16]
 80049d8:	2e00      	cmp	r6, #0
 80049da:	daf3      	bge.n	80049c4 <_malloc_r+0x110>
 80049dc:	497e      	ldr	r1, [pc, #504]	; (8004bd8 <_malloc_r+0x324>)
 80049de:	428a      	cmp	r2, r1
 80049e0:	d842      	bhi.n	8004a68 <_malloc_r+0x1b4>
 80049e2:	08d2      	lsrs	r2, r2, #3
 80049e4:	39ff      	subs	r1, #255	; 0xff
 80049e6:	1096      	asrs	r6, r2, #2
 80049e8:	39ff      	subs	r1, #255	; 0xff
 80049ea:	40b1      	lsls	r1, r6
 80049ec:	6846      	ldr	r6, [r0, #4]
 80049ee:	00d2      	lsls	r2, r2, #3
 80049f0:	4331      	orrs	r1, r6
 80049f2:	6041      	str	r1, [r0, #4]
 80049f4:	1810      	adds	r0, r2, r0
 80049f6:	6882      	ldr	r2, [r0, #8]
 80049f8:	60e0      	str	r0, [r4, #12]
 80049fa:	60a2      	str	r2, [r4, #8]
 80049fc:	6084      	str	r4, [r0, #8]
 80049fe:	60d4      	str	r4, [r2, #12]
 8004a00:	2201      	movs	r2, #1
 8004a02:	1099      	asrs	r1, r3, #2
 8004a04:	408a      	lsls	r2, r1
 8004a06:	4972      	ldr	r1, [pc, #456]	; (8004bd0 <_malloc_r+0x31c>)
 8004a08:	6848      	ldr	r0, [r1, #4]
 8004a0a:	4282      	cmp	r2, r0
 8004a0c:	d900      	bls.n	8004a10 <_malloc_r+0x15c>
 8004a0e:	e097      	b.n	8004b40 <_malloc_r+0x28c>
 8004a10:	4210      	tst	r0, r2
 8004a12:	d105      	bne.n	8004a20 <_malloc_r+0x16c>
 8004a14:	2403      	movs	r4, #3
 8004a16:	43a3      	bics	r3, r4
 8004a18:	0052      	lsls	r2, r2, #1
 8004a1a:	3304      	adds	r3, #4
 8004a1c:	4210      	tst	r0, r2
 8004a1e:	d0fb      	beq.n	8004a18 <_malloc_r+0x164>
 8004a20:	469c      	mov	ip, r3
 8004a22:	00d8      	lsls	r0, r3, #3
 8004a24:	1808      	adds	r0, r1, r0
 8004a26:	9002      	str	r0, [sp, #8]
 8004a28:	9c02      	ldr	r4, [sp, #8]
 8004a2a:	68e4      	ldr	r4, [r4, #12]
 8004a2c:	9e02      	ldr	r6, [sp, #8]
 8004a2e:	42b4      	cmp	r4, r6
 8004a30:	d158      	bne.n	8004ae4 <_malloc_r+0x230>
 8004a32:	0034      	movs	r4, r6
 8004a34:	3408      	adds	r4, #8
 8004a36:	9402      	str	r4, [sp, #8]
 8004a38:	2401      	movs	r4, #1
 8004a3a:	44a4      	add	ip, r4
 8004a3c:	4664      	mov	r4, ip
 8004a3e:	2603      	movs	r6, #3
 8004a40:	4234      	tst	r4, r6
 8004a42:	d1f1      	bne.n	8004a28 <_malloc_r+0x174>
 8004a44:	2403      	movs	r4, #3
 8004a46:	4223      	tst	r3, r4
 8004a48:	d174      	bne.n	8004b34 <_malloc_r+0x280>
 8004a4a:	684b      	ldr	r3, [r1, #4]
 8004a4c:	4393      	bics	r3, r2
 8004a4e:	604b      	str	r3, [r1, #4]
 8004a50:	6848      	ldr	r0, [r1, #4]
 8004a52:	0052      	lsls	r2, r2, #1
 8004a54:	4282      	cmp	r2, r0
 8004a56:	d873      	bhi.n	8004b40 <_malloc_r+0x28c>
 8004a58:	2a00      	cmp	r2, #0
 8004a5a:	d071      	beq.n	8004b40 <_malloc_r+0x28c>
 8004a5c:	4663      	mov	r3, ip
 8004a5e:	4210      	tst	r0, r2
 8004a60:	d1de      	bne.n	8004a20 <_malloc_r+0x16c>
 8004a62:	3304      	adds	r3, #4
 8004a64:	0052      	lsls	r2, r2, #1
 8004a66:	e7fa      	b.n	8004a5e <_malloc_r+0x1aa>
 8004a68:	0a56      	lsrs	r6, r2, #9
 8004a6a:	2e04      	cmp	r6, #4
 8004a6c:	d816      	bhi.n	8004a9c <_malloc_r+0x1e8>
 8004a6e:	0991      	lsrs	r1, r2, #6
 8004a70:	3138      	adds	r1, #56	; 0x38
 8004a72:	00cf      	lsls	r7, r1, #3
 8004a74:	183e      	adds	r6, r7, r0
 8004a76:	2703      	movs	r7, #3
 8004a78:	9602      	str	r6, [sp, #8]
 8004a7a:	46bc      	mov	ip, r7
 8004a7c:	68b6      	ldr	r6, [r6, #8]
 8004a7e:	9f02      	ldr	r7, [sp, #8]
 8004a80:	42b7      	cmp	r7, r6
 8004a82:	d127      	bne.n	8004ad4 <_malloc_r+0x220>
 8004a84:	2201      	movs	r2, #1
 8004a86:	1089      	asrs	r1, r1, #2
 8004a88:	408a      	lsls	r2, r1
 8004a8a:	6841      	ldr	r1, [r0, #4]
 8004a8c:	430a      	orrs	r2, r1
 8004a8e:	6042      	str	r2, [r0, #4]
 8004a90:	9a02      	ldr	r2, [sp, #8]
 8004a92:	60a6      	str	r6, [r4, #8]
 8004a94:	60e2      	str	r2, [r4, #12]
 8004a96:	6094      	str	r4, [r2, #8]
 8004a98:	60f4      	str	r4, [r6, #12]
 8004a9a:	e7b1      	b.n	8004a00 <_malloc_r+0x14c>
 8004a9c:	2e14      	cmp	r6, #20
 8004a9e:	d802      	bhi.n	8004aa6 <_malloc_r+0x1f2>
 8004aa0:	0031      	movs	r1, r6
 8004aa2:	315b      	adds	r1, #91	; 0x5b
 8004aa4:	e7e5      	b.n	8004a72 <_malloc_r+0x1be>
 8004aa6:	2e54      	cmp	r6, #84	; 0x54
 8004aa8:	d802      	bhi.n	8004ab0 <_malloc_r+0x1fc>
 8004aaa:	0b11      	lsrs	r1, r2, #12
 8004aac:	316e      	adds	r1, #110	; 0x6e
 8004aae:	e7e0      	b.n	8004a72 <_malloc_r+0x1be>
 8004ab0:	21aa      	movs	r1, #170	; 0xaa
 8004ab2:	0049      	lsls	r1, r1, #1
 8004ab4:	428e      	cmp	r6, r1
 8004ab6:	d802      	bhi.n	8004abe <_malloc_r+0x20a>
 8004ab8:	0bd1      	lsrs	r1, r2, #15
 8004aba:	3177      	adds	r1, #119	; 0x77
 8004abc:	e7d9      	b.n	8004a72 <_malloc_r+0x1be>
 8004abe:	4f45      	ldr	r7, [pc, #276]	; (8004bd4 <_malloc_r+0x320>)
 8004ac0:	217e      	movs	r1, #126	; 0x7e
 8004ac2:	42be      	cmp	r6, r7
 8004ac4:	d8d5      	bhi.n	8004a72 <_malloc_r+0x1be>
 8004ac6:	0c91      	lsrs	r1, r2, #18
 8004ac8:	317c      	adds	r1, #124	; 0x7c
 8004aca:	e7d2      	b.n	8004a72 <_malloc_r+0x1be>
 8004acc:	68b6      	ldr	r6, [r6, #8]
 8004ace:	9902      	ldr	r1, [sp, #8]
 8004ad0:	42b1      	cmp	r1, r6
 8004ad2:	d004      	beq.n	8004ade <_malloc_r+0x22a>
 8004ad4:	4660      	mov	r0, ip
 8004ad6:	6871      	ldr	r1, [r6, #4]
 8004ad8:	4381      	bics	r1, r0
 8004ada:	428a      	cmp	r2, r1
 8004adc:	d3f6      	bcc.n	8004acc <_malloc_r+0x218>
 8004ade:	68f2      	ldr	r2, [r6, #12]
 8004ae0:	9202      	str	r2, [sp, #8]
 8004ae2:	e7d5      	b.n	8004a90 <_malloc_r+0x1dc>
 8004ae4:	2603      	movs	r6, #3
 8004ae6:	6867      	ldr	r7, [r4, #4]
 8004ae8:	43b7      	bics	r7, r6
 8004aea:	9703      	str	r7, [sp, #12]
 8004aec:	1b7e      	subs	r6, r7, r5
 8004aee:	2e0f      	cmp	r6, #15
 8004af0:	dd11      	ble.n	8004b16 <_malloc_r+0x262>
 8004af2:	2201      	movs	r2, #1
 8004af4:	1963      	adds	r3, r4, r5
 8004af6:	4315      	orrs	r5, r2
 8004af8:	6065      	str	r5, [r4, #4]
 8004afa:	68e0      	ldr	r0, [r4, #12]
 8004afc:	68a5      	ldr	r5, [r4, #8]
 8004afe:	3108      	adds	r1, #8
 8004b00:	60e8      	str	r0, [r5, #12]
 8004b02:	4332      	orrs	r2, r6
 8004b04:	6085      	str	r5, [r0, #8]
 8004b06:	60cb      	str	r3, [r1, #12]
 8004b08:	608b      	str	r3, [r1, #8]
 8004b0a:	60d9      	str	r1, [r3, #12]
 8004b0c:	6099      	str	r1, [r3, #8]
 8004b0e:	605a      	str	r2, [r3, #4]
 8004b10:	003b      	movs	r3, r7
 8004b12:	50e6      	str	r6, [r4, r3]
 8004b14:	e703      	b.n	800491e <_malloc_r+0x6a>
 8004b16:	68e7      	ldr	r7, [r4, #12]
 8004b18:	2e00      	cmp	r6, #0
 8004b1a:	db09      	blt.n	8004b30 <_malloc_r+0x27c>
 8004b1c:	2201      	movs	r2, #1
 8004b1e:	9b03      	ldr	r3, [sp, #12]
 8004b20:	18e3      	adds	r3, r4, r3
 8004b22:	6859      	ldr	r1, [r3, #4]
 8004b24:	430a      	orrs	r2, r1
 8004b26:	605a      	str	r2, [r3, #4]
 8004b28:	68a3      	ldr	r3, [r4, #8]
 8004b2a:	60df      	str	r7, [r3, #12]
 8004b2c:	60bb      	str	r3, [r7, #8]
 8004b2e:	e6f6      	b.n	800491e <_malloc_r+0x6a>
 8004b30:	003c      	movs	r4, r7
 8004b32:	e77b      	b.n	8004a2c <_malloc_r+0x178>
 8004b34:	3808      	subs	r0, #8
 8004b36:	6884      	ldr	r4, [r0, #8]
 8004b38:	3b01      	subs	r3, #1
 8004b3a:	42a0      	cmp	r0, r4
 8004b3c:	d082      	beq.n	8004a44 <_malloc_r+0x190>
 8004b3e:	e787      	b.n	8004a50 <_malloc_r+0x19c>
 8004b40:	2303      	movs	r3, #3
 8004b42:	688f      	ldr	r7, [r1, #8]
 8004b44:	687a      	ldr	r2, [r7, #4]
 8004b46:	439a      	bics	r2, r3
 8004b48:	9202      	str	r2, [sp, #8]
 8004b4a:	4295      	cmp	r5, r2
 8004b4c:	d803      	bhi.n	8004b56 <_malloc_r+0x2a2>
 8004b4e:	1b52      	subs	r2, r2, r5
 8004b50:	2a0f      	cmp	r2, #15
 8004b52:	dd00      	ble.n	8004b56 <_malloc_r+0x2a2>
 8004b54:	e09f      	b.n	8004c96 <_malloc_r+0x3e2>
 8004b56:	9b02      	ldr	r3, [sp, #8]
 8004b58:	18fb      	adds	r3, r7, r3
 8004b5a:	9303      	str	r3, [sp, #12]
 8004b5c:	4b1f      	ldr	r3, [pc, #124]	; (8004bdc <_malloc_r+0x328>)
 8004b5e:	681e      	ldr	r6, [r3, #0]
 8004b60:	4b1f      	ldr	r3, [pc, #124]	; (8004be0 <_malloc_r+0x32c>)
 8004b62:	3610      	adds	r6, #16
 8004b64:	681b      	ldr	r3, [r3, #0]
 8004b66:	1976      	adds	r6, r6, r5
 8004b68:	3301      	adds	r3, #1
 8004b6a:	d005      	beq.n	8004b78 <_malloc_r+0x2c4>
 8004b6c:	4b1d      	ldr	r3, [pc, #116]	; (8004be4 <_malloc_r+0x330>)
 8004b6e:	3b01      	subs	r3, #1
 8004b70:	199e      	adds	r6, r3, r6
 8004b72:	4b1c      	ldr	r3, [pc, #112]	; (8004be4 <_malloc_r+0x330>)
 8004b74:	425b      	negs	r3, r3
 8004b76:	401e      	ands	r6, r3
 8004b78:	0031      	movs	r1, r6
 8004b7a:	9801      	ldr	r0, [sp, #4]
 8004b7c:	f000 f9e8 	bl	8004f50 <_sbrk_r>
 8004b80:	0004      	movs	r4, r0
 8004b82:	1c43      	adds	r3, r0, #1
 8004b84:	d05f      	beq.n	8004c46 <_malloc_r+0x392>
 8004b86:	9b03      	ldr	r3, [sp, #12]
 8004b88:	4283      	cmp	r3, r0
 8004b8a:	d902      	bls.n	8004b92 <_malloc_r+0x2de>
 8004b8c:	4b10      	ldr	r3, [pc, #64]	; (8004bd0 <_malloc_r+0x31c>)
 8004b8e:	429f      	cmp	r7, r3
 8004b90:	d159      	bne.n	8004c46 <_malloc_r+0x392>
 8004b92:	4b15      	ldr	r3, [pc, #84]	; (8004be8 <_malloc_r+0x334>)
 8004b94:	681a      	ldr	r2, [r3, #0]
 8004b96:	18b1      	adds	r1, r6, r2
 8004b98:	6019      	str	r1, [r3, #0]
 8004b9a:	4b12      	ldr	r3, [pc, #72]	; (8004be4 <_malloc_r+0x330>)
 8004b9c:	1e5a      	subs	r2, r3, #1
 8004b9e:	9b03      	ldr	r3, [sp, #12]
 8004ba0:	42a3      	cmp	r3, r4
 8004ba2:	d127      	bne.n	8004bf4 <_malloc_r+0x340>
 8004ba4:	4213      	tst	r3, r2
 8004ba6:	d125      	bne.n	8004bf4 <_malloc_r+0x340>
 8004ba8:	9a02      	ldr	r2, [sp, #8]
 8004baa:	4b09      	ldr	r3, [pc, #36]	; (8004bd0 <_malloc_r+0x31c>)
 8004bac:	1992      	adds	r2, r2, r6
 8004bae:	2601      	movs	r6, #1
 8004bb0:	689b      	ldr	r3, [r3, #8]
 8004bb2:	4316      	orrs	r6, r2
 8004bb4:	605e      	str	r6, [r3, #4]
 8004bb6:	4b0c      	ldr	r3, [pc, #48]	; (8004be8 <_malloc_r+0x334>)
 8004bb8:	4a0c      	ldr	r2, [pc, #48]	; (8004bec <_malloc_r+0x338>)
 8004bba:	681b      	ldr	r3, [r3, #0]
 8004bbc:	6811      	ldr	r1, [r2, #0]
 8004bbe:	428b      	cmp	r3, r1
 8004bc0:	d900      	bls.n	8004bc4 <_malloc_r+0x310>
 8004bc2:	6013      	str	r3, [r2, #0]
 8004bc4:	4a0a      	ldr	r2, [pc, #40]	; (8004bf0 <_malloc_r+0x33c>)
 8004bc6:	6811      	ldr	r1, [r2, #0]
 8004bc8:	428b      	cmp	r3, r1
 8004bca:	d93c      	bls.n	8004c46 <_malloc_r+0x392>
 8004bcc:	6013      	str	r3, [r2, #0]
 8004bce:	e03a      	b.n	8004c46 <_malloc_r+0x392>
 8004bd0:	200002c4 	.word	0x200002c4
 8004bd4:	00000554 	.word	0x00000554
 8004bd8:	000001ff 	.word	0x000001ff
 8004bdc:	20000ab8 	.word	0x20000ab8
 8004be0:	200006cc 	.word	0x200006cc
 8004be4:	00001000 	.word	0x00001000
 8004be8:	20000a88 	.word	0x20000a88
 8004bec:	20000ab0 	.word	0x20000ab0
 8004bf0:	20000ab4 	.word	0x20000ab4
 8004bf4:	4b2d      	ldr	r3, [pc, #180]	; (8004cac <_malloc_r+0x3f8>)
 8004bf6:	6818      	ldr	r0, [r3, #0]
 8004bf8:	3001      	adds	r0, #1
 8004bfa:	d132      	bne.n	8004c62 <_malloc_r+0x3ae>
 8004bfc:	601c      	str	r4, [r3, #0]
 8004bfe:	2007      	movs	r0, #7
 8004c00:	4020      	ands	r0, r4
 8004c02:	d002      	beq.n	8004c0a <_malloc_r+0x356>
 8004c04:	2308      	movs	r3, #8
 8004c06:	1a18      	subs	r0, r3, r0
 8004c08:	1824      	adds	r4, r4, r0
 8004c0a:	4b29      	ldr	r3, [pc, #164]	; (8004cb0 <_malloc_r+0x3fc>)
 8004c0c:	19a6      	adds	r6, r4, r6
 8004c0e:	1818      	adds	r0, r3, r0
 8004c10:	4016      	ands	r6, r2
 8004c12:	1b86      	subs	r6, r0, r6
 8004c14:	0031      	movs	r1, r6
 8004c16:	9801      	ldr	r0, [sp, #4]
 8004c18:	f000 f99a 	bl	8004f50 <_sbrk_r>
 8004c1c:	1c43      	adds	r3, r0, #1
 8004c1e:	d101      	bne.n	8004c24 <_malloc_r+0x370>
 8004c20:	0020      	movs	r0, r4
 8004c22:	2600      	movs	r6, #0
 8004c24:	4a23      	ldr	r2, [pc, #140]	; (8004cb4 <_malloc_r+0x400>)
 8004c26:	1b00      	subs	r0, r0, r4
 8004c28:	6813      	ldr	r3, [r2, #0]
 8004c2a:	199b      	adds	r3, r3, r6
 8004c2c:	6013      	str	r3, [r2, #0]
 8004c2e:	2301      	movs	r3, #1
 8004c30:	4a21      	ldr	r2, [pc, #132]	; (8004cb8 <_malloc_r+0x404>)
 8004c32:	1986      	adds	r6, r0, r6
 8004c34:	431e      	orrs	r6, r3
 8004c36:	6094      	str	r4, [r2, #8]
 8004c38:	6066      	str	r6, [r4, #4]
 8004c3a:	4297      	cmp	r7, r2
 8004c3c:	d0bb      	beq.n	8004bb6 <_malloc_r+0x302>
 8004c3e:	9a02      	ldr	r2, [sp, #8]
 8004c40:	2a0f      	cmp	r2, #15
 8004c42:	d814      	bhi.n	8004c6e <_malloc_r+0x3ba>
 8004c44:	6063      	str	r3, [r4, #4]
 8004c46:	2203      	movs	r2, #3
 8004c48:	4b1b      	ldr	r3, [pc, #108]	; (8004cb8 <_malloc_r+0x404>)
 8004c4a:	689b      	ldr	r3, [r3, #8]
 8004c4c:	685b      	ldr	r3, [r3, #4]
 8004c4e:	4393      	bics	r3, r2
 8004c50:	1b5a      	subs	r2, r3, r5
 8004c52:	429d      	cmp	r5, r3
 8004c54:	d801      	bhi.n	8004c5a <_malloc_r+0x3a6>
 8004c56:	2a0f      	cmp	r2, #15
 8004c58:	dc1d      	bgt.n	8004c96 <_malloc_r+0x3e2>
 8004c5a:	9801      	ldr	r0, [sp, #4]
 8004c5c:	f7fd fb60 	bl	8002320 <__malloc_unlock>
 8004c60:	e635      	b.n	80048ce <_malloc_r+0x1a>
 8004c62:	9b03      	ldr	r3, [sp, #12]
 8004c64:	1ae3      	subs	r3, r4, r3
 8004c66:	185b      	adds	r3, r3, r1
 8004c68:	4912      	ldr	r1, [pc, #72]	; (8004cb4 <_malloc_r+0x400>)
 8004c6a:	600b      	str	r3, [r1, #0]
 8004c6c:	e7c7      	b.n	8004bfe <_malloc_r+0x34a>
 8004c6e:	2207      	movs	r2, #7
 8004c70:	9e02      	ldr	r6, [sp, #8]
 8004c72:	3e0c      	subs	r6, #12
 8004c74:	4396      	bics	r6, r2
 8004c76:	687a      	ldr	r2, [r7, #4]
 8004c78:	4013      	ands	r3, r2
 8004c7a:	2205      	movs	r2, #5
 8004c7c:	4333      	orrs	r3, r6
 8004c7e:	607b      	str	r3, [r7, #4]
 8004c80:	19bb      	adds	r3, r7, r6
 8004c82:	605a      	str	r2, [r3, #4]
 8004c84:	609a      	str	r2, [r3, #8]
 8004c86:	2e0f      	cmp	r6, #15
 8004c88:	d995      	bls.n	8004bb6 <_malloc_r+0x302>
 8004c8a:	0039      	movs	r1, r7
 8004c8c:	9801      	ldr	r0, [sp, #4]
 8004c8e:	3108      	adds	r1, #8
 8004c90:	f7ff fada 	bl	8004248 <_free_r>
 8004c94:	e78f      	b.n	8004bb6 <_malloc_r+0x302>
 8004c96:	2301      	movs	r3, #1
 8004c98:	0018      	movs	r0, r3
 8004c9a:	4907      	ldr	r1, [pc, #28]	; (8004cb8 <_malloc_r+0x404>)
 8004c9c:	4328      	orrs	r0, r5
 8004c9e:	688c      	ldr	r4, [r1, #8]
 8004ca0:	4313      	orrs	r3, r2
 8004ca2:	1965      	adds	r5, r4, r5
 8004ca4:	6060      	str	r0, [r4, #4]
 8004ca6:	608d      	str	r5, [r1, #8]
 8004ca8:	606b      	str	r3, [r5, #4]
 8004caa:	e638      	b.n	800491e <_malloc_r+0x6a>
 8004cac:	200006cc 	.word	0x200006cc
 8004cb0:	00001000 	.word	0x00001000
 8004cb4:	20000a88 	.word	0x20000a88
 8004cb8:	200002c4 	.word	0x200002c4

08004cbc <memcpy>:
 8004cbc:	2300      	movs	r3, #0
 8004cbe:	b510      	push	{r4, lr}
 8004cc0:	429a      	cmp	r2, r3
 8004cc2:	d100      	bne.n	8004cc6 <memcpy+0xa>
 8004cc4:	bd10      	pop	{r4, pc}
 8004cc6:	5ccc      	ldrb	r4, [r1, r3]
 8004cc8:	54c4      	strb	r4, [r0, r3]
 8004cca:	3301      	adds	r3, #1
 8004ccc:	e7f8      	b.n	8004cc0 <memcpy+0x4>

08004cce <memset>:
 8004cce:	0003      	movs	r3, r0
 8004cd0:	1882      	adds	r2, r0, r2
 8004cd2:	4293      	cmp	r3, r2
 8004cd4:	d100      	bne.n	8004cd8 <memset+0xa>
 8004cd6:	4770      	bx	lr
 8004cd8:	7019      	strb	r1, [r3, #0]
 8004cda:	3301      	adds	r3, #1
 8004cdc:	e7f9      	b.n	8004cd2 <memset+0x4>
	...

08004ce0 <_open_r>:
 8004ce0:	b570      	push	{r4, r5, r6, lr}
 8004ce2:	0005      	movs	r5, r0
 8004ce4:	0008      	movs	r0, r1
 8004ce6:	0011      	movs	r1, r2
 8004ce8:	2200      	movs	r2, #0
 8004cea:	4c06      	ldr	r4, [pc, #24]	; (8004d04 <_open_r+0x24>)
 8004cec:	6022      	str	r2, [r4, #0]
 8004cee:	001a      	movs	r2, r3
 8004cf0:	f7fd f8ca 	bl	8001e88 <_open>
 8004cf4:	1c43      	adds	r3, r0, #1
 8004cf6:	d103      	bne.n	8004d00 <_open_r+0x20>
 8004cf8:	6823      	ldr	r3, [r4, #0]
 8004cfa:	2b00      	cmp	r3, #0
 8004cfc:	d000      	beq.n	8004d00 <_open_r+0x20>
 8004cfe:	602b      	str	r3, [r5, #0]
 8004d00:	bd70      	pop	{r4, r5, r6, pc}
 8004d02:	46c0      	nop			; (mov r8, r8)
 8004d04:	20000d20 	.word	0x20000d20

08004d08 <_putc_r>:
 8004d08:	b570      	push	{r4, r5, r6, lr}
 8004d0a:	0006      	movs	r6, r0
 8004d0c:	000d      	movs	r5, r1
 8004d0e:	0014      	movs	r4, r2
 8004d10:	2800      	cmp	r0, #0
 8004d12:	d004      	beq.n	8004d1e <_putc_r+0x16>
 8004d14:	6983      	ldr	r3, [r0, #24]
 8004d16:	2b00      	cmp	r3, #0
 8004d18:	d101      	bne.n	8004d1e <_putc_r+0x16>
 8004d1a:	f7ff f91f 	bl	8003f5c <__sinit>
 8004d1e:	4b1c      	ldr	r3, [pc, #112]	; (8004d90 <_putc_r+0x88>)
 8004d20:	429c      	cmp	r4, r3
 8004d22:	d124      	bne.n	8004d6e <_putc_r+0x66>
 8004d24:	6874      	ldr	r4, [r6, #4]
 8004d26:	6e63      	ldr	r3, [r4, #100]	; 0x64
 8004d28:	07db      	lsls	r3, r3, #31
 8004d2a:	d405      	bmi.n	8004d38 <_putc_r+0x30>
 8004d2c:	89a3      	ldrh	r3, [r4, #12]
 8004d2e:	059b      	lsls	r3, r3, #22
 8004d30:	d402      	bmi.n	8004d38 <_putc_r+0x30>
 8004d32:	6da0      	ldr	r0, [r4, #88]	; 0x58
 8004d34:	f7ff fd34 	bl	80047a0 <__retarget_lock_acquire_recursive>
 8004d38:	68a3      	ldr	r3, [r4, #8]
 8004d3a:	3b01      	subs	r3, #1
 8004d3c:	60a3      	str	r3, [r4, #8]
 8004d3e:	2b00      	cmp	r3, #0
 8004d40:	da05      	bge.n	8004d4e <_putc_r+0x46>
 8004d42:	69a2      	ldr	r2, [r4, #24]
 8004d44:	4293      	cmp	r3, r2
 8004d46:	db1c      	blt.n	8004d82 <_putc_r+0x7a>
 8004d48:	b2eb      	uxtb	r3, r5
 8004d4a:	2b0a      	cmp	r3, #10
 8004d4c:	d019      	beq.n	8004d82 <_putc_r+0x7a>
 8004d4e:	6823      	ldr	r3, [r4, #0]
 8004d50:	1c5a      	adds	r2, r3, #1
 8004d52:	6022      	str	r2, [r4, #0]
 8004d54:	701d      	strb	r5, [r3, #0]
 8004d56:	b2ed      	uxtb	r5, r5
 8004d58:	6e63      	ldr	r3, [r4, #100]	; 0x64
 8004d5a:	07db      	lsls	r3, r3, #31
 8004d5c:	d405      	bmi.n	8004d6a <_putc_r+0x62>
 8004d5e:	89a3      	ldrh	r3, [r4, #12]
 8004d60:	059b      	lsls	r3, r3, #22
 8004d62:	d402      	bmi.n	8004d6a <_putc_r+0x62>
 8004d64:	6da0      	ldr	r0, [r4, #88]	; 0x58
 8004d66:	f7ff fd1c 	bl	80047a2 <__retarget_lock_release_recursive>
 8004d6a:	0028      	movs	r0, r5
 8004d6c:	bd70      	pop	{r4, r5, r6, pc}
 8004d6e:	4b09      	ldr	r3, [pc, #36]	; (8004d94 <_putc_r+0x8c>)
 8004d70:	429c      	cmp	r4, r3
 8004d72:	d101      	bne.n	8004d78 <_putc_r+0x70>
 8004d74:	68b4      	ldr	r4, [r6, #8]
 8004d76:	e7d6      	b.n	8004d26 <_putc_r+0x1e>
 8004d78:	4b07      	ldr	r3, [pc, #28]	; (8004d98 <_putc_r+0x90>)
 8004d7a:	429c      	cmp	r4, r3
 8004d7c:	d1d3      	bne.n	8004d26 <_putc_r+0x1e>
 8004d7e:	68f4      	ldr	r4, [r6, #12]
 8004d80:	e7d1      	b.n	8004d26 <_putc_r+0x1e>
 8004d82:	0029      	movs	r1, r5
 8004d84:	0022      	movs	r2, r4
 8004d86:	0030      	movs	r0, r6
 8004d88:	f000 fa3a 	bl	8005200 <__swbuf_r>
 8004d8c:	0005      	movs	r5, r0
 8004d8e:	e7e3      	b.n	8004d58 <_putc_r+0x50>
 8004d90:	08005ac8 	.word	0x08005ac8
 8004d94:	08005ae8 	.word	0x08005ae8
 8004d98:	08005aa8 	.word	0x08005aa8

08004d9c <lflush>:
 8004d9c:	2209      	movs	r2, #9
 8004d9e:	b510      	push	{r4, lr}
 8004da0:	8983      	ldrh	r3, [r0, #12]
 8004da2:	4013      	ands	r3, r2
 8004da4:	2200      	movs	r2, #0
 8004da6:	2b09      	cmp	r3, #9
 8004da8:	d102      	bne.n	8004db0 <lflush+0x14>
 8004daa:	f7ff f815 	bl	8003dd8 <fflush>
 8004dae:	0002      	movs	r2, r0
 8004db0:	0010      	movs	r0, r2
 8004db2:	bd10      	pop	{r4, pc}

08004db4 <__srefill_r>:
 8004db4:	b5f8      	push	{r3, r4, r5, r6, r7, lr}
 8004db6:	0005      	movs	r5, r0
 8004db8:	000c      	movs	r4, r1
 8004dba:	2800      	cmp	r0, #0
 8004dbc:	d004      	beq.n	8004dc8 <__srefill_r+0x14>
 8004dbe:	6983      	ldr	r3, [r0, #24]
 8004dc0:	2b00      	cmp	r3, #0
 8004dc2:	d101      	bne.n	8004dc8 <__srefill_r+0x14>
 8004dc4:	f7ff f8ca 	bl	8003f5c <__sinit>
 8004dc8:	4b43      	ldr	r3, [pc, #268]	; (8004ed8 <__srefill_r+0x124>)
 8004dca:	429c      	cmp	r4, r3
 8004dcc:	d116      	bne.n	8004dfc <__srefill_r+0x48>
 8004dce:	686c      	ldr	r4, [r5, #4]
 8004dd0:	230c      	movs	r3, #12
 8004dd2:	5ee2      	ldrsh	r2, [r4, r3]
 8004dd4:	2380      	movs	r3, #128	; 0x80
 8004dd6:	019b      	lsls	r3, r3, #6
 8004dd8:	421a      	tst	r2, r3
 8004dda:	d105      	bne.n	8004de8 <__srefill_r+0x34>
 8004ddc:	4313      	orrs	r3, r2
 8004dde:	81a3      	strh	r3, [r4, #12]
 8004de0:	6e62      	ldr	r2, [r4, #100]	; 0x64
 8004de2:	4b3e      	ldr	r3, [pc, #248]	; (8004edc <__srefill_r+0x128>)
 8004de4:	4013      	ands	r3, r2
 8004de6:	6663      	str	r3, [r4, #100]	; 0x64
 8004de8:	2300      	movs	r3, #0
 8004dea:	6063      	str	r3, [r4, #4]
 8004dec:	230c      	movs	r3, #12
 8004dee:	5ee2      	ldrsh	r2, [r4, r3]
 8004df0:	b293      	uxth	r3, r2
 8004df2:	0699      	lsls	r1, r3, #26
 8004df4:	d50c      	bpl.n	8004e10 <__srefill_r+0x5c>
 8004df6:	2001      	movs	r0, #1
 8004df8:	4240      	negs	r0, r0
 8004dfa:	e068      	b.n	8004ece <__srefill_r+0x11a>
 8004dfc:	4b38      	ldr	r3, [pc, #224]	; (8004ee0 <__srefill_r+0x12c>)
 8004dfe:	429c      	cmp	r4, r3
 8004e00:	d101      	bne.n	8004e06 <__srefill_r+0x52>
 8004e02:	68ac      	ldr	r4, [r5, #8]
 8004e04:	e7e4      	b.n	8004dd0 <__srefill_r+0x1c>
 8004e06:	4b37      	ldr	r3, [pc, #220]	; (8004ee4 <__srefill_r+0x130>)
 8004e08:	429c      	cmp	r4, r3
 8004e0a:	d1e1      	bne.n	8004dd0 <__srefill_r+0x1c>
 8004e0c:	68ec      	ldr	r4, [r5, #12]
 8004e0e:	e7df      	b.n	8004dd0 <__srefill_r+0x1c>
 8004e10:	0759      	lsls	r1, r3, #29
 8004e12:	d44a      	bmi.n	8004eaa <__srefill_r+0xf6>
 8004e14:	06d9      	lsls	r1, r3, #27
 8004e16:	d405      	bmi.n	8004e24 <__srefill_r+0x70>
 8004e18:	2309      	movs	r3, #9
 8004e1a:	602b      	str	r3, [r5, #0]
 8004e1c:	3337      	adds	r3, #55	; 0x37
 8004e1e:	4313      	orrs	r3, r2
 8004e20:	81a3      	strh	r3, [r4, #12]
 8004e22:	e7e8      	b.n	8004df6 <__srefill_r+0x42>
 8004e24:	2608      	movs	r6, #8
 8004e26:	4233      	tst	r3, r6
 8004e28:	d00a      	beq.n	8004e40 <__srefill_r+0x8c>
 8004e2a:	0021      	movs	r1, r4
 8004e2c:	0028      	movs	r0, r5
 8004e2e:	f7fe ff93 	bl	8003d58 <_fflush_r>
 8004e32:	2800      	cmp	r0, #0
 8004e34:	d1df      	bne.n	8004df6 <__srefill_r+0x42>
 8004e36:	89a3      	ldrh	r3, [r4, #12]
 8004e38:	60a0      	str	r0, [r4, #8]
 8004e3a:	43b3      	bics	r3, r6
 8004e3c:	81a3      	strh	r3, [r4, #12]
 8004e3e:	61a0      	str	r0, [r4, #24]
 8004e40:	2304      	movs	r3, #4
 8004e42:	89a2      	ldrh	r2, [r4, #12]
 8004e44:	4313      	orrs	r3, r2
 8004e46:	81a3      	strh	r3, [r4, #12]
 8004e48:	6923      	ldr	r3, [r4, #16]
 8004e4a:	2b00      	cmp	r3, #0
 8004e4c:	d103      	bne.n	8004e56 <__srefill_r+0xa2>
 8004e4e:	0021      	movs	r1, r4
 8004e50:	0028      	movs	r0, r5
 8004e52:	f7ff fcd7 	bl	8004804 <__smakebuf_r>
 8004e56:	230c      	movs	r3, #12
 8004e58:	5ee7      	ldrsh	r7, [r4, r3]
 8004e5a:	b2be      	uxth	r6, r7
 8004e5c:	07b3      	lsls	r3, r6, #30
 8004e5e:	d00f      	beq.n	8004e80 <__srefill_r+0xcc>
 8004e60:	2301      	movs	r3, #1
 8004e62:	81a3      	strh	r3, [r4, #12]
 8004e64:	4b20      	ldr	r3, [pc, #128]	; (8004ee8 <__srefill_r+0x134>)
 8004e66:	4921      	ldr	r1, [pc, #132]	; (8004eec <__srefill_r+0x138>)
 8004e68:	6818      	ldr	r0, [r3, #0]
 8004e6a:	f7ff fc35 	bl	80046d8 <_fwalk>
 8004e6e:	2309      	movs	r3, #9
 8004e70:	81a7      	strh	r7, [r4, #12]
 8004e72:	401e      	ands	r6, r3
 8004e74:	429e      	cmp	r6, r3
 8004e76:	d103      	bne.n	8004e80 <__srefill_r+0xcc>
 8004e78:	0021      	movs	r1, r4
 8004e7a:	0028      	movs	r0, r5
 8004e7c:	f7fe fed4 	bl	8003c28 <__sflush_r>
 8004e80:	6923      	ldr	r3, [r4, #16]
 8004e82:	6922      	ldr	r2, [r4, #16]
 8004e84:	6023      	str	r3, [r4, #0]
 8004e86:	0028      	movs	r0, r5
 8004e88:	6963      	ldr	r3, [r4, #20]
 8004e8a:	6a21      	ldr	r1, [r4, #32]
 8004e8c:	6a65      	ldr	r5, [r4, #36]	; 0x24
 8004e8e:	47a8      	blx	r5
 8004e90:	0002      	movs	r2, r0
 8004e92:	6060      	str	r0, [r4, #4]
 8004e94:	2000      	movs	r0, #0
 8004e96:	4282      	cmp	r2, r0
 8004e98:	dc19      	bgt.n	8004ece <__srefill_r+0x11a>
 8004e9a:	89a1      	ldrh	r1, [r4, #12]
 8004e9c:	4282      	cmp	r2, r0
 8004e9e:	d117      	bne.n	8004ed0 <__srefill_r+0x11c>
 8004ea0:	2320      	movs	r3, #32
 8004ea2:	430b      	orrs	r3, r1
 8004ea4:	81a3      	strh	r3, [r4, #12]
 8004ea6:	3801      	subs	r0, #1
 8004ea8:	e011      	b.n	8004ece <__srefill_r+0x11a>
 8004eaa:	6b61      	ldr	r1, [r4, #52]	; 0x34
 8004eac:	2900      	cmp	r1, #0
 8004eae:	d0cb      	beq.n	8004e48 <__srefill_r+0x94>
 8004eb0:	0023      	movs	r3, r4
 8004eb2:	3344      	adds	r3, #68	; 0x44
 8004eb4:	4299      	cmp	r1, r3
 8004eb6:	d002      	beq.n	8004ebe <__srefill_r+0x10a>
 8004eb8:	0028      	movs	r0, r5
 8004eba:	f7ff f9c5 	bl	8004248 <_free_r>
 8004ebe:	2000      	movs	r0, #0
 8004ec0:	6c23      	ldr	r3, [r4, #64]	; 0x40
 8004ec2:	6360      	str	r0, [r4, #52]	; 0x34
 8004ec4:	6063      	str	r3, [r4, #4]
 8004ec6:	4283      	cmp	r3, r0
 8004ec8:	d0be      	beq.n	8004e48 <__srefill_r+0x94>
 8004eca:	6be3      	ldr	r3, [r4, #60]	; 0x3c
 8004ecc:	6023      	str	r3, [r4, #0]
 8004ece:	bdf8      	pop	{r3, r4, r5, r6, r7, pc}
 8004ed0:	2340      	movs	r3, #64	; 0x40
 8004ed2:	6060      	str	r0, [r4, #4]
 8004ed4:	430b      	orrs	r3, r1
 8004ed6:	e7a3      	b.n	8004e20 <__srefill_r+0x6c>
 8004ed8:	08005ac8 	.word	0x08005ac8
 8004edc:	ffffdfff 	.word	0xffffdfff
 8004ee0:	08005ae8 	.word	0x08005ae8
 8004ee4:	08005aa8 	.word	0x08005aa8
 8004ee8:	08005b08 	.word	0x08005b08
 8004eec:	08004d9d 	.word	0x08004d9d

08004ef0 <__srget_r>:
 8004ef0:	b570      	push	{r4, r5, r6, lr}
 8004ef2:	0005      	movs	r5, r0
 8004ef4:	000c      	movs	r4, r1
 8004ef6:	2800      	cmp	r0, #0
 8004ef8:	d004      	beq.n	8004f04 <__srget_r+0x14>
 8004efa:	6983      	ldr	r3, [r0, #24]
 8004efc:	2b00      	cmp	r3, #0
 8004efe:	d101      	bne.n	8004f04 <__srget_r+0x14>
 8004f00:	f7ff f82c 	bl	8003f5c <__sinit>
 8004f04:	4b0f      	ldr	r3, [pc, #60]	; (8004f44 <__srget_r+0x54>)
 8004f06:	429c      	cmp	r4, r3
 8004f08:	d10e      	bne.n	8004f28 <__srget_r+0x38>
 8004f0a:	686c      	ldr	r4, [r5, #4]
 8004f0c:	0021      	movs	r1, r4
 8004f0e:	0028      	movs	r0, r5
 8004f10:	f7ff ff50 	bl	8004db4 <__srefill_r>
 8004f14:	2800      	cmp	r0, #0
 8004f16:	d111      	bne.n	8004f3c <__srget_r+0x4c>
 8004f18:	6863      	ldr	r3, [r4, #4]
 8004f1a:	3b01      	subs	r3, #1
 8004f1c:	6063      	str	r3, [r4, #4]
 8004f1e:	6823      	ldr	r3, [r4, #0]
 8004f20:	1c5a      	adds	r2, r3, #1
 8004f22:	6022      	str	r2, [r4, #0]
 8004f24:	7818      	ldrb	r0, [r3, #0]
 8004f26:	bd70      	pop	{r4, r5, r6, pc}
 8004f28:	4b07      	ldr	r3, [pc, #28]	; (8004f48 <__srget_r+0x58>)
 8004f2a:	429c      	cmp	r4, r3
 8004f2c:	d101      	bne.n	8004f32 <__srget_r+0x42>
 8004f2e:	68ac      	ldr	r4, [r5, #8]
 8004f30:	e7ec      	b.n	8004f0c <__srget_r+0x1c>
 8004f32:	4b06      	ldr	r3, [pc, #24]	; (8004f4c <__srget_r+0x5c>)
 8004f34:	429c      	cmp	r4, r3
 8004f36:	d1e9      	bne.n	8004f0c <__srget_r+0x1c>
 8004f38:	68ec      	ldr	r4, [r5, #12]
 8004f3a:	e7e7      	b.n	8004f0c <__srget_r+0x1c>
 8004f3c:	2001      	movs	r0, #1
 8004f3e:	4240      	negs	r0, r0
 8004f40:	e7f1      	b.n	8004f26 <__srget_r+0x36>
 8004f42:	46c0      	nop			; (mov r8, r8)
 8004f44:	08005ac8 	.word	0x08005ac8
 8004f48:	08005ae8 	.word	0x08005ae8
 8004f4c:	08005aa8 	.word	0x08005aa8

08004f50 <_sbrk_r>:
 8004f50:	2300      	movs	r3, #0
 8004f52:	b570      	push	{r4, r5, r6, lr}
 8004f54:	4c06      	ldr	r4, [pc, #24]	; (8004f70 <_sbrk_r+0x20>)
 8004f56:	0005      	movs	r5, r0
 8004f58:	0008      	movs	r0, r1
 8004f5a:	6023      	str	r3, [r4, #0]
 8004f5c:	f7fd f958 	bl	8002210 <_sbrk>
 8004f60:	1c43      	adds	r3, r0, #1
 8004f62:	d103      	bne.n	8004f6c <_sbrk_r+0x1c>
 8004f64:	6823      	ldr	r3, [r4, #0]
 8004f66:	2b00      	cmp	r3, #0
 8004f68:	d000      	beq.n	8004f6c <_sbrk_r+0x1c>
 8004f6a:	602b      	str	r3, [r5, #0]
 8004f6c:	bd70      	pop	{r4, r5, r6, pc}
 8004f6e:	46c0      	nop			; (mov r8, r8)
 8004f70:	20000d20 	.word	0x20000d20

08004f74 <setbuf>:
 8004f74:	424a      	negs	r2, r1
 8004f76:	414a      	adcs	r2, r1
 8004f78:	2380      	movs	r3, #128	; 0x80
 8004f7a:	b510      	push	{r4, lr}
 8004f7c:	0052      	lsls	r2, r2, #1
 8004f7e:	00db      	lsls	r3, r3, #3
 8004f80:	f000 f802 	bl	8004f88 <setvbuf>
 8004f84:	bd10      	pop	{r4, pc}
	...

08004f88 <setvbuf>:
 8004f88:	b5f0      	push	{r4, r5, r6, r7, lr}
 8004f8a:	001d      	movs	r5, r3
 8004f8c:	4b60      	ldr	r3, [pc, #384]	; (8005110 <setvbuf+0x188>)
 8004f8e:	b085      	sub	sp, #20
 8004f90:	681e      	ldr	r6, [r3, #0]
 8004f92:	0004      	movs	r4, r0
 8004f94:	000f      	movs	r7, r1
 8004f96:	9200      	str	r2, [sp, #0]
 8004f98:	2e00      	cmp	r6, #0
 8004f9a:	d005      	beq.n	8004fa8 <setvbuf+0x20>
 8004f9c:	69b3      	ldr	r3, [r6, #24]
 8004f9e:	2b00      	cmp	r3, #0
 8004fa0:	d102      	bne.n	8004fa8 <setvbuf+0x20>
 8004fa2:	0030      	movs	r0, r6
 8004fa4:	f7fe ffda 	bl	8003f5c <__sinit>
 8004fa8:	4b5a      	ldr	r3, [pc, #360]	; (8005114 <setvbuf+0x18c>)
 8004faa:	429c      	cmp	r4, r3
 8004fac:	d162      	bne.n	8005074 <setvbuf+0xec>
 8004fae:	6874      	ldr	r4, [r6, #4]
 8004fb0:	9b00      	ldr	r3, [sp, #0]
 8004fb2:	2b02      	cmp	r3, #2
 8004fb4:	d005      	beq.n	8004fc2 <setvbuf+0x3a>
 8004fb6:	2b01      	cmp	r3, #1
 8004fb8:	d900      	bls.n	8004fbc <setvbuf+0x34>
 8004fba:	e0a3      	b.n	8005104 <setvbuf+0x17c>
 8004fbc:	2d00      	cmp	r5, #0
 8004fbe:	da00      	bge.n	8004fc2 <setvbuf+0x3a>
 8004fc0:	e0a0      	b.n	8005104 <setvbuf+0x17c>
 8004fc2:	6e63      	ldr	r3, [r4, #100]	; 0x64
 8004fc4:	07db      	lsls	r3, r3, #31
 8004fc6:	d405      	bmi.n	8004fd4 <setvbuf+0x4c>
 8004fc8:	89a3      	ldrh	r3, [r4, #12]
 8004fca:	059b      	lsls	r3, r3, #22
 8004fcc:	d402      	bmi.n	8004fd4 <setvbuf+0x4c>
 8004fce:	6da0      	ldr	r0, [r4, #88]	; 0x58
 8004fd0:	f7ff fbe6 	bl	80047a0 <__retarget_lock_acquire_recursive>
 8004fd4:	0021      	movs	r1, r4
 8004fd6:	0030      	movs	r0, r6
 8004fd8:	f7fe febe 	bl	8003d58 <_fflush_r>
 8004fdc:	6b61      	ldr	r1, [r4, #52]	; 0x34
 8004fde:	2900      	cmp	r1, #0
 8004fe0:	d008      	beq.n	8004ff4 <setvbuf+0x6c>
 8004fe2:	0023      	movs	r3, r4
 8004fe4:	3344      	adds	r3, #68	; 0x44
 8004fe6:	4299      	cmp	r1, r3
 8004fe8:	d002      	beq.n	8004ff0 <setvbuf+0x68>
 8004fea:	0030      	movs	r0, r6
 8004fec:	f7ff f92c 	bl	8004248 <_free_r>
 8004ff0:	2300      	movs	r3, #0
 8004ff2:	6363      	str	r3, [r4, #52]	; 0x34
 8004ff4:	2300      	movs	r3, #0
 8004ff6:	61a3      	str	r3, [r4, #24]
 8004ff8:	6063      	str	r3, [r4, #4]
 8004ffa:	89a3      	ldrh	r3, [r4, #12]
 8004ffc:	061b      	lsls	r3, r3, #24
 8004ffe:	d503      	bpl.n	8005008 <setvbuf+0x80>
 8005000:	6921      	ldr	r1, [r4, #16]
 8005002:	0030      	movs	r0, r6
 8005004:	f7ff f920 	bl	8004248 <_free_r>
 8005008:	89a3      	ldrh	r3, [r4, #12]
 800500a:	4a43      	ldr	r2, [pc, #268]	; (8005118 <setvbuf+0x190>)
 800500c:	4013      	ands	r3, r2
 800500e:	81a3      	strh	r3, [r4, #12]
 8005010:	9b00      	ldr	r3, [sp, #0]
 8005012:	2b02      	cmp	r3, #2
 8005014:	d100      	bne.n	8005018 <setvbuf+0x90>
 8005016:	e06f      	b.n	80050f8 <setvbuf+0x170>
 8005018:	ab03      	add	r3, sp, #12
 800501a:	aa02      	add	r2, sp, #8
 800501c:	0021      	movs	r1, r4
 800501e:	0030      	movs	r0, r6
 8005020:	f7ff fbc0 	bl	80047a4 <__swhatbuf_r>
 8005024:	89a3      	ldrh	r3, [r4, #12]
 8005026:	4318      	orrs	r0, r3
 8005028:	81a0      	strh	r0, [r4, #12]
 800502a:	2d00      	cmp	r5, #0
 800502c:	d12c      	bne.n	8005088 <setvbuf+0x100>
 800502e:	9d02      	ldr	r5, [sp, #8]
 8005030:	0028      	movs	r0, r5
 8005032:	f7ff fc2b 	bl	800488c <malloc>
 8005036:	9501      	str	r5, [sp, #4]
 8005038:	1e07      	subs	r7, r0, #0
 800503a:	d157      	bne.n	80050ec <setvbuf+0x164>
 800503c:	9b02      	ldr	r3, [sp, #8]
 800503e:	9301      	str	r3, [sp, #4]
 8005040:	42ab      	cmp	r3, r5
 8005042:	d14e      	bne.n	80050e2 <setvbuf+0x15a>
 8005044:	2501      	movs	r5, #1
 8005046:	426d      	negs	r5, r5
 8005048:	2302      	movs	r3, #2
 800504a:	89a2      	ldrh	r2, [r4, #12]
 800504c:	6e61      	ldr	r1, [r4, #100]	; 0x64
 800504e:	4313      	orrs	r3, r2
 8005050:	2200      	movs	r2, #0
 8005052:	60a2      	str	r2, [r4, #8]
 8005054:	0022      	movs	r2, r4
 8005056:	3247      	adds	r2, #71	; 0x47
 8005058:	6022      	str	r2, [r4, #0]
 800505a:	6122      	str	r2, [r4, #16]
 800505c:	2201      	movs	r2, #1
 800505e:	b21b      	sxth	r3, r3
 8005060:	81a3      	strh	r3, [r4, #12]
 8005062:	6162      	str	r2, [r4, #20]
 8005064:	4211      	tst	r1, r2
 8005066:	d139      	bne.n	80050dc <setvbuf+0x154>
 8005068:	059b      	lsls	r3, r3, #22
 800506a:	d437      	bmi.n	80050dc <setvbuf+0x154>
 800506c:	6da0      	ldr	r0, [r4, #88]	; 0x58
 800506e:	f7ff fb98 	bl	80047a2 <__retarget_lock_release_recursive>
 8005072:	e033      	b.n	80050dc <setvbuf+0x154>
 8005074:	4b29      	ldr	r3, [pc, #164]	; (800511c <setvbuf+0x194>)
 8005076:	429c      	cmp	r4, r3
 8005078:	d101      	bne.n	800507e <setvbuf+0xf6>
 800507a:	68b4      	ldr	r4, [r6, #8]
 800507c:	e798      	b.n	8004fb0 <setvbuf+0x28>
 800507e:	4b28      	ldr	r3, [pc, #160]	; (8005120 <setvbuf+0x198>)
 8005080:	429c      	cmp	r4, r3
 8005082:	d195      	bne.n	8004fb0 <setvbuf+0x28>
 8005084:	68f4      	ldr	r4, [r6, #12]
 8005086:	e793      	b.n	8004fb0 <setvbuf+0x28>
 8005088:	2f00      	cmp	r7, #0
 800508a:	d0d1      	beq.n	8005030 <setvbuf+0xa8>
 800508c:	69b3      	ldr	r3, [r6, #24]
 800508e:	2b00      	cmp	r3, #0
 8005090:	d102      	bne.n	8005098 <setvbuf+0x110>
 8005092:	0030      	movs	r0, r6
 8005094:	f7fe ff62 	bl	8003f5c <__sinit>
 8005098:	9b02      	ldr	r3, [sp, #8]
 800509a:	429d      	cmp	r5, r3
 800509c:	d004      	beq.n	80050a8 <setvbuf+0x120>
 800509e:	2380      	movs	r3, #128	; 0x80
 80050a0:	89a2      	ldrh	r2, [r4, #12]
 80050a2:	011b      	lsls	r3, r3, #4
 80050a4:	4313      	orrs	r3, r2
 80050a6:	81a3      	strh	r3, [r4, #12]
 80050a8:	9b00      	ldr	r3, [sp, #0]
 80050aa:	2b01      	cmp	r3, #1
 80050ac:	d103      	bne.n	80050b6 <setvbuf+0x12e>
 80050ae:	89a3      	ldrh	r3, [r4, #12]
 80050b0:	9a00      	ldr	r2, [sp, #0]
 80050b2:	431a      	orrs	r2, r3
 80050b4:	81a2      	strh	r2, [r4, #12]
 80050b6:	2308      	movs	r3, #8
 80050b8:	89a2      	ldrh	r2, [r4, #12]
 80050ba:	6027      	str	r7, [r4, #0]
 80050bc:	6127      	str	r7, [r4, #16]
 80050be:	6165      	str	r5, [r4, #20]
 80050c0:	4013      	ands	r3, r2
 80050c2:	d01d      	beq.n	8005100 <setvbuf+0x178>
 80050c4:	07d3      	lsls	r3, r2, #31
 80050c6:	d519      	bpl.n	80050fc <setvbuf+0x174>
 80050c8:	2300      	movs	r3, #0
 80050ca:	426d      	negs	r5, r5
 80050cc:	60a3      	str	r3, [r4, #8]
 80050ce:	61a5      	str	r5, [r4, #24]
 80050d0:	2501      	movs	r5, #1
 80050d2:	6e63      	ldr	r3, [r4, #100]	; 0x64
 80050d4:	401d      	ands	r5, r3
 80050d6:	d118      	bne.n	800510a <setvbuf+0x182>
 80050d8:	0593      	lsls	r3, r2, #22
 80050da:	d5c7      	bpl.n	800506c <setvbuf+0xe4>
 80050dc:	0028      	movs	r0, r5
 80050de:	b005      	add	sp, #20
 80050e0:	bdf0      	pop	{r4, r5, r6, r7, pc}
 80050e2:	9801      	ldr	r0, [sp, #4]
 80050e4:	f7ff fbd2 	bl	800488c <malloc>
 80050e8:	1e07      	subs	r7, r0, #0
 80050ea:	d0ab      	beq.n	8005044 <setvbuf+0xbc>
 80050ec:	2380      	movs	r3, #128	; 0x80
 80050ee:	89a2      	ldrh	r2, [r4, #12]
 80050f0:	9d01      	ldr	r5, [sp, #4]
 80050f2:	4313      	orrs	r3, r2
 80050f4:	81a3      	strh	r3, [r4, #12]
 80050f6:	e7c9      	b.n	800508c <setvbuf+0x104>
 80050f8:	2500      	movs	r5, #0
 80050fa:	e7a5      	b.n	8005048 <setvbuf+0xc0>
 80050fc:	60a5      	str	r5, [r4, #8]
 80050fe:	e7e7      	b.n	80050d0 <setvbuf+0x148>
 8005100:	60a3      	str	r3, [r4, #8]
 8005102:	e7e5      	b.n	80050d0 <setvbuf+0x148>
 8005104:	2501      	movs	r5, #1
 8005106:	426d      	negs	r5, r5
 8005108:	e7e8      	b.n	80050dc <setvbuf+0x154>
 800510a:	2500      	movs	r5, #0
 800510c:	e7e6      	b.n	80050dc <setvbuf+0x154>
 800510e:	46c0      	nop			; (mov r8, r8)
 8005110:	200001d0 	.word	0x200001d0
 8005114:	08005ac8 	.word	0x08005ac8
 8005118:	fffff35c 	.word	0xfffff35c
 800511c:	08005ae8 	.word	0x08005ae8
 8005120:	08005aa8 	.word	0x08005aa8

08005124 <__sread>:
 8005124:	b570      	push	{r4, r5, r6, lr}
 8005126:	000c      	movs	r4, r1
 8005128:	250e      	movs	r5, #14
 800512a:	5f49      	ldrsh	r1, [r1, r5]
 800512c:	f000 fa4c 	bl	80055c8 <_read_r>
 8005130:	2800      	cmp	r0, #0
 8005132:	db03      	blt.n	800513c <__sread+0x18>
 8005134:	6d63      	ldr	r3, [r4, #84]	; 0x54
 8005136:	181b      	adds	r3, r3, r0
 8005138:	6563      	str	r3, [r4, #84]	; 0x54
 800513a:	bd70      	pop	{r4, r5, r6, pc}
 800513c:	89a3      	ldrh	r3, [r4, #12]
 800513e:	4a02      	ldr	r2, [pc, #8]	; (8005148 <__sread+0x24>)
 8005140:	4013      	ands	r3, r2
 8005142:	81a3      	strh	r3, [r4, #12]
 8005144:	e7f9      	b.n	800513a <__sread+0x16>
 8005146:	46c0      	nop			; (mov r8, r8)
 8005148:	ffffefff 	.word	0xffffefff

0800514c <__swrite>:
 800514c:	b5f8      	push	{r3, r4, r5, r6, r7, lr}
 800514e:	001f      	movs	r7, r3
 8005150:	898b      	ldrh	r3, [r1, #12]
 8005152:	0005      	movs	r5, r0
 8005154:	000c      	movs	r4, r1
 8005156:	0016      	movs	r6, r2
 8005158:	05db      	lsls	r3, r3, #23
 800515a:	d505      	bpl.n	8005168 <__swrite+0x1c>
 800515c:	230e      	movs	r3, #14
 800515e:	5ec9      	ldrsh	r1, [r1, r3]
 8005160:	2200      	movs	r2, #0
 8005162:	2302      	movs	r3, #2
 8005164:	f000 fa1c 	bl	80055a0 <_lseek_r>
 8005168:	89a3      	ldrh	r3, [r4, #12]
 800516a:	4a05      	ldr	r2, [pc, #20]	; (8005180 <__swrite+0x34>)
 800516c:	0028      	movs	r0, r5
 800516e:	4013      	ands	r3, r2
 8005170:	81a3      	strh	r3, [r4, #12]
 8005172:	0032      	movs	r2, r6
 8005174:	230e      	movs	r3, #14
 8005176:	5ee1      	ldrsh	r1, [r4, r3]
 8005178:	003b      	movs	r3, r7
 800517a:	f000 f8a7 	bl	80052cc <_write_r>
 800517e:	bdf8      	pop	{r3, r4, r5, r6, r7, pc}
 8005180:	ffffefff 	.word	0xffffefff

08005184 <__sseek>:
 8005184:	b570      	push	{r4, r5, r6, lr}
 8005186:	000c      	movs	r4, r1
 8005188:	250e      	movs	r5, #14
 800518a:	5f49      	ldrsh	r1, [r1, r5]
 800518c:	f000 fa08 	bl	80055a0 <_lseek_r>
 8005190:	89a3      	ldrh	r3, [r4, #12]
 8005192:	1c42      	adds	r2, r0, #1
 8005194:	d103      	bne.n	800519e <__sseek+0x1a>
 8005196:	4a05      	ldr	r2, [pc, #20]	; (80051ac <__sseek+0x28>)
 8005198:	4013      	ands	r3, r2
 800519a:	81a3      	strh	r3, [r4, #12]
 800519c:	bd70      	pop	{r4, r5, r6, pc}
 800519e:	2280      	movs	r2, #128	; 0x80
 80051a0:	0152      	lsls	r2, r2, #5
 80051a2:	4313      	orrs	r3, r2
 80051a4:	81a3      	strh	r3, [r4, #12]
 80051a6:	6560      	str	r0, [r4, #84]	; 0x54
 80051a8:	e7f8      	b.n	800519c <__sseek+0x18>
 80051aa:	46c0      	nop			; (mov r8, r8)
 80051ac:	ffffefff 	.word	0xffffefff

080051b0 <__sclose>:
 80051b0:	b510      	push	{r4, lr}
 80051b2:	230e      	movs	r3, #14
 80051b4:	5ec9      	ldrsh	r1, [r1, r3]
 80051b6:	f000 f995 	bl	80054e4 <_close_r>
 80051ba:	bd10      	pop	{r4, pc}

080051bc <strncmp>:
 80051bc:	2300      	movs	r3, #0
 80051be:	b530      	push	{r4, r5, lr}
 80051c0:	429a      	cmp	r2, r3
 80051c2:	d00a      	beq.n	80051da <strncmp+0x1e>
 80051c4:	3a01      	subs	r2, #1
 80051c6:	5cc4      	ldrb	r4, [r0, r3]
 80051c8:	5ccd      	ldrb	r5, [r1, r3]
 80051ca:	42ac      	cmp	r4, r5
 80051cc:	d104      	bne.n	80051d8 <strncmp+0x1c>
 80051ce:	429a      	cmp	r2, r3
 80051d0:	d002      	beq.n	80051d8 <strncmp+0x1c>
 80051d2:	3301      	adds	r3, #1
 80051d4:	2c00      	cmp	r4, #0
 80051d6:	d1f6      	bne.n	80051c6 <strncmp+0xa>
 80051d8:	1b63      	subs	r3, r4, r5
 80051da:	0018      	movs	r0, r3
 80051dc:	bd30      	pop	{r4, r5, pc}

080051de <strspn>:
 80051de:	0003      	movs	r3, r0
 80051e0:	b530      	push	{r4, r5, lr}
 80051e2:	781c      	ldrb	r4, [r3, #0]
 80051e4:	2c00      	cmp	r4, #0
 80051e6:	d007      	beq.n	80051f8 <strspn+0x1a>
 80051e8:	000a      	movs	r2, r1
 80051ea:	e002      	b.n	80051f2 <strspn+0x14>
 80051ec:	42ac      	cmp	r4, r5
 80051ee:	d005      	beq.n	80051fc <strspn+0x1e>
 80051f0:	3201      	adds	r2, #1
 80051f2:	7815      	ldrb	r5, [r2, #0]
 80051f4:	2d00      	cmp	r5, #0
 80051f6:	d1f9      	bne.n	80051ec <strspn+0xe>
 80051f8:	1a18      	subs	r0, r3, r0
 80051fa:	bd30      	pop	{r4, r5, pc}
 80051fc:	3301      	adds	r3, #1
 80051fe:	e7f0      	b.n	80051e2 <strspn+0x4>

08005200 <__swbuf_r>:
 8005200:	b5f8      	push	{r3, r4, r5, r6, r7, lr}
 8005202:	0005      	movs	r5, r0
 8005204:	000e      	movs	r6, r1
 8005206:	0014      	movs	r4, r2
 8005208:	2800      	cmp	r0, #0
 800520a:	d004      	beq.n	8005216 <__swbuf_r+0x16>
 800520c:	6983      	ldr	r3, [r0, #24]
 800520e:	2b00      	cmp	r3, #0
 8005210:	d101      	bne.n	8005216 <__swbuf_r+0x16>
 8005212:	f7fe fea3 	bl	8003f5c <__sinit>
 8005216:	4b29      	ldr	r3, [pc, #164]	; (80052bc <__swbuf_r+0xbc>)
 8005218:	429c      	cmp	r4, r3
 800521a:	d133      	bne.n	8005284 <__swbuf_r+0x84>
 800521c:	686c      	ldr	r4, [r5, #4]
 800521e:	69a3      	ldr	r3, [r4, #24]
 8005220:	60a3      	str	r3, [r4, #8]
 8005222:	89a3      	ldrh	r3, [r4, #12]
 8005224:	071b      	lsls	r3, r3, #28
 8005226:	d537      	bpl.n	8005298 <__swbuf_r+0x98>
 8005228:	6923      	ldr	r3, [r4, #16]
 800522a:	2b00      	cmp	r3, #0
 800522c:	d034      	beq.n	8005298 <__swbuf_r+0x98>
 800522e:	230c      	movs	r3, #12
 8005230:	5ee2      	ldrsh	r2, [r4, r3]
 8005232:	2380      	movs	r3, #128	; 0x80
 8005234:	019b      	lsls	r3, r3, #6
 8005236:	b2f7      	uxtb	r7, r6
 8005238:	b2f6      	uxtb	r6, r6
 800523a:	421a      	tst	r2, r3
 800523c:	d036      	beq.n	80052ac <__swbuf_r+0xac>
 800523e:	6823      	ldr	r3, [r4, #0]
 8005240:	6922      	ldr	r2, [r4, #16]
 8005242:	1a98      	subs	r0, r3, r2
 8005244:	6963      	ldr	r3, [r4, #20]
 8005246:	4298      	cmp	r0, r3
 8005248:	db05      	blt.n	8005256 <__swbuf_r+0x56>
 800524a:	0021      	movs	r1, r4
 800524c:	0028      	movs	r0, r5
 800524e:	f7fe fd83 	bl	8003d58 <_fflush_r>
 8005252:	2800      	cmp	r0, #0
 8005254:	d126      	bne.n	80052a4 <__swbuf_r+0xa4>
 8005256:	68a3      	ldr	r3, [r4, #8]
 8005258:	3001      	adds	r0, #1
 800525a:	3b01      	subs	r3, #1
 800525c:	60a3      	str	r3, [r4, #8]
 800525e:	6823      	ldr	r3, [r4, #0]
 8005260:	1c5a      	adds	r2, r3, #1
 8005262:	6022      	str	r2, [r4, #0]
 8005264:	701f      	strb	r7, [r3, #0]
 8005266:	6963      	ldr	r3, [r4, #20]
 8005268:	4298      	cmp	r0, r3
 800526a:	d004      	beq.n	8005276 <__swbuf_r+0x76>
 800526c:	89a3      	ldrh	r3, [r4, #12]
 800526e:	07db      	lsls	r3, r3, #31
 8005270:	d51a      	bpl.n	80052a8 <__swbuf_r+0xa8>
 8005272:	2e0a      	cmp	r6, #10
 8005274:	d118      	bne.n	80052a8 <__swbuf_r+0xa8>
 8005276:	0021      	movs	r1, r4
 8005278:	0028      	movs	r0, r5
 800527a:	f7fe fd6d 	bl	8003d58 <_fflush_r>
 800527e:	2800      	cmp	r0, #0
 8005280:	d012      	beq.n	80052a8 <__swbuf_r+0xa8>
 8005282:	e00f      	b.n	80052a4 <__swbuf_r+0xa4>
 8005284:	4b0e      	ldr	r3, [pc, #56]	; (80052c0 <__swbuf_r+0xc0>)
 8005286:	429c      	cmp	r4, r3
 8005288:	d101      	bne.n	800528e <__swbuf_r+0x8e>
 800528a:	68ac      	ldr	r4, [r5, #8]
 800528c:	e7c7      	b.n	800521e <__swbuf_r+0x1e>
 800528e:	4b0d      	ldr	r3, [pc, #52]	; (80052c4 <__swbuf_r+0xc4>)
 8005290:	429c      	cmp	r4, r3
 8005292:	d1c4      	bne.n	800521e <__swbuf_r+0x1e>
 8005294:	68ec      	ldr	r4, [r5, #12]
 8005296:	e7c2      	b.n	800521e <__swbuf_r+0x1e>
 8005298:	0021      	movs	r1, r4
 800529a:	0028      	movs	r0, r5
 800529c:	f000 f82a 	bl	80052f4 <__swsetup_r>
 80052a0:	2800      	cmp	r0, #0
 80052a2:	d0c4      	beq.n	800522e <__swbuf_r+0x2e>
 80052a4:	2601      	movs	r6, #1
 80052a6:	4276      	negs	r6, r6
 80052a8:	0030      	movs	r0, r6
 80052aa:	bdf8      	pop	{r3, r4, r5, r6, r7, pc}
 80052ac:	4313      	orrs	r3, r2
 80052ae:	81a3      	strh	r3, [r4, #12]
 80052b0:	6e62      	ldr	r2, [r4, #100]	; 0x64
 80052b2:	4b05      	ldr	r3, [pc, #20]	; (80052c8 <__swbuf_r+0xc8>)
 80052b4:	4013      	ands	r3, r2
 80052b6:	6663      	str	r3, [r4, #100]	; 0x64
 80052b8:	e7c1      	b.n	800523e <__swbuf_r+0x3e>
 80052ba:	46c0      	nop			; (mov r8, r8)
 80052bc:	08005ac8 	.word	0x08005ac8
 80052c0:	08005ae8 	.word	0x08005ae8
 80052c4:	08005aa8 	.word	0x08005aa8
 80052c8:	ffffdfff 	.word	0xffffdfff

080052cc <_write_r>:
 80052cc:	b570      	push	{r4, r5, r6, lr}
 80052ce:	0005      	movs	r5, r0
 80052d0:	0008      	movs	r0, r1
 80052d2:	0011      	movs	r1, r2
 80052d4:	2200      	movs	r2, #0
 80052d6:	4c06      	ldr	r4, [pc, #24]	; (80052f0 <_write_r+0x24>)
 80052d8:	6022      	str	r2, [r4, #0]
 80052da:	001a      	movs	r2, r3
 80052dc:	f7fc fe56 	bl	8001f8c <_write>
 80052e0:	1c43      	adds	r3, r0, #1
 80052e2:	d103      	bne.n	80052ec <_write_r+0x20>
 80052e4:	6823      	ldr	r3, [r4, #0]
 80052e6:	2b00      	cmp	r3, #0
 80052e8:	d000      	beq.n	80052ec <_write_r+0x20>
 80052ea:	602b      	str	r3, [r5, #0]
 80052ec:	bd70      	pop	{r4, r5, r6, pc}
 80052ee:	46c0      	nop			; (mov r8, r8)
 80052f0:	20000d20 	.word	0x20000d20

080052f4 <__swsetup_r>:
 80052f4:	4b36      	ldr	r3, [pc, #216]	; (80053d0 <__swsetup_r+0xdc>)
 80052f6:	b570      	push	{r4, r5, r6, lr}
 80052f8:	681d      	ldr	r5, [r3, #0]
 80052fa:	0006      	movs	r6, r0
 80052fc:	000c      	movs	r4, r1
 80052fe:	2d00      	cmp	r5, #0
 8005300:	d005      	beq.n	800530e <__swsetup_r+0x1a>
 8005302:	69ab      	ldr	r3, [r5, #24]
 8005304:	2b00      	cmp	r3, #0
 8005306:	d102      	bne.n	800530e <__swsetup_r+0x1a>
 8005308:	0028      	movs	r0, r5
 800530a:	f7fe fe27 	bl	8003f5c <__sinit>
 800530e:	4b31      	ldr	r3, [pc, #196]	; (80053d4 <__swsetup_r+0xe0>)
 8005310:	429c      	cmp	r4, r3
 8005312:	d10f      	bne.n	8005334 <__swsetup_r+0x40>
 8005314:	686c      	ldr	r4, [r5, #4]
 8005316:	230c      	movs	r3, #12
 8005318:	5ee2      	ldrsh	r2, [r4, r3]
 800531a:	b293      	uxth	r3, r2
 800531c:	0719      	lsls	r1, r3, #28
 800531e:	d42d      	bmi.n	800537c <__swsetup_r+0x88>
 8005320:	06d9      	lsls	r1, r3, #27
 8005322:	d411      	bmi.n	8005348 <__swsetup_r+0x54>
 8005324:	2309      	movs	r3, #9
 8005326:	2001      	movs	r0, #1
 8005328:	6033      	str	r3, [r6, #0]
 800532a:	3337      	adds	r3, #55	; 0x37
 800532c:	4313      	orrs	r3, r2
 800532e:	81a3      	strh	r3, [r4, #12]
 8005330:	4240      	negs	r0, r0
 8005332:	bd70      	pop	{r4, r5, r6, pc}
 8005334:	4b28      	ldr	r3, [pc, #160]	; (80053d8 <__swsetup_r+0xe4>)
 8005336:	429c      	cmp	r4, r3
 8005338:	d101      	bne.n	800533e <__swsetup_r+0x4a>
 800533a:	68ac      	ldr	r4, [r5, #8]
 800533c:	e7eb      	b.n	8005316 <__swsetup_r+0x22>
 800533e:	4b27      	ldr	r3, [pc, #156]	; (80053dc <__swsetup_r+0xe8>)
 8005340:	429c      	cmp	r4, r3
 8005342:	d1e8      	bne.n	8005316 <__swsetup_r+0x22>
 8005344:	68ec      	ldr	r4, [r5, #12]
 8005346:	e7e6      	b.n	8005316 <__swsetup_r+0x22>
 8005348:	075b      	lsls	r3, r3, #29
 800534a:	d513      	bpl.n	8005374 <__swsetup_r+0x80>
 800534c:	6b61      	ldr	r1, [r4, #52]	; 0x34
 800534e:	2900      	cmp	r1, #0
 8005350:	d008      	beq.n	8005364 <__swsetup_r+0x70>
 8005352:	0023      	movs	r3, r4
 8005354:	3344      	adds	r3, #68	; 0x44
 8005356:	4299      	cmp	r1, r3
 8005358:	d002      	beq.n	8005360 <__swsetup_r+0x6c>
 800535a:	0030      	movs	r0, r6
 800535c:	f7fe ff74 	bl	8004248 <_free_r>
 8005360:	2300      	movs	r3, #0
 8005362:	6363      	str	r3, [r4, #52]	; 0x34
 8005364:	2224      	movs	r2, #36	; 0x24
 8005366:	89a3      	ldrh	r3, [r4, #12]
 8005368:	4393      	bics	r3, r2
 800536a:	81a3      	strh	r3, [r4, #12]
 800536c:	2300      	movs	r3, #0
 800536e:	6063      	str	r3, [r4, #4]
 8005370:	6923      	ldr	r3, [r4, #16]
 8005372:	6023      	str	r3, [r4, #0]
 8005374:	2308      	movs	r3, #8
 8005376:	89a2      	ldrh	r2, [r4, #12]
 8005378:	4313      	orrs	r3, r2
 800537a:	81a3      	strh	r3, [r4, #12]
 800537c:	6923      	ldr	r3, [r4, #16]
 800537e:	2b00      	cmp	r3, #0
 8005380:	d10b      	bne.n	800539a <__swsetup_r+0xa6>
 8005382:	21a0      	movs	r1, #160	; 0xa0
 8005384:	2280      	movs	r2, #128	; 0x80
 8005386:	89a3      	ldrh	r3, [r4, #12]
 8005388:	0089      	lsls	r1, r1, #2
 800538a:	0092      	lsls	r2, r2, #2
 800538c:	400b      	ands	r3, r1
 800538e:	4293      	cmp	r3, r2
 8005390:	d003      	beq.n	800539a <__swsetup_r+0xa6>
 8005392:	0021      	movs	r1, r4
 8005394:	0030      	movs	r0, r6
 8005396:	f7ff fa35 	bl	8004804 <__smakebuf_r>
 800539a:	2301      	movs	r3, #1
 800539c:	89a2      	ldrh	r2, [r4, #12]
 800539e:	4013      	ands	r3, r2
 80053a0:	d011      	beq.n	80053c6 <__swsetup_r+0xd2>
 80053a2:	2300      	movs	r3, #0
 80053a4:	60a3      	str	r3, [r4, #8]
 80053a6:	6963      	ldr	r3, [r4, #20]
 80053a8:	425b      	negs	r3, r3
 80053aa:	61a3      	str	r3, [r4, #24]
 80053ac:	2000      	movs	r0, #0
 80053ae:	6923      	ldr	r3, [r4, #16]
 80053b0:	4283      	cmp	r3, r0
 80053b2:	d1be      	bne.n	8005332 <__swsetup_r+0x3e>
 80053b4:	230c      	movs	r3, #12
 80053b6:	5ee2      	ldrsh	r2, [r4, r3]
 80053b8:	0613      	lsls	r3, r2, #24
 80053ba:	d5ba      	bpl.n	8005332 <__swsetup_r+0x3e>
 80053bc:	2340      	movs	r3, #64	; 0x40
 80053be:	4313      	orrs	r3, r2
 80053c0:	81a3      	strh	r3, [r4, #12]
 80053c2:	3801      	subs	r0, #1
 80053c4:	e7b5      	b.n	8005332 <__swsetup_r+0x3e>
 80053c6:	0792      	lsls	r2, r2, #30
 80053c8:	d400      	bmi.n	80053cc <__swsetup_r+0xd8>
 80053ca:	6963      	ldr	r3, [r4, #20]
 80053cc:	60a3      	str	r3, [r4, #8]
 80053ce:	e7ed      	b.n	80053ac <__swsetup_r+0xb8>
 80053d0:	200001d0 	.word	0x200001d0
 80053d4:	08005ac8 	.word	0x08005ac8
 80053d8:	08005ae8 	.word	0x08005ae8
 80053dc:	08005aa8 	.word	0x08005aa8

080053e0 <__call_exitprocs>:
 80053e0:	b5f0      	push	{r4, r5, r6, r7, lr}
 80053e2:	4b3d      	ldr	r3, [pc, #244]	; (80054d8 <__call_exitprocs+0xf8>)
 80053e4:	b087      	sub	sp, #28
 80053e6:	9005      	str	r0, [sp, #20]
 80053e8:	6818      	ldr	r0, [r3, #0]
 80053ea:	9103      	str	r1, [sp, #12]
 80053ec:	f7ff f9d8 	bl	80047a0 <__retarget_lock_acquire_recursive>
 80053f0:	4b3a      	ldr	r3, [pc, #232]	; (80054dc <__call_exitprocs+0xfc>)
 80053f2:	681b      	ldr	r3, [r3, #0]
 80053f4:	9302      	str	r3, [sp, #8]
 80053f6:	9b02      	ldr	r3, [sp, #8]
 80053f8:	001f      	movs	r7, r3
 80053fa:	6c9c      	ldr	r4, [r3, #72]	; 0x48
 80053fc:	3748      	adds	r7, #72	; 0x48
 80053fe:	2c00      	cmp	r4, #0
 8005400:	d010      	beq.n	8005424 <__call_exitprocs+0x44>
 8005402:	0023      	movs	r3, r4
 8005404:	6865      	ldr	r5, [r4, #4]
 8005406:	3388      	adds	r3, #136	; 0x88
 8005408:	681e      	ldr	r6, [r3, #0]
 800540a:	1e6b      	subs	r3, r5, #1
 800540c:	00ad      	lsls	r5, r5, #2
 800540e:	9300      	str	r3, [sp, #0]
 8005410:	1963      	adds	r3, r4, r5
 8005412:	3d04      	subs	r5, #4
 8005414:	9301      	str	r3, [sp, #4]
 8005416:	1975      	adds	r5, r6, r5
 8005418:	9b00      	ldr	r3, [sp, #0]
 800541a:	2b00      	cmp	r3, #0
 800541c:	da08      	bge.n	8005430 <__call_exitprocs+0x50>
 800541e:	4b30      	ldr	r3, [pc, #192]	; (80054e0 <__call_exitprocs+0x100>)
 8005420:	2b00      	cmp	r3, #0
 8005422:	d145      	bne.n	80054b0 <__call_exitprocs+0xd0>
 8005424:	4b2c      	ldr	r3, [pc, #176]	; (80054d8 <__call_exitprocs+0xf8>)
 8005426:	6818      	ldr	r0, [r3, #0]
 8005428:	f7ff f9bb 	bl	80047a2 <__retarget_lock_release_recursive>
 800542c:	b007      	add	sp, #28
 800542e:	bdf0      	pop	{r4, r5, r6, r7, pc}
 8005430:	9b03      	ldr	r3, [sp, #12]
 8005432:	2b00      	cmp	r3, #0
 8005434:	d00f      	beq.n	8005456 <__call_exitprocs+0x76>
 8005436:	2e00      	cmp	r6, #0
 8005438:	d107      	bne.n	800544a <__call_exitprocs+0x6a>
 800543a:	9b00      	ldr	r3, [sp, #0]
 800543c:	3d04      	subs	r5, #4
 800543e:	3b01      	subs	r3, #1
 8005440:	9300      	str	r3, [sp, #0]
 8005442:	9b01      	ldr	r3, [sp, #4]
 8005444:	3b04      	subs	r3, #4
 8005446:	9301      	str	r3, [sp, #4]
 8005448:	e7e6      	b.n	8005418 <__call_exitprocs+0x38>
 800544a:	002b      	movs	r3, r5
 800544c:	3380      	adds	r3, #128	; 0x80
 800544e:	681b      	ldr	r3, [r3, #0]
 8005450:	9a03      	ldr	r2, [sp, #12]
 8005452:	429a      	cmp	r2, r3
 8005454:	d1f1      	bne.n	800543a <__call_exitprocs+0x5a>
 8005456:	6862      	ldr	r2, [r4, #4]
 8005458:	9b01      	ldr	r3, [sp, #4]
 800545a:	9900      	ldr	r1, [sp, #0]
 800545c:	3a01      	subs	r2, #1
 800545e:	685b      	ldr	r3, [r3, #4]
 8005460:	4291      	cmp	r1, r2
 8005462:	d117      	bne.n	8005494 <__call_exitprocs+0xb4>
 8005464:	6061      	str	r1, [r4, #4]
 8005466:	2b00      	cmp	r3, #0
 8005468:	d0e7      	beq.n	800543a <__call_exitprocs+0x5a>
 800546a:	6862      	ldr	r2, [r4, #4]
 800546c:	9204      	str	r2, [sp, #16]
 800546e:	2e00      	cmp	r6, #0
 8005470:	d007      	beq.n	8005482 <__call_exitprocs+0xa2>
 8005472:	2201      	movs	r2, #1
 8005474:	9900      	ldr	r1, [sp, #0]
 8005476:	408a      	lsls	r2, r1
 8005478:	0031      	movs	r1, r6
 800547a:	31fc      	adds	r1, #252	; 0xfc
 800547c:	6848      	ldr	r0, [r1, #4]
 800547e:	4210      	tst	r0, r2
 8005480:	d10c      	bne.n	800549c <__call_exitprocs+0xbc>
 8005482:	4798      	blx	r3
 8005484:	9b04      	ldr	r3, [sp, #16]
 8005486:	6862      	ldr	r2, [r4, #4]
 8005488:	4293      	cmp	r3, r2
 800548a:	d1b4      	bne.n	80053f6 <__call_exitprocs+0x16>
 800548c:	683b      	ldr	r3, [r7, #0]
 800548e:	429c      	cmp	r4, r3
 8005490:	d0d3      	beq.n	800543a <__call_exitprocs+0x5a>
 8005492:	e7b0      	b.n	80053f6 <__call_exitprocs+0x16>
 8005494:	2200      	movs	r2, #0
 8005496:	9901      	ldr	r1, [sp, #4]
 8005498:	604a      	str	r2, [r1, #4]
 800549a:	e7e4      	b.n	8005466 <__call_exitprocs+0x86>
 800549c:	6889      	ldr	r1, [r1, #8]
 800549e:	4211      	tst	r1, r2
 80054a0:	d103      	bne.n	80054aa <__call_exitprocs+0xca>
 80054a2:	6829      	ldr	r1, [r5, #0]
 80054a4:	9805      	ldr	r0, [sp, #20]
 80054a6:	4798      	blx	r3
 80054a8:	e7ec      	b.n	8005484 <__call_exitprocs+0xa4>
 80054aa:	6828      	ldr	r0, [r5, #0]
 80054ac:	4798      	blx	r3
 80054ae:	e7e9      	b.n	8005484 <__call_exitprocs+0xa4>
 80054b0:	6862      	ldr	r2, [r4, #4]
 80054b2:	6823      	ldr	r3, [r4, #0]
 80054b4:	2a00      	cmp	r2, #0
 80054b6:	d10c      	bne.n	80054d2 <__call_exitprocs+0xf2>
 80054b8:	2b00      	cmp	r3, #0
 80054ba:	d00a      	beq.n	80054d2 <__call_exitprocs+0xf2>
 80054bc:	603b      	str	r3, [r7, #0]
 80054be:	2e00      	cmp	r6, #0
 80054c0:	d002      	beq.n	80054c8 <__call_exitprocs+0xe8>
 80054c2:	0030      	movs	r0, r6
 80054c4:	f7ff f9ec 	bl	80048a0 <free>
 80054c8:	0020      	movs	r0, r4
 80054ca:	f7ff f9e9 	bl	80048a0 <free>
 80054ce:	683c      	ldr	r4, [r7, #0]
 80054d0:	e795      	b.n	80053fe <__call_exitprocs+0x1e>
 80054d2:	0027      	movs	r7, r4
 80054d4:	001c      	movs	r4, r3
 80054d6:	e792      	b.n	80053fe <__call_exitprocs+0x1e>
 80054d8:	200006d4 	.word	0x200006d4
 80054dc:	08005b08 	.word	0x08005b08
 80054e0:	080048a1 	.word	0x080048a1

080054e4 <_close_r>:
 80054e4:	2300      	movs	r3, #0
 80054e6:	b570      	push	{r4, r5, r6, lr}
 80054e8:	4c06      	ldr	r4, [pc, #24]	; (8005504 <_close_r+0x20>)
 80054ea:	0005      	movs	r5, r0
 80054ec:	0008      	movs	r0, r1
 80054ee:	6023      	str	r3, [r4, #0]
 80054f0:	f7fc fd2a 	bl	8001f48 <_close>
 80054f4:	1c43      	adds	r3, r0, #1
 80054f6:	d103      	bne.n	8005500 <_close_r+0x1c>
 80054f8:	6823      	ldr	r3, [r4, #0]
 80054fa:	2b00      	cmp	r3, #0
 80054fc:	d000      	beq.n	8005500 <_close_r+0x1c>
 80054fe:	602b      	str	r3, [r5, #0]
 8005500:	bd70      	pop	{r4, r5, r6, pc}
 8005502:	46c0      	nop			; (mov r8, r8)
 8005504:	20000d20 	.word	0x20000d20

08005508 <__sflags>:
 8005508:	780b      	ldrb	r3, [r1, #0]
 800550a:	b5f0      	push	{r4, r5, r6, r7, lr}
 800550c:	2b72      	cmp	r3, #114	; 0x72
 800550e:	d019      	beq.n	8005544 <__sflags+0x3c>
 8005510:	2b77      	cmp	r3, #119	; 0x77
 8005512:	d007      	beq.n	8005524 <__sflags+0x1c>
 8005514:	2b61      	cmp	r3, #97	; 0x61
 8005516:	d119      	bne.n	800554c <__sflags+0x44>
 8005518:	2482      	movs	r4, #130	; 0x82
 800551a:	2084      	movs	r0, #132	; 0x84
 800551c:	00a4      	lsls	r4, r4, #2
 800551e:	2301      	movs	r3, #1
 8005520:	0040      	lsls	r0, r0, #1
 8005522:	e003      	b.n	800552c <__sflags+0x24>
 8005524:	24c0      	movs	r4, #192	; 0xc0
 8005526:	2301      	movs	r3, #1
 8005528:	2008      	movs	r0, #8
 800552a:	00e4      	lsls	r4, r4, #3
 800552c:	2510      	movs	r5, #16
 800552e:	2680      	movs	r6, #128	; 0x80
 8005530:	271c      	movs	r7, #28
 8005532:	46ac      	mov	ip, r5
 8005534:	0136      	lsls	r6, r6, #4
 8005536:	3101      	adds	r1, #1
 8005538:	780d      	ldrb	r5, [r1, #0]
 800553a:	2d00      	cmp	r5, #0
 800553c:	d10a      	bne.n	8005554 <__sflags+0x4c>
 800553e:	4323      	orrs	r3, r4
 8005540:	6013      	str	r3, [r2, #0]
 8005542:	e006      	b.n	8005552 <__sflags+0x4a>
 8005544:	2400      	movs	r4, #0
 8005546:	2004      	movs	r0, #4
 8005548:	0023      	movs	r3, r4
 800554a:	e7ef      	b.n	800552c <__sflags+0x24>
 800554c:	2316      	movs	r3, #22
 800554e:	6003      	str	r3, [r0, #0]
 8005550:	2000      	movs	r0, #0
 8005552:	bdf0      	pop	{r4, r5, r6, r7, pc}
 8005554:	2d62      	cmp	r5, #98	; 0x62
 8005556:	d00b      	beq.n	8005570 <__sflags+0x68>
 8005558:	2d78      	cmp	r5, #120	; 0x78
 800555a:	d00c      	beq.n	8005576 <__sflags+0x6e>
 800555c:	2d2b      	cmp	r5, #43	; 0x2b
 800555e:	d1ea      	bne.n	8005536 <__sflags+0x2e>
 8005560:	4665      	mov	r5, ip
 8005562:	43b8      	bics	r0, r7
 8005564:	4328      	orrs	r0, r5
 8005566:	2503      	movs	r5, #3
 8005568:	43ab      	bics	r3, r5
 800556a:	3d01      	subs	r5, #1
 800556c:	432b      	orrs	r3, r5
 800556e:	e7e2      	b.n	8005536 <__sflags+0x2e>
 8005570:	2580      	movs	r5, #128	; 0x80
 8005572:	026d      	lsls	r5, r5, #9
 8005574:	e7fa      	b.n	800556c <__sflags+0x64>
 8005576:	4333      	orrs	r3, r6
 8005578:	e7dd      	b.n	8005536 <__sflags+0x2e>
	...

0800557c <_isatty_r>:
 800557c:	2300      	movs	r3, #0
 800557e:	b570      	push	{r4, r5, r6, lr}
 8005580:	4c06      	ldr	r4, [pc, #24]	; (800559c <_isatty_r+0x20>)
 8005582:	0005      	movs	r5, r0
 8005584:	0008      	movs	r0, r1
 8005586:	6023      	str	r3, [r4, #0]
 8005588:	f7fc fdf4 	bl	8002174 <_isatty>
 800558c:	1c43      	adds	r3, r0, #1
 800558e:	d103      	bne.n	8005598 <_isatty_r+0x1c>
 8005590:	6823      	ldr	r3, [r4, #0]
 8005592:	2b00      	cmp	r3, #0
 8005594:	d000      	beq.n	8005598 <_isatty_r+0x1c>
 8005596:	602b      	str	r3, [r5, #0]
 8005598:	bd70      	pop	{r4, r5, r6, pc}
 800559a:	46c0      	nop			; (mov r8, r8)
 800559c:	20000d20 	.word	0x20000d20

080055a0 <_lseek_r>:
 80055a0:	b570      	push	{r4, r5, r6, lr}
 80055a2:	0005      	movs	r5, r0
 80055a4:	0008      	movs	r0, r1
 80055a6:	0011      	movs	r1, r2
 80055a8:	2200      	movs	r2, #0
 80055aa:	4c06      	ldr	r4, [pc, #24]	; (80055c4 <_lseek_r+0x24>)
 80055ac:	6022      	str	r2, [r4, #0]
 80055ae:	001a      	movs	r2, r3
 80055b0:	f7fc fe02 	bl	80021b8 <_lseek>
 80055b4:	1c43      	adds	r3, r0, #1
 80055b6:	d103      	bne.n	80055c0 <_lseek_r+0x20>
 80055b8:	6823      	ldr	r3, [r4, #0]
 80055ba:	2b00      	cmp	r3, #0
 80055bc:	d000      	beq.n	80055c0 <_lseek_r+0x20>
 80055be:	602b      	str	r3, [r5, #0]
 80055c0:	bd70      	pop	{r4, r5, r6, pc}
 80055c2:	46c0      	nop			; (mov r8, r8)
 80055c4:	20000d20 	.word	0x20000d20

080055c8 <_read_r>:
 80055c8:	b570      	push	{r4, r5, r6, lr}
 80055ca:	0005      	movs	r5, r0
 80055cc:	0008      	movs	r0, r1
 80055ce:	0011      	movs	r1, r2
 80055d0:	2200      	movs	r2, #0
 80055d2:	4c06      	ldr	r4, [pc, #24]	; (80055ec <_read_r+0x24>)
 80055d4:	6022      	str	r2, [r4, #0]
 80055d6:	001a      	movs	r2, r3
 80055d8:	f7fc fd64 	bl	80020a4 <_read>
 80055dc:	1c43      	adds	r3, r0, #1
 80055de:	d103      	bne.n	80055e8 <_read_r+0x20>
 80055e0:	6823      	ldr	r3, [r4, #0]
 80055e2:	2b00      	cmp	r3, #0
 80055e4:	d000      	beq.n	80055e8 <_read_r+0x20>
 80055e6:	602b      	str	r3, [r5, #0]
 80055e8:	bd70      	pop	{r4, r5, r6, pc}
 80055ea:	46c0      	nop			; (mov r8, r8)
 80055ec:	20000d20 	.word	0x20000d20

080055f0 <__EH_FRAME_BEGIN__>:
 80055f0:	00000000                                ....

080055f4 <_init>:
 80055f4:	b5f8      	push	{r3, r4, r5, r6, r7, lr}
 80055f6:	46c0      	nop			; (mov r8, r8)
 80055f8:	bcf8      	pop	{r3, r4, r5, r6, r7}
 80055fa:	bc08      	pop	{r3}
 80055fc:	469e      	mov	lr, r3
 80055fe:	4770      	bx	lr

08005600 <_fini>:
 8005600:	b5f8      	push	{r3, r4, r5, r6, r7, lr}
 8005602:	46c0      	nop			; (mov r8, r8)
 8005604:	bcf8      	pop	{r3, r4, r5, r6, r7}
 8005606:	bc08      	pop	{r3}
 8005608:	469e      	mov	lr, r3
 800560a:	4770      	bx	lr

0800560c <_ZZN4mbed8CallbackIFvvEE8generateIPS1_EEvRKT_E3ops>:
 800560c:	04ad 0800 04b5 0800 04bf 0800               ............

08005618 <_ZTVN4mbed6SerialE>:
	...
 8005620:	0a17 0800 0a29 0800 0519 0800 08ed 0800     ....)...........
 8005630:	0a3d 0800 0a55 0800 ff44 ffff 0000 0000     =...U...D.......
 8005640:	0545 0800 091d 0800 1843 0800 1801 0800     E.......C.......
 8005650:	1875 0800 17fd 0800 1883 0800 187f 0800     u...............
 8005660:	1879 0800 187d 0800 1887 0800 09e1 0800     y...}...........
 8005670:	09eb 0800 09f5 0800 09ff 0800 0a0d 0800     ................
 8005680:	0a11 0800 0a15 0800 0a5d 0800 0a45 0800     ........]...E...
 8005690:	0a19 0800 0a2d 0800 ff40 ffff 0000 0000     ....-...@.......
 80056a0:	0555 0800 092d 0800                         U...-...

080056a8 <_ZTVN4mbed10SerialBaseE>:
	...
 80056b0:	0abd 0800 0abf 0800 0cf9 0800 0d79 0800     ............y...

080056c0 <_ZTVN4mbed6TickerE>:
	...
 80056c8:	0565 0800 0669 0800 0da3 0800               e...i.......

080056d4 <_ZTVN4mbed10TimerEventE>:
	...
 80056e4:	2207 0800                                   ."..

080056e8 <us_data>:
 80056e8:	56f0 0800 0908 2000                         .V..... 

080056f0 <us_interface>:
 80056f0:	3a85 0800 3a99 0800 3ae1 0800 3af5 0800     .:...:...:...:..
 8005700:	3aa5 0800 3ac1 0800 3995 0800               .:...:...9..

0800570c <_ZTVN4mbed8FileBaseE>:
	...
 8005714:	1685 0800 16f1 0800                         ........

0800571c <_ZTVN4mbed10FileHandleE>:
	...
 800572c:	2207 0800 2207 0800 2207 0800 2207 0800     ."..."..."..."..
 800573c:	1703 0800 1707 0800 0edd 0800 0eeb 0800     ................
 800574c:	170b 0800 09e1 0800 09eb 0800 09f5 0800     ................
 800575c:	09ff 0800 0a0d 0800 0a11 0800 0a15 0800     ................
 800576c:	002f 0000                                   /...

08005770 <_ZTVN4mbed8FileLikeE>:
	...
 8005780:	2207 0800 2207 0800 2207 0800 2207 0800     ."..."..."..."..
 8005790:	1703 0800 1707 0800 0edd 0800 0eeb 0800     ................
 80057a0:	170b 0800 09e1 0800 09eb 0800 09f5 0800     ................
 80057b0:	09ff 0800 0a0d 0800 0a11 0800 0a15 0800     ................
 80057c0:	fffc ffff 0000 0000 0000 0000 0000 0000     ................
 80057d0:	2b77 0000                                   w+..

080057d4 <_ZTVN4mbed6StreamE>:
	...
 80057e4:	1843 0800 1801 0800 1875 0800 17fd 0800     C.......u.......
 80057f4:	1883 0800 187f 0800 1879 0800 187d 0800     ........y...}...
 8005804:	1887 0800 09e1 0800 09eb 0800 09f5 0800     ................
 8005814:	09ff 0800 0a0d 0800 0a11 0800 0a15 0800     ................
 8005824:	2207 0800 2207 0800 17f9 0800 17fb 0800     ."..."..........
 8005834:	fffc ffff 0000 0000 0000 0000 0000 0000     ................

08005844 <_ZTV12DirectSerial>:
	...
 800584c:	1b55 0800 2331 0800 1b79 0800 1b59 0800     U...1#..y...Y...
 800585c:	1b3d 0800 1b4d 0800 1703 0800 1b49 0800     =...M.......I...
 800586c:	0edd 0800 0eeb 0800 1b43 0800 09e1 0800     ........C.......
 800587c:	09eb 0800 09f5 0800 09ff 0800 0a0d 0800     ................
 800588c:	1b95 0800 0a15 0800                         ........

08005894 <__stderr_name>:
 8005894:	732f 6474 7265 0072                         /stderr.

0800589c <__stdin_name>:
 800589c:	732f 6474 6e69 0000                         /stdin..

080058a4 <__stdout_name>:
 80058a4:	732f 6474 756f 0074 000d 0000               /stdout.....

080058b0 <PinMap_UART_RX>:
 80058b0:	0001 0000 4c00 4000 0412 0000 0003 0000     .....L.@........
 80058c0:	4400 4000 0112 0000 000a 0000 3800 4001     .D.@.........8.@
 80058d0:	0112 0000 000f 0000 4400 4000 0112 0000     .........D.@....
 80058e0:	0017 0000 3800 4001 0012 0000 001b 0000     .....8.@........
 80058f0:	4800 4000 0412 0000 0025 0000 4800 4000     .H.@....%....H.@
 8005900:	0112 0000 002b 0000 4800 4000 0112 0000     ....+....H.@....
 8005910:	012b 0000 4c00 4000 0012 0000 ffff 0000     +....L.@........
 8005920:	ffff ffff 0000 0000                         ........

08005928 <PinMap_UART_TX>:
 8005928:	0000 0000 4c00 4000 0412 0000 0002 0000     .....L.@........
 8005938:	4400 4000 0112 0000 0009 0000 3800 4001     .D.@.........8.@
 8005948:	0112 0000 000e 0000 4400 4000 0112 0000     .........D.@....
 8005958:	0016 0000 3800 4001 0012 0000 001a 0000     .....8.@........
 8005968:	4800 4000 0412 0000 0024 0000 4800 4000     .H.@....$....H.@
 8005978:	0112 0000 002a 0000 4800 4000 0112 0000     ....*....H.@....
 8005988:	012a 0000 4c00 4000 0012 0000 ffff 0000     *....L.@........
 8005998:	ffff ffff 0000 0000 6553 5374 7379 6c43     ........SetSysCl
 80059a8:	636f 206b 6166 6c69 6465 000a 0302 0504     ock failed......
 80059b8:	0706 0908 0b0a 0d0c 0f0e 1010 0201 0403     ................
 80059c8:	0605 0807 0a09 0c0b 0e0d 100f               ............

080059d4 <AHBPrescTable>:
	...
 80059dc:	0201 0403 0706 0908                         ........

080059e4 <APBPrescTable>:
 80059e4:	0000 0000 0201 0403 3390 0800 33ac 0800     .........3...3..
 80059f4:	33c4 0800 33dc 0800 340c 0800 33f4 0800     .3...3...4...3..
 8005a04:	6950 6d6e 7061 6520 7272 726f 203a 7277     Pinmap error: wr
 8005a14:	6e6f 2067 6f70 7472 6e20 6d75 6562 2e72     ong port number.
 8005a24:	0000 0000                                   ....

08005a28 <ll_pin_defines>:
 8005a28:	0001 0000 0002 0000 0004 0000 0008 0000     ................
 8005a38:	0010 0000 0020 0000 0040 0000 0080 0000     .... ...@.......
 8005a48:	0100 0000 0200 0000 0400 0000 0800 0000     ................
 8005a58:	1000 0000 2000 0000 4000 0000 8000 0000     ..... ...@......
 8005a68:	7245 6f72 3a72 6e20 7765 7320 7265 6169     Error: new seria
 8005a78:	206c 626f 656a 7463 6920 2073 7375 6e69     l object is usin
 8005a88:	2067 6173 656d 5520 5241 2054 7361 5320     g same UART as S
 8005a98:	4454 4f49 0000 0000                         TDIO....

08005aa0 <info.9237>:
 8005aa0:	4240 000f 0010 0000                         @B......

08005aa8 <__sf_fake_stderr>:
	...

08005ac8 <__sf_fake_stdin>:
	...

08005ae8 <__sf_fake_stdout>:
	...

08005b08 <_global_impure_ptr>:
 8005b08:	01d4 2000                                   ... 
